
firmware:     file format elf32-avr


Disassembly of section .data:

00800100 <timer0>:
  800100:	44 00       	.word	0x0044	; ????
  800102:	0f 6e       	ori	r16, 0xEF	; 239
	...

00800105 <_ZN5genos7ns_listE>:
  800105:	05 01       	movw	r0, r10
  800107:	05 01       	movw	r0, r10

00800109 <_ZN4crow9protocolsE>:
  800109:	09 01       	movw	r0, r18
  80010b:	09 01       	movw	r0, r18

0080010d <crow_incoming>:
  80010d:	0d 01       	movw	r0, r26
  80010f:	0d 01       	movw	r0, r26

00800111 <unstoplist>:
  800111:	11 01       	movw	r2, r2
  800113:	11 01       	movw	r2, r2

00800115 <ktimer_list>:
  800115:	15 01       	movw	r2, r10
  800117:	15 01       	movw	r2, r10

00800119 <finallist>:
  800119:	19 01       	movw	r2, r18
  80011b:	19 01       	movw	r2, r18

0080011d <jiffies_to_millis>:
  80011d:	01 00       	.word	0x0001	; ????
	...

00800121 <crow_travelled>:
  800121:	21 01       	movw	r4, r2
  800123:	21 01       	movw	r4, r2

00800125 <crow_outters>:
  800125:	25 01       	movw	r4, r10
  800127:	25 01       	movw	r4, r10
  800129:	0f 0d       	add	r16, r15
  80012b:	0e 00       	.word	0x000e	; ????
  80012d:	0c 0a       	sbc	r0, r28
  80012f:	0b 00       	.word	0x000b	; ????
  800131:	08 06       	cpc	r0, r24
  800133:	07 00       	.word	0x0007	; ????
  800135:	44 00       	.word	0x0044	; ????
  800137:	27 04       	cpc	r2, r7
  800139:	9d 04       	cpc	r9, r13
  80013b:	48 00       	.word	0x0048	; ????
  80013d:	27 04       	cpc	r2, r7
  80013f:	9d 04       	cpc	r9, r13
  800141:	23 00       	.word	0x0023	; ????
  800143:	5d 04       	cpc	r5, r13
  800145:	94 04       	cpc	r9, r4
  800147:	d6 00       	.word	0x00d6	; ????
  800149:	a6 04       	cpc	r10, r6
  80014b:	df 04       	cpc	r13, r15
  80014d:	7a 69       	ori	r23, 0x9A	; 154
  80014f:	70 70       	andi	r23, 0x00	; 0
  800151:	6f 5f       	subi	r22, 0xFF	; 255
  800153:	63 6f       	ori	r22, 0xF3	; 243
  800155:	6e 74       	andi	r22, 0x4E	; 78
  800157:	72 6f       	ori	r23, 0xF2	; 242
  800159:	6c 00       	.word	0x006c	; ????
  80015b:	7a 69       	ori	r23, 0x9A	; 154
  80015d:	70 70       	andi	r23, 0x00	; 0
  80015f:	6f 5f       	subi	r22, 0xFF	; 255
  800161:	65 6e       	ori	r22, 0xE5	; 229
  800163:	61 62       	ori	r22, 0x21	; 33
  800165:	6c 65       	ori	r22, 0x5C	; 92
  800167:	00 6f       	ori	r16, 0xF0	; 240
  800169:	6e 00       	.word	0x006e	; ????
  80016b:	6f 66       	ori	r22, 0x6F	; 111
  80016d:	66 00       	.word	0x0066	; ????
  80016f:	7a 69       	ori	r23, 0x9A	; 154
  800171:	70 70       	andi	r23, 0x00	; 0
  800173:	6f 5f       	subi	r22, 0xFF	; 255
  800175:	73 68       	ori	r23, 0x83	; 131
  800177:	6f 72       	andi	r22, 0x2F	; 47
  800179:	00 7a       	andi	r16, 0xA0	; 160
  80017b:	69 70       	andi	r22, 0x09	; 9
  80017d:	70 6f       	ori	r23, 0xF0	; 240
  80017f:	5f 73       	andi	r21, 0x3F	; 63
  800181:	76 65       	ori	r23, 0x56	; 86
  800183:	72 00       	.word	0x0072	; ????
  800185:	23 46       	sbci	r18, 0x63	; 99
  800187:	34 2e       	mov	r3, r20
  800189:	31 32       	cpi	r19, 0x21	; 33
  80018b:	2e 31       	cpi	r18, 0x1E	; 30
  80018d:	32 37       	cpi	r19, 0x72	; 114
  80018f:	2e 30       	cpi	r18, 0x0E	; 14
  800191:	2e 30       	cpi	r18, 0x0E	; 14
  800193:	2e 31       	cpi	r18, 0x1E	; 30
  800195:	3a 31       	cpi	r19, 0x1A	; 26
  800197:	30 30       	cpi	r19, 0x00	; 0
  800199:	30 39       	cpi	r19, 0x90	; 144
  80019b:	00 49       	sbci	r16, 0x90	; 144
  80019d:	4e 49       	sbci	r20, 0x9E	; 158
  80019f:	54 45       	sbci	r21, 0x54	; 84
  8001a1:	44 00       	.word	0x0044	; ????
  8001a3:	44 54       	subi	r20, 0x44	; 68
  8001a5:	52 41       	sbci	r21, 0x12	; 18
  8001a7:	43 45       	sbci	r20, 0x53	; 83
  8001a9:	3a 20       	and	r3, r10
  8001ab:	00 0d       	add	r16, r0
  8001ad:	0a 00       	.word	0x000a	; ????

008001af <usart0_diag>:
  8001af:	a6 15       	cp	r26, r6
  8001b1:	00 00       	nop
  8001b3:	e1 18       	sub	r14, r1
	...

008001b7 <_ctype>:
  8001b7:	08 08       	sbc	r0, r8
  8001b9:	08 08       	sbc	r0, r8
  8001bb:	08 08       	sbc	r0, r8
  8001bd:	08 08       	sbc	r0, r8
  8001bf:	08 28       	or	r0, r8
  8001c1:	28 28       	or	r2, r8
  8001c3:	28 28       	or	r2, r8
  8001c5:	08 08       	sbc	r0, r8
  8001c7:	08 08       	sbc	r0, r8
  8001c9:	08 08       	sbc	r0, r8
  8001cb:	08 08       	sbc	r0, r8
  8001cd:	08 08       	sbc	r0, r8
  8001cf:	08 08       	sbc	r0, r8
  8001d1:	08 08       	sbc	r0, r8
  8001d3:	08 08       	sbc	r0, r8
  8001d5:	08 08       	sbc	r0, r8
  8001d7:	a0 10       	cpse	r10, r0
  8001d9:	10 10       	cpse	r1, r0
  8001db:	10 10       	cpse	r1, r0
  8001dd:	10 10       	cpse	r1, r0
  8001df:	10 10       	cpse	r1, r0
  8001e1:	10 10       	cpse	r1, r0
  8001e3:	10 10       	cpse	r1, r0
  8001e5:	10 10       	cpse	r1, r0
  8001e7:	04 04       	cpc	r0, r4
  8001e9:	04 04       	cpc	r0, r4
  8001eb:	04 04       	cpc	r0, r4
  8001ed:	04 04       	cpc	r0, r4
  8001ef:	04 04       	cpc	r0, r4
  8001f1:	10 10       	cpse	r1, r0
  8001f3:	10 10       	cpse	r1, r0
  8001f5:	10 10       	cpse	r1, r0
  8001f7:	10 41       	sbci	r17, 0x10	; 16
  8001f9:	41 41       	sbci	r20, 0x11	; 17
  8001fb:	41 41       	sbci	r20, 0x11	; 17
  8001fd:	41 01       	movw	r8, r2
  8001ff:	01 01       	movw	r0, r2
  800201:	01 01       	movw	r0, r2
  800203:	01 01       	movw	r0, r2
  800205:	01 01       	movw	r0, r2
  800207:	01 01       	movw	r0, r2
  800209:	01 01       	movw	r0, r2
  80020b:	01 01       	movw	r0, r2
  80020d:	01 01       	movw	r0, r2
  80020f:	01 01       	movw	r0, r2
  800211:	01 10       	cpse	r0, r1
  800213:	10 10       	cpse	r1, r0
  800215:	10 10       	cpse	r1, r0
  800217:	10 42       	sbci	r17, 0x20	; 32
  800219:	42 42       	sbci	r20, 0x22	; 34
  80021b:	42 42       	sbci	r20, 0x22	; 34
  80021d:	42 02       	muls	r20, r18
  80021f:	02 02       	muls	r16, r18
  800221:	02 02       	muls	r16, r18
  800223:	02 02       	muls	r16, r18
  800225:	02 02       	muls	r16, r18
  800227:	02 02       	muls	r16, r18
  800229:	02 02       	muls	r16, r18
  80022b:	02 02       	muls	r16, r18
  80022d:	02 02       	muls	r16, r18
  80022f:	02 02       	muls	r16, r18
  800231:	02 10       	cpse	r0, r2
  800233:	10 10       	cpse	r1, r0
  800235:	10 08       	sbc	r1, r0
	...
  800257:	a0 10       	cpse	r10, r0
  800259:	10 10       	cpse	r1, r0
  80025b:	10 10       	cpse	r1, r0
  80025d:	10 10       	cpse	r1, r0
  80025f:	10 10       	cpse	r1, r0
  800261:	10 10       	cpse	r1, r0
  800263:	10 10       	cpse	r1, r0
  800265:	10 10       	cpse	r1, r0
  800267:	10 10       	cpse	r1, r0
  800269:	10 10       	cpse	r1, r0
  80026b:	10 10       	cpse	r1, r0
  80026d:	10 10       	cpse	r1, r0
  80026f:	10 10       	cpse	r1, r0
  800271:	10 10       	cpse	r1, r0
  800273:	10 10       	cpse	r1, r0
  800275:	10 10       	cpse	r1, r0
  800277:	01 01       	movw	r0, r2
  800279:	01 01       	movw	r0, r2
  80027b:	01 01       	movw	r0, r2
  80027d:	01 01       	movw	r0, r2
  80027f:	01 01       	movw	r0, r2
  800281:	01 01       	movw	r0, r2
  800283:	01 01       	movw	r0, r2
  800285:	01 01       	movw	r0, r2
  800287:	01 01       	movw	r0, r2
  800289:	01 01       	movw	r0, r2
  80028b:	01 01       	movw	r0, r2
  80028d:	01 10       	cpse	r0, r1
  80028f:	01 01       	movw	r0, r2
  800291:	01 01       	movw	r0, r2
  800293:	01 01       	movw	r0, r2
  800295:	01 02       	muls	r16, r17
  800297:	02 02       	muls	r16, r18
  800299:	02 02       	muls	r16, r18
  80029b:	02 02       	muls	r16, r18
  80029d:	02 02       	muls	r16, r18
  80029f:	02 02       	muls	r16, r18
  8002a1:	02 02       	muls	r16, r18
  8002a3:	02 02       	muls	r16, r18
  8002a5:	02 02       	muls	r16, r18
  8002a7:	02 02       	muls	r16, r18
  8002a9:	02 02       	muls	r16, r18
  8002ab:	02 02       	muls	r16, r18
  8002ad:	02 10       	cpse	r0, r2
  8002af:	02 02       	muls	r16, r18
  8002b1:	02 02       	muls	r16, r18
  8002b3:	02 02       	muls	r16, r18
  8002b5:	02 02       	muls	r16, r18

008002b7 <_ZZN4crow18engage_packet_poolEPvjjE19__PRETTY_FUNCTION__>:
  8002b7:	76 6f       	ori	r23, 0xF6	; 246
  8002b9:	69 64       	ori	r22, 0x49	; 73
  8002bb:	20 63       	ori	r18, 0x30	; 48
  8002bd:	72 6f       	ori	r23, 0xF2	; 242
  8002bf:	77 3a       	cpi	r23, 0xA7	; 167
  8002c1:	3a 65       	ori	r19, 0x5A	; 90
  8002c3:	6e 67       	ori	r22, 0x7E	; 126
  8002c5:	61 67       	ori	r22, 0x71	; 113
  8002c7:	65 5f       	subi	r22, 0xF5	; 245
  8002c9:	70 61       	ori	r23, 0x10	; 16
  8002cb:	63 6b       	ori	r22, 0xB3	; 179
  8002cd:	65 74       	andi	r22, 0x45	; 69
  8002cf:	5f 70       	andi	r21, 0x0F	; 15
  8002d1:	6f 6f       	ori	r22, 0xFF	; 255
  8002d3:	6c 28       	or	r6, r12
  8002d5:	76 6f       	ori	r23, 0xF6	; 246
  8002d7:	69 64       	ori	r22, 0x49	; 73
  8002d9:	2a 2c       	mov	r2, r10
  8002db:	20 73       	andi	r18, 0x30	; 48
  8002dd:	69 7a       	andi	r22, 0xA9	; 169
  8002df:	65 5f       	subi	r22, 0xF5	; 245
  8002e1:	74 2c       	mov	r7, r4
  8002e3:	20 73       	andi	r18, 0x30	; 48
  8002e5:	69 7a       	andi	r22, 0xA9	; 169
  8002e7:	65 5f       	subi	r22, 0xF5	; 245
  8002e9:	74 29       	or	r23, r4
	...

008002ec <_ZZN13crow_uartgate4initEP11uart_deviceE19__PRETTY_FUNCTION__>:
  8002ec:	76 6f       	ori	r23, 0xF6	; 246
  8002ee:	69 64       	ori	r22, 0x49	; 73
  8002f0:	20 63       	ori	r18, 0x30	; 48
  8002f2:	72 6f       	ori	r23, 0xF2	; 242
  8002f4:	77 5f       	subi	r23, 0xF7	; 247
  8002f6:	75 61       	ori	r23, 0x15	; 21
  8002f8:	72 74       	andi	r23, 0x42	; 66
  8002fa:	67 61       	ori	r22, 0x17	; 23
  8002fc:	74 65       	ori	r23, 0x54	; 84
  8002fe:	3a 3a       	cpi	r19, 0xAA	; 170
  800300:	69 6e       	ori	r22, 0xE9	; 233
  800302:	69 74       	andi	r22, 0x49	; 73
  800304:	28 75       	andi	r18, 0x58	; 88
  800306:	61 72       	andi	r22, 0x21	; 33
  800308:	74 5f       	subi	r23, 0xF4	; 244
  80030a:	64 65       	ori	r22, 0x54	; 84
  80030c:	76 69       	ori	r23, 0x96	; 150
  80030e:	63 65       	ori	r22, 0x53	; 83
  800310:	2a 29       	or	r18, r10
  800312:	00 2f       	mov	r16, r16
  800314:	64 65       	ori	r22, 0x54	; 84
  800316:	76 00       	.word	0x0076	; ????
  800318:	61 62       	ori	r22, 0x21	; 33
  80031a:	6f 72       	andi	r22, 0x2F	; 47
  80031c:	74 00       	.word	0x0074	; ????

0080031e <_ZZN13crow_uartgate7do_sendEPN4crow6packetEE19__PRETTY_FUNCTION__>:
  80031e:	76 6f       	ori	r23, 0xF6	; 246
  800320:	69 64       	ori	r22, 0x49	; 73
  800322:	20 63       	ori	r18, 0x30	; 48
  800324:	72 6f       	ori	r23, 0xF2	; 242
  800326:	77 5f       	subi	r23, 0xF7	; 247
  800328:	75 61       	ori	r23, 0x15	; 21
  80032a:	72 74       	andi	r23, 0x42	; 66
  80032c:	67 61       	ori	r22, 0x17	; 23
  80032e:	74 65       	ori	r23, 0x54	; 84
  800330:	3a 3a       	cpi	r19, 0xAA	; 170
  800332:	64 6f       	ori	r22, 0xF4	; 244
  800334:	5f 73       	andi	r21, 0x3F	; 63
  800336:	65 6e       	ori	r22, 0xE5	; 229
  800338:	64 28       	or	r6, r4
  80033a:	63 72       	andi	r22, 0x23	; 35
  80033c:	6f 77       	andi	r22, 0x7F	; 127
  80033e:	3a 3a       	cpi	r19, 0xAA	; 170
  800340:	70 61       	ori	r23, 0x10	; 16
  800342:	63 6b       	ori	r22, 0xB3	; 179
  800344:	65 74       	andi	r22, 0x45	; 69
  800346:	2a 29       	or	r18, r10
	...

00800349 <_ZTVN5genos3avr5timerIjP12timer16_regsEE>:
  800349:	00 00       	nop
  80034b:	00 00       	nop
  80034d:	dc 0e       	add	r13, r28
  80034f:	2b 14       	cp	r2, r11
  800351:	48 09       	sbc	r20, r8
  800353:	1d 14       	cp	r1, r13
  800355:	1b 14       	cp	r1, r11
  800357:	13 14       	cp	r1, r3

00800359 <_ZTVN5genos3avr5timerIhP11timer8_regsEE>:
  800359:	00 00       	nop
  80035b:	00 00       	nop
  80035d:	5f 09       	sbc	r21, r15
  80035f:	52 09       	sbc	r21, r2
  800361:	48 09       	sbc	r20, r8
  800363:	3a 09       	sbc	r19, r10
  800365:	38 09       	sbc	r19, r8
  800367:	30 09       	sbc	r19, r0

00800369 <_ZTVN5genos14device_managerE>:
  800369:	00 00       	nop
  80036b:	00 00       	nop
  80036d:	df 15       	cp	r29, r15
  80036f:	c6 15       	cp	r28, r6
  800371:	c6 15       	cp	r28, r6
  800373:	f8 ff       	.word	0xfff8	; ????
  800375:	00 00       	nop
  800377:	cf 15       	cp	r28, r15
  800379:	c6 15       	cp	r28, r6
  80037b:	a3 16       	cp	r10, r19
  80037d:	c9 15       	cp	r28, r9
  80037f:	cc 15       	cp	r28, r12
  800381:	cc 15       	cp	r28, r12

00800383 <_ZTVN4crow19pubsub_protocol_clsE>:
  800383:	00 00       	nop
  800385:	00 00       	nop
  800387:	b7 1d       	adc	r27, r7
  800389:	c2 1d       	adc	r28, r2

0080038b <_ZTV16avr_usart_device>:
  80038b:	00 00       	nop
  80038d:	00 00       	nop
  80038f:	65 14       	cp	r6, r5
  800391:	27 15       	cp	r18, r7
  800393:	f0 14       	cp	r15, r0
  800395:	e8 14       	cp	r14, r8
  800397:	df 14       	cp	r13, r15
  800399:	d6 14       	cp	r13, r6
  80039b:	cd 14       	cp	r12, r13

0080039d <_ZTVN5genos11coopschedeeE>:
  80039d:	00 00       	nop
  80039f:	00 00       	nop
  8003a1:	3d 16       	cp	r3, r29
  8003a3:	33 16       	cp	r3, r19
  8003a5:	8d 18       	sub	r8, r13
  8003a7:	54 02       	muls	r21, r20

008003a9 <_ZTV13crow_uartgate>:
  8003a9:	00 00       	nop
  8003ab:	00 00       	nop
  8003ad:	2c 1b       	sub	r18, r28
  8003af:	52 1a       	sub	r5, r18

008003b1 <_ZTV14avr_i2c_device>:
  8003b1:	00 00       	nop
  8003b3:	00 00       	nop
  8003b5:	74 02       	muls	r23, r20
  8003b7:	55 02       	muls	r21, r21
  8003b9:	84 02       	muls	r24, r20

008003bb <_ZTVN5genos13autom_schedeeE>:
  8003bb:	00 00       	nop
  8003bd:	00 00       	nop
  8003bf:	d2 15       	cp	r29, r2
  8003c1:	d9 16       	cp	r13, r25
  8003c3:	ba 18       	sub	r11, r10
  8003c5:	54 02       	muls	r21, r20

008003c7 <_ZTV12motor_driver>:
  8003c7:	00 00       	nop
  8003c9:	00 00       	nop
  8003cb:	9e 02       	muls	r25, r30
  8003cd:	09 02       	muls	r16, r25
  8003cf:	6d 69       	ori	r22, 0x9D	; 157
  8003d1:	72 6d       	ori	r23, 0xD2	; 210
  8003d3:	69 6b       	ori	r22, 0xB9	; 185
  8003d5:	30 00       	.word	0x0030	; ????
  8003d7:	48 45       	sbci	r20, 0x58	; 88
  8003d9:	52 45       	sbci	r21, 0x52	; 82
	...

008003dc <_ZZN4crow15allocate_packetEjE19__PRETTY_FUNCTION__>:
  8003dc:	63 72       	andi	r22, 0x23	; 35
  8003de:	6f 77       	andi	r22, 0x7F	; 127
  8003e0:	3a 3a       	cpi	r19, 0xAA	; 170
  8003e2:	70 61       	ori	r23, 0x10	; 16
  8003e4:	63 6b       	ori	r22, 0xB3	; 179
  8003e6:	65 74       	andi	r22, 0x45	; 69
  8003e8:	2a 20       	and	r2, r10
  8003ea:	63 72       	andi	r22, 0x23	; 35
  8003ec:	6f 77       	andi	r22, 0x7F	; 127
  8003ee:	3a 3a       	cpi	r19, 0xAA	; 170
  8003f0:	61 6c       	ori	r22, 0xC1	; 193
  8003f2:	6c 6f       	ori	r22, 0xFC	; 252
  8003f4:	63 61       	ori	r22, 0x13	; 19
  8003f6:	74 65       	ori	r23, 0x54	; 84
  8003f8:	5f 70       	andi	r21, 0x0F	; 15
  8003fa:	61 63       	ori	r22, 0x31	; 49
  8003fc:	6b 65       	ori	r22, 0x5B	; 91
  8003fe:	74 28       	or	r7, r4
  800400:	73 69       	ori	r23, 0x93	; 147
  800402:	7a 65       	ori	r23, 0x5A	; 90
  800404:	5f 74       	andi	r21, 0x4F	; 79
  800406:	29 00       	.word	0x0029	; ????
  800408:	49 52       	subi	r20, 0x29	; 41
  80040a:	51 5f       	subi	r21, 0xF1	; 241
  80040c:	53 54       	subi	r21, 0x43	; 67
  80040e:	55 42       	sbci	r21, 0x25	; 37
  800410:	5f 00       	.word	0x005f	; ????
  800412:	66 69       	ori	r22, 0x96	; 150
  800414:	6c 65       	ori	r22, 0x5C	; 92
  800416:	3a 20       	and	r3, r10
  800418:	00 66       	ori	r16, 0x60	; 96
  80041a:	75 6e       	ori	r23, 0xE5	; 229
  80041c:	63 3a       	cpi	r22, 0xA3	; 163
  80041e:	20 00       	.word	0x0020	; ????
  800420:	6c 69       	ori	r22, 0x9C	; 156
  800422:	6e 65       	ori	r22, 0x5E	; 94
  800424:	3a 20       	and	r3, r10
  800426:	00 2f       	mov	r16, r16
  800428:	68 6f       	ori	r22, 0xF8	; 248
  80042a:	6d 65       	ori	r22, 0x5D	; 93
  80042c:	2f 6d       	ori	r18, 0xDF	; 223
  80042e:	69 72       	andi	r22, 0x29	; 41
  800430:	6d 69       	ori	r22, 0x9D	; 157
  800432:	6b 2f       	mov	r22, r27
  800434:	70 72       	andi	r23, 0x20	; 32
  800436:	6f 6a       	ori	r22, 0xAF	; 175
  800438:	65 63       	ori	r22, 0x35	; 53
  80043a:	74 2f       	mov	r23, r20
  80043c:	67 65       	ori	r22, 0x57	; 87
  80043e:	6e 6f       	ori	r22, 0xFE	; 254
  800440:	73 2f       	mov	r23, r19
  800442:	73 72       	andi	r23, 0x23	; 35
  800444:	63 2f       	mov	r22, r19
  800446:	67 65       	ori	r22, 0x57	; 87
  800448:	6e 6f       	ori	r22, 0xFE	; 254
  80044a:	73 2f       	mov	r23, r19
  80044c:	73 63       	ori	r23, 0x33	; 51
  80044e:	68 65       	ori	r22, 0x58	; 88
  800450:	64 65       	ori	r22, 0x54	; 84
  800452:	65 2f       	mov	r22, r21
  800454:	63 6f       	ori	r22, 0xF3	; 243
  800456:	6f 70       	andi	r22, 0x0F	; 15
  800458:	2e 63       	ori	r18, 0x3E	; 62
  80045a:	70 70       	andi	r23, 0x00	; 0
  80045c:	00 2f       	mov	r16, r16
  80045e:	68 6f       	ori	r22, 0xF8	; 248
  800460:	6d 65       	ori	r22, 0x5D	; 93
  800462:	2f 6d       	ori	r18, 0xDF	; 223
  800464:	69 72       	andi	r22, 0x29	; 41
  800466:	6d 69       	ori	r22, 0x9D	; 157
  800468:	6b 2f       	mov	r22, r27
  80046a:	70 72       	andi	r23, 0x20	; 32
  80046c:	6f 6a       	ori	r22, 0xAF	; 175
  80046e:	65 63       	ori	r22, 0x35	; 53
  800470:	74 2f       	mov	r23, r20
  800472:	67 65       	ori	r22, 0x57	; 87
  800474:	6e 6f       	ori	r22, 0xFE	; 254
  800476:	73 2f       	mov	r23, r19
  800478:	73 72       	andi	r23, 0x23	; 35
  80047a:	63 2f       	mov	r22, r19
  80047c:	67 65       	ori	r22, 0x57	; 87
  80047e:	6e 6f       	ori	r22, 0xFE	; 254
  800480:	73 2f       	mov	r23, r19
  800482:	73 63       	ori	r23, 0x33	; 51
  800484:	68 65       	ori	r22, 0x58	; 88
  800486:	64 65       	ori	r22, 0x54	; 84
  800488:	65 2f       	mov	r22, r21
  80048a:	61 75       	andi	r22, 0x51	; 81
  80048c:	74 6f       	ori	r23, 0xF4	; 244
  80048e:	6d 2e       	mov	r6, r29
  800490:	63 70       	andi	r22, 0x03	; 3
  800492:	70 00       	.word	0x0070	; ????

00800494 <_ZZN5genos13autom_schedee8finalizeEvE8__func__>:
  800494:	66 69       	ori	r22, 0x96	; 150
  800496:	6e 61       	ori	r22, 0x1E	; 30
  800498:	6c 69       	ori	r22, 0x9C	; 156
  80049a:	7a 65       	ori	r23, 0x5A	; 90
	...

0080049d <_ZZN5genos11coopschedee8finalizeEvE8__func__>:
  80049d:	66 69       	ori	r22, 0x96	; 150
  80049f:	6e 61       	ori	r22, 0x1E	; 30
  8004a1:	6c 69       	ori	r22, 0x9C	; 156
  8004a3:	7a 65       	ori	r23, 0x5A	; 90
  8004a5:	00 2f       	mov	r16, r16
  8004a7:	68 6f       	ori	r22, 0xF8	; 248
  8004a9:	6d 65       	ori	r22, 0x5D	; 93
  8004ab:	2f 6d       	ori	r18, 0xDF	; 223
  8004ad:	69 72       	andi	r22, 0x29	; 41
  8004af:	6d 69       	ori	r22, 0x9D	; 157
  8004b1:	6b 2f       	mov	r22, r27
  8004b3:	70 72       	andi	r23, 0x20	; 32
  8004b5:	6f 6a       	ori	r22, 0xAF	; 175
  8004b7:	65 63       	ori	r22, 0x35	; 53
  8004b9:	74 2f       	mov	r23, r20
  8004bb:	67 65       	ori	r22, 0x57	; 87
  8004bd:	6e 6f       	ori	r22, 0xFE	; 254
  8004bf:	73 2f       	mov	r23, r19
  8004c1:	73 72       	andi	r23, 0x23	; 35
  8004c3:	63 2f       	mov	r22, r19
  8004c5:	64 72       	andi	r22, 0x24	; 36
  8004c7:	69 76       	andi	r22, 0x69	; 105
  8004c9:	65 72       	andi	r22, 0x25	; 37
  8004cb:	73 2f       	mov	r23, r19
  8004cd:	63 72       	andi	r22, 0x23	; 35
  8004cf:	6f 77       	andi	r22, 0x7F	; 127
  8004d1:	2f 75       	andi	r18, 0x5F	; 95
  8004d3:	61 72       	andi	r22, 0x21	; 33
  8004d5:	74 67       	ori	r23, 0x74	; 116
  8004d7:	61 74       	andi	r22, 0x41	; 65
  8004d9:	65 2e       	mov	r6, r21
  8004db:	63 70       	andi	r22, 0x03	; 3
  8004dd:	70 00       	.word	0x0070	; ????

008004df <_ZZ16uartgate_handlerPviE8__func__>:
  8004df:	75 61       	ori	r23, 0x15	; 21
  8004e1:	72 74       	andi	r23, 0x42	; 66
  8004e3:	67 61       	ori	r22, 0x17	; 23
  8004e5:	74 65       	ori	r23, 0x54	; 84
  8004e7:	5f 68       	ori	r21, 0x8F	; 143
  8004e9:	61 6e       	ori	r22, 0xE1	; 225
  8004eb:	64 6c       	ori	r22, 0xC4	; 196
  8004ed:	65 72       	andi	r22, 0x25	; 37
	...

008004f0 <_ZZN4crow17deallocate_packetEPNS_6packetEE19__PRETTY_FUNCTION__>:
  8004f0:	76 6f       	ori	r23, 0xF6	; 246
  8004f2:	69 64       	ori	r22, 0x49	; 73
  8004f4:	20 63       	ori	r18, 0x30	; 48
  8004f6:	72 6f       	ori	r23, 0xF2	; 242
  8004f8:	77 3a       	cpi	r23, 0xA7	; 167
  8004fa:	3a 64       	ori	r19, 0x4A	; 74
  8004fc:	65 61       	ori	r22, 0x15	; 21
  8004fe:	6c 6c       	ori	r22, 0xCC	; 204
  800500:	6f 63       	ori	r22, 0x3F	; 63
  800502:	61 74       	andi	r22, 0x41	; 65
  800504:	65 5f       	subi	r22, 0xF5	; 245
  800506:	70 61       	ori	r23, 0x10	; 16
  800508:	63 6b       	ori	r22, 0xB3	; 179
  80050a:	65 74       	andi	r22, 0x45	; 69
  80050c:	28 63       	ori	r18, 0x38	; 56
  80050e:	72 6f       	ori	r23, 0xF2	; 242
  800510:	77 3a       	cpi	r23, 0xA7	; 167
  800512:	3a 70       	andi	r19, 0x0A	; 10
  800514:	61 63       	ori	r22, 0x31	; 49
  800516:	6b 65       	ori	r22, 0x5B	; 91
  800518:	74 2a       	or	r7, r20
  80051a:	29 00       	.word	0x0029	; ????

0080051c <_ZZN13crow_uartgate4sendEPN4crow6packetEE19__PRETTY_FUNCTION__>:
  80051c:	76 69       	ori	r23, 0x96	; 150
  80051e:	72 74       	andi	r23, 0x42	; 66
  800520:	75 61       	ori	r23, 0x15	; 21
  800522:	6c 20       	and	r6, r12
  800524:	76 6f       	ori	r23, 0xF6	; 246
  800526:	69 64       	ori	r22, 0x49	; 73
  800528:	20 63       	ori	r18, 0x30	; 48
  80052a:	72 6f       	ori	r23, 0xF2	; 242
  80052c:	77 5f       	subi	r23, 0xF7	; 247
  80052e:	75 61       	ori	r23, 0x15	; 21
  800530:	72 74       	andi	r23, 0x42	; 66
  800532:	67 61       	ori	r22, 0x17	; 23
  800534:	74 65       	ori	r23, 0x54	; 84
  800536:	3a 3a       	cpi	r19, 0xAA	; 170
  800538:	73 65       	ori	r23, 0x53	; 83
  80053a:	6e 64       	ori	r22, 0x4E	; 78
  80053c:	28 63       	ori	r18, 0x38	; 56
  80053e:	72 6f       	ori	r23, 0xF2	; 242
  800540:	77 3a       	cpi	r23, 0xA7	; 167
  800542:	3a 70       	andi	r19, 0x0A	; 10
  800544:	61 63       	ori	r22, 0x31	; 49
  800546:	6b 65       	ori	r22, 0x5B	; 91
  800548:	74 2a       	or	r7, r20
  80054a:	29 00       	.word	0x0029	; ????

0080054c <_ZZN13crow_uartgate9init_recvEvE19__PRETTY_FUNCTION__>:
  80054c:	76 6f       	ori	r23, 0xF6	; 246
  80054e:	69 64       	ori	r22, 0x49	; 73
  800550:	20 63       	ori	r18, 0x30	; 48
  800552:	72 6f       	ori	r23, 0xF2	; 242
  800554:	77 5f       	subi	r23, 0xF7	; 247
  800556:	75 61       	ori	r23, 0x15	; 21
  800558:	72 74       	andi	r23, 0x42	; 66
  80055a:	67 61       	ori	r22, 0x17	; 23
  80055c:	74 65       	ori	r23, 0x54	; 84
  80055e:	3a 3a       	cpi	r19, 0xAA	; 170
  800560:	69 6e       	ori	r22, 0xE9	; 233
  800562:	69 74       	andi	r22, 0x49	; 73
  800564:	5f 72       	andi	r21, 0x2F	; 47
  800566:	65 63       	ori	r22, 0x35	; 53
  800568:	76 28       	or	r7, r6
  80056a:	29 00       	.word	0x0029	; ????

0080056c <_ZZN13crow_uartgate15newline_handlerEvE19__PRETTY_FUNCTION__>:
  80056c:	76 6f       	ori	r23, 0xF6	; 246
  80056e:	69 64       	ori	r22, 0x49	; 73
  800570:	20 63       	ori	r18, 0x30	; 48
  800572:	72 6f       	ori	r23, 0xF2	; 242
  800574:	77 5f       	subi	r23, 0xF7	; 247
  800576:	75 61       	ori	r23, 0x15	; 21
  800578:	72 74       	andi	r23, 0x42	; 66
  80057a:	67 61       	ori	r22, 0x17	; 23
  80057c:	74 65       	ori	r23, 0x54	; 84
  80057e:	3a 3a       	cpi	r19, 0xAA	; 170
  800580:	6e 65       	ori	r22, 0x5E	; 94
  800582:	77 6c       	ori	r23, 0xC7	; 199
  800584:	69 6e       	ori	r22, 0xE9	; 233
  800586:	65 5f       	subi	r22, 0xF5	; 245
  800588:	68 61       	ori	r22, 0x18	; 24
  80058a:	6e 64       	ori	r22, 0x4E	; 78
  80058c:	6c 65       	ori	r22, 0x5C	; 92
  80058e:	72 28       	or	r7, r2
  800590:	29 00       	.word	0x0029	; ????

00800592 <_ZZ19uartgate_rx_handlerPvE19__PRETTY_FUNCTION__>:
  800592:	76 6f       	ori	r23, 0xF6	; 246
  800594:	69 64       	ori	r22, 0x49	; 73
  800596:	20 75       	andi	r18, 0x50	; 80
  800598:	61 72       	andi	r22, 0x21	; 33
  80059a:	74 67       	ori	r23, 0x74	; 116
  80059c:	61 74       	andi	r22, 0x41	; 65
  80059e:	65 5f       	subi	r22, 0xF5	; 245
  8005a0:	72 78       	andi	r23, 0x82	; 130
  8005a2:	5f 68       	ori	r21, 0x8F	; 143
  8005a4:	61 6e       	ori	r22, 0xE1	; 225
  8005a6:	64 6c       	ori	r22, 0xC4	; 196
  8005a8:	65 72       	andi	r22, 0x25	; 37
  8005aa:	28 76       	andi	r18, 0x68	; 104
  8005ac:	6f 69       	ori	r22, 0x9F	; 159
  8005ae:	64 2a       	or	r6, r20
  8005b0:	29 00       	.word	0x0029	; ????

008005b2 <_ZZN13crow_uartgate6sendedEvE19__PRETTY_FUNCTION__>:
  8005b2:	76 6f       	ori	r23, 0xF6	; 246
  8005b4:	69 64       	ori	r22, 0x49	; 73
  8005b6:	20 63       	ori	r18, 0x30	; 48
  8005b8:	72 6f       	ori	r23, 0xF2	; 242
  8005ba:	77 5f       	subi	r23, 0xF7	; 247
  8005bc:	75 61       	ori	r23, 0x15	; 21
  8005be:	72 74       	andi	r23, 0x42	; 66
  8005c0:	67 61       	ori	r22, 0x17	; 23
  8005c2:	74 65       	ori	r23, 0x54	; 84
  8005c4:	3a 3a       	cpi	r19, 0xAA	; 170
  8005c6:	73 65       	ori	r23, 0x53	; 83
  8005c8:	6e 64       	ori	r22, 0x4E	; 78
  8005ca:	65 64       	ori	r22, 0x45	; 69
  8005cc:	28 29       	or	r18, r8
	...

008005cf <_ZZ19uartgate_tx_handlerPvE19__PRETTY_FUNCTION__>:
  8005cf:	76 6f       	ori	r23, 0xF6	; 246
  8005d1:	69 64       	ori	r22, 0x49	; 73
  8005d3:	20 75       	andi	r18, 0x50	; 80
  8005d5:	61 72       	andi	r22, 0x21	; 33
  8005d7:	74 67       	ori	r23, 0x74	; 116
  8005d9:	61 74       	andi	r22, 0x41	; 65
  8005db:	65 5f       	subi	r22, 0xF5	; 245
  8005dd:	74 78       	andi	r23, 0x84	; 132
  8005df:	5f 68       	ori	r21, 0x8F	; 143
  8005e1:	61 6e       	ori	r22, 0xE1	; 225
  8005e3:	64 6c       	ori	r22, 0xC4	; 196
  8005e5:	65 72       	andi	r22, 0x25	; 37
  8005e7:	28 76       	andi	r18, 0x68	; 104
  8005e9:	6f 69       	ori	r22, 0x9F	; 159
  8005eb:	64 2a       	or	r6, r20
  8005ed:	29 00       	.word	0x0029	; ????

008005ef <_ZZ16uartgate_handlerPviE19__PRETTY_FUNCTION__>:
  8005ef:	76 6f       	ori	r23, 0xF6	; 246
  8005f1:	69 64       	ori	r22, 0x49	; 73
  8005f3:	20 75       	andi	r18, 0x50	; 80
  8005f5:	61 72       	andi	r22, 0x21	; 33
  8005f7:	74 67       	ori	r23, 0x74	; 116
  8005f9:	61 74       	andi	r22, 0x41	; 65
  8005fb:	65 5f       	subi	r22, 0xF5	; 245
  8005fd:	68 61       	ori	r22, 0x18	; 24
  8005ff:	6e 64       	ori	r22, 0x4E	; 78
  800601:	6c 65       	ori	r22, 0x5C	; 92
  800603:	72 28       	or	r7, r2
  800605:	76 6f       	ori	r23, 0xF6	; 246
  800607:	69 64       	ori	r22, 0x49	; 73
  800609:	2a 2c       	mov	r2, r10
  80060b:	20 69       	ori	r18, 0x90	; 144
  80060d:	6e 74       	andi	r22, 0x4E	; 78
  80060f:	29 00       	.word	0x0029	; ????

Disassembly of section .text:

00000000 <_stext>:
       0:	0c 94 34 00 	jmp	0x68	; 0x68 <__start>
       4:	0c 94 aa 00 	jmp	0x154	; 0x154 <atmega_int0>
       8:	0c 94 ad 00 	jmp	0x15a	; 0x15a <atmega_int1>
       c:	0c 94 b0 00 	jmp	0x160	; 0x160 <atmega_pcint0>
      10:	0c 94 b3 00 	jmp	0x166	; 0x166 <atmega_pcint1>
      14:	0c 94 b6 00 	jmp	0x16c	; 0x16c <atmega_pcint2>
      18:	0c 94 b9 00 	jmp	0x172	; 0x172 <atmega_wdt>
      1c:	0c 94 bc 00 	jmp	0x178	; 0x178 <atmega_tim2_compa>
      20:	0c 94 bf 00 	jmp	0x17e	; 0x17e <atmega_tim2_compb>
      24:	0c 94 c2 00 	jmp	0x184	; 0x184 <atmega_tim2_ovf>
      28:	0c 94 c5 00 	jmp	0x18a	; 0x18a <atmega_tim1_capt>
      2c:	0c 94 c8 00 	jmp	0x190	; 0x190 <atmega_tim1_compa>
      30:	0c 94 cb 00 	jmp	0x196	; 0x196 <atmega_tim1_compb>
      34:	0c 94 ce 00 	jmp	0x19c	; 0x19c <atmega_tim1_ovf>
      38:	0c 94 d1 00 	jmp	0x1a2	; 0x1a2 <atmega_tim0_compa>
      3c:	0c 94 d4 00 	jmp	0x1a8	; 0x1a8 <atmega_tim0_compb>
      40:	0c 94 d7 00 	jmp	0x1ae	; 0x1ae <atmega_tim0_ovf>
      44:	0c 94 da 00 	jmp	0x1b4	; 0x1b4 <atmega_spi_stc>
      48:	0c 94 dd 00 	jmp	0x1ba	; 0x1ba <atmega_u0rx>
      4c:	0c 94 e0 00 	jmp	0x1c0	; 0x1c0 <atmega_u0dre>
      50:	0c 94 e3 00 	jmp	0x1c6	; 0x1c6 <atmega_u0tx>
      54:	0c 94 e6 00 	jmp	0x1cc	; 0x1cc <atmega_adc>
      58:	0c 94 e9 00 	jmp	0x1d2	; 0x1d2 <atmega_ee_rdy>
      5c:	0c 94 ec 00 	jmp	0x1d8	; 0x1d8 <atmega_ana_comp>
      60:	0c 94 ef 00 	jmp	0x1de	; 0x1de <atmega_twi>
      64:	0c 94 f2 00 	jmp	0x1e4	; 0x1e4 <atmega_spm_rdy>

00000068 <__start>:
      68:	f8 94       	cli
      6a:	00 24       	eor	r0, r0
      6c:	11 24       	eor	r1, r1
      6e:	22 24       	eor	r2, r2
      70:	33 24       	eor	r3, r3
      72:	44 24       	eor	r4, r4
      74:	55 24       	eor	r5, r5
      76:	66 24       	eor	r6, r6
      78:	77 24       	eor	r7, r7
      7a:	88 24       	eor	r8, r8
      7c:	99 24       	eor	r9, r9
      7e:	aa 24       	eor	r10, r10
      80:	bb 24       	eor	r11, r11
      82:	cc 24       	eor	r12, r12
      84:	dd 24       	eor	r13, r13
      86:	ee 24       	eor	r14, r14
      88:	ff 24       	eor	r15, r15
      8a:	00 27       	eor	r16, r16
      8c:	11 27       	eor	r17, r17
      8e:	22 27       	eor	r18, r18
      90:	33 27       	eor	r19, r19
      92:	44 27       	eor	r20, r20
      94:	55 27       	eor	r21, r21
      96:	66 27       	eor	r22, r22
      98:	88 27       	eor	r24, r24
      9a:	99 27       	eor	r25, r25
      9c:	aa 27       	eor	r26, r26
      9e:	bb 27       	eor	r27, r27
      a0:	cc 27       	eor	r28, r28
      a2:	dd 27       	eor	r29, r29
      a4:	ee 27       	eor	r30, r30
      a6:	ff 27       	eor	r31, r31
      a8:	11 24       	eor	r1, r1
      aa:	1f be       	out	0x3f, r1	; 63
      ac:	cf ef       	ldi	r28, 0xFF	; 255
      ae:	d8 e0       	ldi	r29, 0x08	; 8
      b0:	de bf       	out	0x3e, r29	; 62
      b2:	cd bf       	out	0x3d, r28	; 61

000000b4 <__do_copy_data>:
      b4:	16 e0       	ldi	r17, 0x06	; 6
      b6:	a0 e0       	ldi	r26, 0x00	; 0
      b8:	b1 e0       	ldi	r27, 0x01	; 1
      ba:	ea ee       	ldi	r30, 0xEA	; 234
      bc:	f1 e4       	ldi	r31, 0x41	; 65
      be:	02 c0       	rjmp	.+4      	; 0xc4 <__do_copy_data+0x10>
      c0:	05 90       	lpm	r0, Z+
      c2:	0d 92       	st	X+, r0
      c4:	a1 31       	cpi	r26, 0x11	; 17
      c6:	b1 07       	cpc	r27, r17
      c8:	d9 f7       	brne	.-10     	; 0xc0 <__do_copy_data+0xc>

000000ca <__do_clear_bss>:
      ca:	1a e0       	ldi	r17, 0x0A	; 10
      cc:	a0 e2       	ldi	r26, 0x20	; 32
      ce:	b6 e0       	ldi	r27, 0x06	; 6
      d0:	01 c0       	rjmp	.+2      	; 0xd4 <__do_clear_bss+0xa>
      d2:	1d 92       	st	X+, r1
      d4:	aa 3e       	cpi	r26, 0xEA	; 234
      d6:	b1 07       	cpc	r27, r17
      d8:	e1 f7       	brne	.-8      	; 0xd2 <__do_clear_bss+0x8>

000000da <__do_global_constructors>:
      da:	e8 e7       	ldi	r30, 0x78	; 120
      dc:	f2 e0       	ldi	r31, 0x02	; 2
      de:	22 e0       	ldi	r18, 0x02	; 2
      e0:	0f c0       	rjmp	.+30     	; 0x100 <__do_global_constructors+0x26>
      e2:	07 91       	elpm	r16, Z+
      e4:	17 91       	elpm	r17, Z+
      e6:	ef 93       	push	r30
      e8:	ff 93       	push	r31
      ea:	e0 2f       	mov	r30, r16
      ec:	f1 2f       	mov	r31, r17
      ee:	0f 93       	push	r16
      f0:	1f 93       	push	r17
      f2:	2f 93       	push	r18
      f4:	09 95       	icall
      f6:	2f 91       	pop	r18
      f8:	1f 91       	pop	r17
      fa:	0f 91       	pop	r16
      fc:	ff 91       	pop	r31
      fe:	ef 91       	pop	r30
     100:	ea 37       	cpi	r30, 0x7A	; 122
     102:	f2 07       	cpc	r31, r18
     104:	71 f7       	brne	.-36     	; 0xe2 <__do_global_constructors+0x8>
     106:	0e 94 27 06 	call	0xc4e	; 0xc4e <main>
     10a:	0c 94 33 19 	jmp	0x3266	; 0x3266 <end_of_programm>

0000010e <do_irq>:
     10e:	90 91 dc 0a 	lds	r25, 0x0ADC	; 0x800adc <__interrupt_context>
     112:	9f 5f       	subi	r25, 0xFF	; 255
     114:	90 93 dc 0a 	sts	0x0ADC, r25	; 0x800adc <__interrupt_context>
     118:	26 e0       	ldi	r18, 0x06	; 6
     11a:	82 9f       	mul	r24, r18
     11c:	c0 01       	movw	r24, r0
     11e:	11 24       	eor	r1, r1
     120:	dc 01       	movw	r26, r24
     122:	a4 5d       	subi	r26, 0xD4	; 212
     124:	b7 4f       	sbci	r27, 0xF7	; 247
     126:	14 96       	adiw	r26, 0x04	; 4
     128:	8d 91       	ld	r24, X+
     12a:	9c 91       	ld	r25, X
     12c:	15 97       	sbiw	r26, 0x05	; 5
     12e:	01 96       	adiw	r24, 0x01	; 1
     130:	15 96       	adiw	r26, 0x05	; 5
     132:	9c 93       	st	X, r25
     134:	8e 93       	st	-X, r24
     136:	14 97       	sbiw	r26, 0x04	; 4
     138:	ed 91       	ld	r30, X+
     13a:	fc 91       	ld	r31, X
     13c:	11 97       	sbiw	r26, 0x01	; 1
     13e:	12 96       	adiw	r26, 0x02	; 2
     140:	8d 91       	ld	r24, X+
     142:	9c 91       	ld	r25, X
     144:	13 97       	sbiw	r26, 0x03	; 3
     146:	09 95       	icall
     148:	80 91 dc 0a 	lds	r24, 0x0ADC	; 0x800adc <__interrupt_context>
     14c:	81 50       	subi	r24, 0x01	; 1
     14e:	80 93 dc 0a 	sts	0x0ADC, r24	; 0x800adc <__interrupt_context>
     152:	08 95       	ret

00000154 <atmega_int0>:
     154:	8f 93       	push	r24
     156:	80 e0       	ldi	r24, 0x00	; 0
     158:	48 c0       	rjmp	.+144    	; 0x1ea <excpt_common>

0000015a <atmega_int1>:
     15a:	8f 93       	push	r24
     15c:	81 e0       	ldi	r24, 0x01	; 1
     15e:	45 c0       	rjmp	.+138    	; 0x1ea <excpt_common>

00000160 <atmega_pcint0>:
     160:	8f 93       	push	r24
     162:	82 e0       	ldi	r24, 0x02	; 2
     164:	42 c0       	rjmp	.+132    	; 0x1ea <excpt_common>

00000166 <atmega_pcint1>:
     166:	8f 93       	push	r24
     168:	83 e0       	ldi	r24, 0x03	; 3
     16a:	3f c0       	rjmp	.+126    	; 0x1ea <excpt_common>

0000016c <atmega_pcint2>:
     16c:	8f 93       	push	r24
     16e:	84 e0       	ldi	r24, 0x04	; 4
     170:	3c c0       	rjmp	.+120    	; 0x1ea <excpt_common>

00000172 <atmega_wdt>:
     172:	8f 93       	push	r24
     174:	85 e0       	ldi	r24, 0x05	; 5
     176:	39 c0       	rjmp	.+114    	; 0x1ea <excpt_common>

00000178 <atmega_tim2_compa>:
     178:	8f 93       	push	r24
     17a:	86 e0       	ldi	r24, 0x06	; 6
     17c:	36 c0       	rjmp	.+108    	; 0x1ea <excpt_common>

0000017e <atmega_tim2_compb>:
     17e:	8f 93       	push	r24
     180:	87 e0       	ldi	r24, 0x07	; 7
     182:	33 c0       	rjmp	.+102    	; 0x1ea <excpt_common>

00000184 <atmega_tim2_ovf>:
     184:	8f 93       	push	r24
     186:	88 e0       	ldi	r24, 0x08	; 8
     188:	30 c0       	rjmp	.+96     	; 0x1ea <excpt_common>

0000018a <atmega_tim1_capt>:
     18a:	8f 93       	push	r24
     18c:	89 e0       	ldi	r24, 0x09	; 9
     18e:	2d c0       	rjmp	.+90     	; 0x1ea <excpt_common>

00000190 <atmega_tim1_compa>:
     190:	8f 93       	push	r24
     192:	8a e0       	ldi	r24, 0x0A	; 10
     194:	2a c0       	rjmp	.+84     	; 0x1ea <excpt_common>

00000196 <atmega_tim1_compb>:
     196:	8f 93       	push	r24
     198:	8b e0       	ldi	r24, 0x0B	; 11
     19a:	27 c0       	rjmp	.+78     	; 0x1ea <excpt_common>

0000019c <atmega_tim1_ovf>:
     19c:	8f 93       	push	r24
     19e:	8c e0       	ldi	r24, 0x0C	; 12
     1a0:	24 c0       	rjmp	.+72     	; 0x1ea <excpt_common>

000001a2 <atmega_tim0_compa>:
     1a2:	8f 93       	push	r24
     1a4:	8d e0       	ldi	r24, 0x0D	; 13
     1a6:	21 c0       	rjmp	.+66     	; 0x1ea <excpt_common>

000001a8 <atmega_tim0_compb>:
     1a8:	8f 93       	push	r24
     1aa:	8e e0       	ldi	r24, 0x0E	; 14
     1ac:	1e c0       	rjmp	.+60     	; 0x1ea <excpt_common>

000001ae <atmega_tim0_ovf>:
     1ae:	8f 93       	push	r24
     1b0:	8f e0       	ldi	r24, 0x0F	; 15
     1b2:	1b c0       	rjmp	.+54     	; 0x1ea <excpt_common>

000001b4 <atmega_spi_stc>:
     1b4:	8f 93       	push	r24
     1b6:	80 e1       	ldi	r24, 0x10	; 16
     1b8:	18 c0       	rjmp	.+48     	; 0x1ea <excpt_common>

000001ba <atmega_u0rx>:
     1ba:	8f 93       	push	r24
     1bc:	81 e1       	ldi	r24, 0x11	; 17
     1be:	15 c0       	rjmp	.+42     	; 0x1ea <excpt_common>

000001c0 <atmega_u0dre>:
     1c0:	8f 93       	push	r24
     1c2:	82 e1       	ldi	r24, 0x12	; 18
     1c4:	12 c0       	rjmp	.+36     	; 0x1ea <excpt_common>

000001c6 <atmega_u0tx>:
     1c6:	8f 93       	push	r24
     1c8:	83 e1       	ldi	r24, 0x13	; 19
     1ca:	0f c0       	rjmp	.+30     	; 0x1ea <excpt_common>

000001cc <atmega_adc>:
     1cc:	8f 93       	push	r24
     1ce:	84 e1       	ldi	r24, 0x14	; 20
     1d0:	0c c0       	rjmp	.+24     	; 0x1ea <excpt_common>

000001d2 <atmega_ee_rdy>:
     1d2:	8f 93       	push	r24
     1d4:	85 e1       	ldi	r24, 0x15	; 21
     1d6:	09 c0       	rjmp	.+18     	; 0x1ea <excpt_common>

000001d8 <atmega_ana_comp>:
     1d8:	8f 93       	push	r24
     1da:	86 e1       	ldi	r24, 0x16	; 22
     1dc:	06 c0       	rjmp	.+12     	; 0x1ea <excpt_common>

000001de <atmega_twi>:
     1de:	8f 93       	push	r24
     1e0:	87 e1       	ldi	r24, 0x17	; 23
     1e2:	03 c0       	rjmp	.+6      	; 0x1ea <excpt_common>

000001e4 <atmega_spm_rdy>:
     1e4:	8f 93       	push	r24
     1e6:	88 e1       	ldi	r24, 0x18	; 24
     1e8:	00 c0       	rjmp	.+0      	; 0x1ea <excpt_common>

000001ea <excpt_common>:
     1ea:	9f 93       	push	r25
     1ec:	9f b7       	in	r25, 0x3f	; 63
     1ee:	9f 93       	push	r25
     1f0:	0f 92       	push	r0
     1f2:	1f 92       	push	r1
     1f4:	11 24       	eor	r1, r1
     1f6:	2f 92       	push	r2
     1f8:	3f 92       	push	r3
     1fa:	4f 92       	push	r4
     1fc:	5f 92       	push	r5
     1fe:	6f 92       	push	r6
     200:	7f 92       	push	r7
     202:	8f 92       	push	r8
     204:	9f 92       	push	r9
     206:	af 92       	push	r10
     208:	bf 92       	push	r11
     20a:	cf 92       	push	r12
     20c:	df 92       	push	r13
     20e:	ef 92       	push	r14
     210:	ff 92       	push	r15
     212:	0f 93       	push	r16
     214:	1f 93       	push	r17
     216:	2f 93       	push	r18
     218:	3f 93       	push	r19
     21a:	4f 93       	push	r20
     21c:	5f 93       	push	r21
     21e:	6f 93       	push	r22
     220:	7f 93       	push	r23
     222:	cf 93       	push	r28
     224:	df 93       	push	r29
     226:	ef 93       	push	r30
     228:	ff 93       	push	r31
     22a:	af 93       	push	r26
     22c:	bf 93       	push	r27
     22e:	6f df       	rcall	.-290    	; 0x10e <do_irq>
     230:	bf 91       	pop	r27
     232:	af 91       	pop	r26
     234:	ff 91       	pop	r31
     236:	ef 91       	pop	r30
     238:	df 91       	pop	r29
     23a:	cf 91       	pop	r28
     23c:	7f 91       	pop	r23
     23e:	6f 91       	pop	r22
     240:	5f 91       	pop	r21
     242:	4f 91       	pop	r20
     244:	3f 91       	pop	r19
     246:	2f 91       	pop	r18
     248:	1f 91       	pop	r17
     24a:	0f 91       	pop	r16
     24c:	ff 90       	pop	r15
     24e:	ef 90       	pop	r14
     250:	df 90       	pop	r13
     252:	cf 90       	pop	r12
     254:	bf 90       	pop	r11
     256:	af 90       	pop	r10
     258:	9f 90       	pop	r9
     25a:	8f 90       	pop	r8
     25c:	7f 90       	pop	r7
     25e:	6f 90       	pop	r6
     260:	5f 90       	pop	r5
     262:	4f 90       	pop	r4
     264:	3f 90       	pop	r3
     266:	2f 90       	pop	r2
     268:	1f 90       	pop	r1
     26a:	0f 90       	pop	r0
     26c:	8f 91       	pop	r24
     26e:	8f 77       	andi	r24, 0x7F	; 127
     270:	8f bf       	out	0x3f, r24	; 63
     272:	9f 91       	pop	r25
     274:	8f 91       	pop	r24
     276:	18 95       	reti

00000278 <__ctors_start>:
     278:	71 09       	sbc	r23, r1

0000027a <__ctors_end>:
     27a:	2f 19       	sub	r18, r15

0000027c <_dtors_end>:
     27c:	cf 93       	push	r28
     27e:	df 93       	push	r29
     280:	d9 2f       	mov	r29, r25
     282:	c8 2f       	mov	r28, r24
     284:	09 92       	st	Y+, r0
     286:	19 92       	st	Y+, r1
     288:	29 92       	st	Y+, r2
     28a:	39 92       	st	Y+, r3
     28c:	49 92       	st	Y+, r4
     28e:	59 92       	st	Y+, r5
     290:	69 92       	st	Y+, r6
     292:	79 92       	st	Y+, r7
     294:	89 92       	st	Y+, r8
     296:	99 92       	st	Y+, r9
     298:	a9 92       	st	Y+, r10
     29a:	b9 92       	st	Y+, r11
     29c:	c9 92       	st	Y+, r12
     29e:	d9 92       	st	Y+, r13
     2a0:	e9 92       	st	Y+, r14
     2a2:	f9 92       	st	Y+, r15
     2a4:	09 93       	st	Y+, r16
     2a6:	19 93       	st	Y+, r17
     2a8:	29 93       	st	Y+, r18
     2aa:	39 93       	st	Y+, r19
     2ac:	49 93       	st	Y+, r20
     2ae:	59 93       	st	Y+, r21
     2b0:	69 93       	st	Y+, r22
     2b2:	79 93       	st	Y+, r23
     2b4:	89 93       	st	Y+, r24
     2b6:	99 93       	st	Y+, r25
     2b8:	a9 93       	st	Y+, r26
     2ba:	b9 93       	st	Y+, r27
     2bc:	bf 91       	pop	r27
     2be:	af 91       	pop	r26
     2c0:	a9 93       	st	Y+, r26
     2c2:	b9 93       	st	Y+, r27
     2c4:	e9 93       	st	Y+, r30
     2c6:	f9 93       	st	Y+, r31
     2c8:	0f 90       	pop	r0
     2ca:	0f 91       	pop	r16
     2cc:	0f 90       	pop	r0
     2ce:	09 92       	st	Y+, r0
     2d0:	09 93       	st	Y+, r16
     2d2:	0d b6       	in	r0, 0x3d	; 61
     2d4:	09 92       	st	Y+, r0
     2d6:	0e b6       	in	r0, 0x3e	; 62
     2d8:	09 92       	st	Y+, r0
     2da:	0f b6       	in	r0, 0x3f	; 63
     2dc:	09 92       	st	Y+, r0
     2de:	d7 2f       	mov	r29, r23
     2e0:	c6 2f       	mov	r28, r22
     2e2:	0c a0       	ldd	r0, Y+36	; 0x24
     2e4:	0f be       	out	0x3f, r0	; 63
     2e6:	0a a0       	ldd	r0, Y+34	; 0x22
     2e8:	0d be       	out	0x3d, r0	; 61
     2ea:	0b a0       	ldd	r0, Y+35	; 0x23
     2ec:	0e be       	out	0x3e, r0	; 62
     2ee:	08 a0       	ldd	r0, Y+32	; 0x20
     2f0:	0f 92       	push	r0
     2f2:	09 a0       	ldd	r0, Y+33	; 0x21
     2f4:	0f 92       	push	r0
     2f6:	00 e0       	ldi	r16, 0x00	; 0
     2f8:	0f 93       	push	r16
     2fa:	09 90       	ld	r0, Y+
     2fc:	19 90       	ld	r1, Y+
     2fe:	29 90       	ld	r2, Y+
     300:	39 90       	ld	r3, Y+
     302:	49 90       	ld	r4, Y+
     304:	59 90       	ld	r5, Y+
     306:	69 90       	ld	r6, Y+
     308:	79 90       	ld	r7, Y+
     30a:	89 90       	ld	r8, Y+
     30c:	99 90       	ld	r9, Y+
     30e:	a9 90       	ld	r10, Y+
     310:	b9 90       	ld	r11, Y+
     312:	c9 90       	ld	r12, Y+
     314:	d9 90       	ld	r13, Y+
     316:	e9 90       	ld	r14, Y+
     318:	f9 90       	ld	r15, Y+
     31a:	09 91       	ld	r16, Y+
     31c:	19 91       	ld	r17, Y+
     31e:	29 91       	ld	r18, Y+
     320:	39 91       	ld	r19, Y+
     322:	49 91       	ld	r20, Y+
     324:	59 91       	ld	r21, Y+
     326:	69 91       	ld	r22, Y+
     328:	79 91       	ld	r23, Y+
     32a:	89 91       	ld	r24, Y+
     32c:	99 91       	ld	r25, Y+
     32e:	a9 91       	ld	r26, Y+
     330:	b9 91       	ld	r27, Y+
     332:	af 93       	push	r26
     334:	bf 93       	push	r27
     336:	a9 91       	ld	r26, Y+
     338:	b9 91       	ld	r27, Y+
     33a:	e9 91       	ld	r30, Y+
     33c:	f9 91       	ld	r31, Y+
     33e:	ca 2f       	mov	r28, r26
     340:	db 2f       	mov	r29, r27
     342:	bf 91       	pop	r27
     344:	af 91       	pop	r26
     346:	08 95       	ret

00000348 <context_load>:
     348:	d9 2f       	mov	r29, r25
     34a:	c8 2f       	mov	r28, r24
     34c:	0c a0       	ldd	r0, Y+36	; 0x24
     34e:	0f be       	out	0x3f, r0	; 63
     350:	0a a0       	ldd	r0, Y+34	; 0x22
     352:	0d be       	out	0x3d, r0	; 61
     354:	0b a0       	ldd	r0, Y+35	; 0x23
     356:	0e be       	out	0x3e, r0	; 62
     358:	08 a0       	ldd	r0, Y+32	; 0x20
     35a:	0f 92       	push	r0
     35c:	09 a0       	ldd	r0, Y+33	; 0x21
     35e:	0f 92       	push	r0
     360:	09 90       	ld	r0, Y+
     362:	19 90       	ld	r1, Y+
     364:	29 90       	ld	r2, Y+
     366:	39 90       	ld	r3, Y+
     368:	49 90       	ld	r4, Y+
     36a:	59 90       	ld	r5, Y+
     36c:	69 90       	ld	r6, Y+
     36e:	79 90       	ld	r7, Y+
     370:	89 90       	ld	r8, Y+
     372:	99 90       	ld	r9, Y+
     374:	a9 90       	ld	r10, Y+
     376:	b9 90       	ld	r11, Y+
     378:	c9 90       	ld	r12, Y+
     37a:	d9 90       	ld	r13, Y+
     37c:	e9 90       	ld	r14, Y+
     37e:	f9 90       	ld	r15, Y+
     380:	09 91       	ld	r16, Y+
     382:	19 91       	ld	r17, Y+
     384:	29 91       	ld	r18, Y+
     386:	39 91       	ld	r19, Y+
     388:	49 91       	ld	r20, Y+
     38a:	59 91       	ld	r21, Y+
     38c:	69 91       	ld	r22, Y+
     38e:	79 91       	ld	r23, Y+
     390:	89 91       	ld	r24, Y+
     392:	99 91       	ld	r25, Y+
     394:	a9 91       	ld	r26, Y+
     396:	b9 91       	ld	r27, Y+
     398:	af 93       	push	r26
     39a:	bf 93       	push	r27
     39c:	a9 91       	ld	r26, Y+
     39e:	b9 91       	ld	r27, Y+
     3a0:	e9 91       	ld	r30, Y+
     3a2:	f9 91       	ld	r31, Y+
     3a4:	ca 2f       	mov	r28, r26
     3a6:	db 2f       	mov	r29, r27
     3a8:	bf 91       	pop	r27
     3aa:	af 91       	pop	r26
     3ac:	08 95       	ret

000003ae <context_save_and_displace>:
     3ae:	cf 93       	push	r28
     3b0:	df 93       	push	r29
     3b2:	d9 2f       	mov	r29, r25
     3b4:	c8 2f       	mov	r28, r24
     3b6:	09 92       	st	Y+, r0
     3b8:	19 92       	st	Y+, r1
     3ba:	29 92       	st	Y+, r2
     3bc:	39 92       	st	Y+, r3
     3be:	49 92       	st	Y+, r4
     3c0:	59 92       	st	Y+, r5
     3c2:	69 92       	st	Y+, r6
     3c4:	79 92       	st	Y+, r7
     3c6:	89 92       	st	Y+, r8
     3c8:	99 92       	st	Y+, r9
     3ca:	a9 92       	st	Y+, r10
     3cc:	b9 92       	st	Y+, r11
     3ce:	c9 92       	st	Y+, r12
     3d0:	d9 92       	st	Y+, r13
     3d2:	e9 92       	st	Y+, r14
     3d4:	f9 92       	st	Y+, r15
     3d6:	09 93       	st	Y+, r16
     3d8:	19 93       	st	Y+, r17
     3da:	29 93       	st	Y+, r18
     3dc:	39 93       	st	Y+, r19
     3de:	49 93       	st	Y+, r20
     3e0:	59 93       	st	Y+, r21
     3e2:	69 93       	st	Y+, r22
     3e4:	79 93       	st	Y+, r23
     3e6:	89 93       	st	Y+, r24
     3e8:	99 93       	st	Y+, r25
     3ea:	a9 93       	st	Y+, r26
     3ec:	b9 93       	st	Y+, r27
     3ee:	bf 91       	pop	r27
     3f0:	af 91       	pop	r26
     3f2:	a9 93       	st	Y+, r26
     3f4:	b9 93       	st	Y+, r27
     3f6:	e9 93       	st	Y+, r30
     3f8:	f9 93       	st	Y+, r31
     3fa:	0f 91       	pop	r16
     3fc:	0f 90       	pop	r0
     3fe:	09 92       	st	Y+, r0
     400:	09 93       	st	Y+, r16
     402:	0d b6       	in	r0, 0x3d	; 61
     404:	09 92       	st	Y+, r0
     406:	0e b6       	in	r0, 0x3e	; 62
     408:	09 92       	st	Y+, r0
     40a:	0f b6       	in	r0, 0x3f	; 63
     40c:	09 92       	st	Y+, r0
     40e:	0c 94 ce 16 	jmp	0x2d9c	; 0x2d9c <__context_displace_vector__>

00000412 <_ZN12motor_driver4stopEv>:
     412:	dc 01       	movw	r26, r24
     414:	ed 91       	ld	r30, X+
     416:	fc 91       	ld	r31, X
     418:	01 90       	ld	r0, Z+
     41a:	f0 81       	ld	r31, Z
     41c:	e0 2d       	mov	r30, r0
     41e:	40 e0       	ldi	r20, 0x00	; 0
     420:	50 e0       	ldi	r21, 0x00	; 0
     422:	ba 01       	movw	r22, r20
     424:	09 94       	ijmp

00000426 <_ZN5genos3avr8pwmservo14pwm_mode_startEv>:
     426:	fc 01       	movw	r30, r24
     428:	92 81       	ldd	r25, Z+2	; 0x02
     42a:	01 90       	ld	r0, Z+
     42c:	f0 81       	ld	r31, Z
     42e:	e0 2d       	mov	r30, r0
     430:	92 36       	cpi	r25, 0x62	; 98
     432:	41 f0       	breq	.+16     	; 0x444 <_ZN5genos3avr8pwmservo14pwm_mode_startEv+0x1e>
     434:	93 36       	cpi	r25, 0x63	; 99
     436:	51 f0       	breq	.+20     	; 0x44c <_ZN5genos3avr8pwmservo14pwm_mode_startEv+0x26>
     438:	91 36       	cpi	r25, 0x61	; 97
     43a:	61 f4       	brne	.+24     	; 0x454 <_ZN5genos3avr8pwmservo14pwm_mode_startEv+0x2e>
     43c:	82 81       	ldd	r24, Z+2	; 0x02
     43e:	93 81       	ldd	r25, Z+3	; 0x03
     440:	08 96       	adiw	r24, 0x08	; 8
     442:	10 c0       	rjmp	.+32     	; 0x464 <_ZN5genos3avr8pwmservo14pwm_mode_startEv+0x3e>
     444:	82 81       	ldd	r24, Z+2	; 0x02
     446:	93 81       	ldd	r25, Z+3	; 0x03
     448:	0a 96       	adiw	r24, 0x0a	; 10
     44a:	15 c0       	rjmp	.+42     	; 0x476 <_ZN5genos3avr8pwmservo14pwm_mode_startEv+0x50>
     44c:	82 81       	ldd	r24, Z+2	; 0x02
     44e:	93 81       	ldd	r25, Z+3	; 0x03
     450:	0c 96       	adiw	r24, 0x0c	; 12
     452:	1a c0       	rjmp	.+52     	; 0x488 <_ZN5genos3avr8pwmservo14pwm_mode_startEv+0x62>
     454:	92 36       	cpi	r25, 0x62	; 98
     456:	69 f0       	breq	.+26     	; 0x472 <_ZN5genos3avr8pwmservo14pwm_mode_startEv+0x4c>
     458:	93 36       	cpi	r25, 0x63	; 99
     45a:	a1 f0       	breq	.+40     	; 0x484 <_ZN5genos3avr8pwmservo14pwm_mode_startEv+0x5e>
     45c:	91 36       	cpi	r25, 0x61	; 97
     45e:	e1 f4       	brne	.+56     	; 0x498 <_ZN5genos3avr8pwmservo14pwm_mode_startEv+0x72>
     460:	80 e0       	ldi	r24, 0x00	; 0
     462:	90 e0       	ldi	r25, 0x00	; 0
     464:	02 80       	ldd	r0, Z+2	; 0x02
     466:	f3 81       	ldd	r31, Z+3	; 0x03
     468:	e0 2d       	mov	r30, r0
     46a:	20 81       	ld	r18, Z
     46c:	2f 73       	andi	r18, 0x3F	; 63
     46e:	20 68       	ori	r18, 0x80	; 128
     470:	11 c0       	rjmp	.+34     	; 0x494 <_ZN5genos3avr8pwmservo14pwm_mode_startEv+0x6e>
     472:	80 e0       	ldi	r24, 0x00	; 0
     474:	90 e0       	ldi	r25, 0x00	; 0
     476:	02 80       	ldd	r0, Z+2	; 0x02
     478:	f3 81       	ldd	r31, Z+3	; 0x03
     47a:	e0 2d       	mov	r30, r0
     47c:	20 81       	ld	r18, Z
     47e:	2f 7c       	andi	r18, 0xCF	; 207
     480:	20 62       	ori	r18, 0x20	; 32
     482:	08 c0       	rjmp	.+16     	; 0x494 <_ZN5genos3avr8pwmservo14pwm_mode_startEv+0x6e>
     484:	80 e0       	ldi	r24, 0x00	; 0
     486:	90 e0       	ldi	r25, 0x00	; 0
     488:	02 80       	ldd	r0, Z+2	; 0x02
     48a:	f3 81       	ldd	r31, Z+3	; 0x03
     48c:	e0 2d       	mov	r30, r0
     48e:	20 81       	ld	r18, Z
     490:	23 7f       	andi	r18, 0xF3	; 243
     492:	28 60       	ori	r18, 0x08	; 8
     494:	20 83       	st	Z, r18
     496:	02 c0       	rjmp	.+4      	; 0x49c <_ZN5genos3avr8pwmservo14pwm_mode_startEv+0x76>
     498:	80 e0       	ldi	r24, 0x00	; 0
     49a:	90 e0       	ldi	r25, 0x00	; 0
     49c:	2f ef       	ldi	r18, 0xFF	; 255
     49e:	3f ef       	ldi	r19, 0xFF	; 255
     4a0:	fc 01       	movw	r30, r24
     4a2:	31 83       	std	Z+1, r19	; 0x01
     4a4:	20 83       	st	Z, r18
     4a6:	08 95       	ret

000004a8 <_ZN5genos18autom_schedee_base14signal_handlerEi>:
     4a8:	08 95       	ret

000004aa <_ZN14avr_i2c_device15writeread_startEhPKvjPvj>:
     4aa:	ef 92       	push	r14
     4ac:	ff 92       	push	r15
     4ae:	0f 93       	push	r16
     4b0:	1f 93       	push	r17
     4b2:	fc 01       	movw	r30, r24
     4b4:	15 87       	std	Z+13, r17	; 0x0d
     4b6:	04 87       	std	Z+12, r16	; 0x0c
     4b8:	f7 86       	std	Z+15, r15	; 0x0f
     4ba:	e6 86       	std	Z+14, r14	; 0x0e
     4bc:	51 87       	std	Z+9, r21	; 0x09
     4be:	40 87       	std	Z+8, r20	; 0x08
     4c0:	33 87       	std	Z+11, r19	; 0x0b
     4c2:	22 87       	std	Z+10, r18	; 0x0a
     4c4:	f3 8a       	std	Z+19, r15	; 0x13
     4c6:	e2 8a       	std	Z+18, r14	; 0x12
     4c8:	66 0f       	add	r22, r22
     4ca:	67 83       	std	Z+7, r22	; 0x07
     4cc:	11 8a       	std	Z+17, r1	; 0x11
     4ce:	10 8a       	std	Z+16, r1	; 0x10
     4d0:	84 89       	ldd	r24, Z+20	; 0x14
     4d2:	8c 7f       	andi	r24, 0xFC	; 252
     4d4:	82 60       	ori	r24, 0x02	; 2
     4d6:	84 8b       	std	Z+20, r24	; 0x14
     4d8:	85 ea       	ldi	r24, 0xA5	; 165
     4da:	80 93 bc 00 	sts	0x00BC, r24	; 0x8000bc <__TEXT_REGION_LENGTH__+0x7e00bc>
     4de:	1f 91       	pop	r17
     4e0:	0f 91       	pop	r16
     4e2:	ff 90       	pop	r15
     4e4:	ef 90       	pop	r14
     4e6:	08 95       	ret

000004e8 <_ZN14avr_i2c_device11write_startEhPKvj>:
     4e8:	fc 01       	movw	r30, r24
     4ea:	51 87       	std	Z+9, r21	; 0x09
     4ec:	40 87       	std	Z+8, r20	; 0x08
     4ee:	33 87       	std	Z+11, r19	; 0x0b
     4f0:	22 87       	std	Z+10, r18	; 0x0a
     4f2:	66 0f       	add	r22, r22
     4f4:	67 83       	std	Z+7, r22	; 0x07
     4f6:	11 8a       	std	Z+17, r1	; 0x11
     4f8:	10 8a       	std	Z+16, r1	; 0x10
     4fa:	84 89       	ldd	r24, Z+20	; 0x14
     4fc:	8c 7f       	andi	r24, 0xFC	; 252
     4fe:	84 8b       	std	Z+20, r24	; 0x14
     500:	85 ea       	ldi	r24, 0xA5	; 165
     502:	80 93 bc 00 	sts	0x00BC, r24	; 0x8000bc <__TEXT_REGION_LENGTH__+0x7e00bc>
     506:	08 95       	ret

00000508 <_ZN14avr_i2c_device6statusEv>:
     508:	fc 01       	movw	r30, r24
     50a:	84 89       	ldd	r24, Z+20	; 0x14
     50c:	90 e0       	ldi	r25, 0x00	; 0
     50e:	08 95       	ret

00000510 <_ZN4crow6pubsubL8get_dataEPNS_6packetE>:
     510:	9c 01       	movw	r18, r24
     512:	21 5f       	subi	r18, 0xF1	; 241
     514:	3f 4f       	sbci	r19, 0xFF	; 255
     516:	fc 01       	movw	r30, r24
     518:	82 89       	ldd	r24, Z+18	; 0x12
     51a:	90 e0       	ldi	r25, 0x00	; 0
     51c:	fc 01       	movw	r30, r24
     51e:	3a 96       	adiw	r30, 0x0a	; 10
     520:	e2 0f       	add	r30, r18
     522:	f3 1f       	adc	r31, r19
     524:	41 81       	ldd	r20, Z+1	; 0x01
     526:	84 0f       	add	r24, r20
     528:	91 1d       	adc	r25, r1
     52a:	ac 01       	movw	r20, r24
     52c:	42 5f       	subi	r20, 0xF2	; 242
     52e:	5f 4f       	sbci	r21, 0xFF	; 255
     530:	b9 01       	movw	r22, r18
     532:	64 0f       	add	r22, r20
     534:	75 1f       	adc	r23, r21
     536:	82 81       	ldd	r24, Z+2	; 0x02
     538:	93 81       	ldd	r25, Z+3	; 0x03
     53a:	08 95       	ret

0000053c <_ZN12motor_driver5powerEf>:
     53c:	cf 92       	push	r12
     53e:	df 92       	push	r13
     540:	ef 92       	push	r14
     542:	ff 92       	push	r15
     544:	0f 93       	push	r16
     546:	1f 93       	push	r17
     548:	cf 93       	push	r28
     54a:	df 93       	push	r29
     54c:	ec 01       	movw	r28, r24
     54e:	6a 01       	movw	r12, r20
     550:	7b 01       	movw	r14, r22
     552:	8d 81       	ldd	r24, Y+5	; 0x05
     554:	88 23       	and	r24, r24
     556:	21 f0       	breq	.+8      	; 0x560 <_ZN12motor_driver5powerEf+0x24>
     558:	f7 fa       	bst	r15, 7
     55a:	f0 94       	com	r15
     55c:	f7 f8       	bld	r15, 7
     55e:	f0 94       	com	r15
     560:	20 e0       	ldi	r18, 0x00	; 0
     562:	30 e0       	ldi	r19, 0x00	; 0
     564:	a9 01       	movw	r20, r18
     566:	c7 01       	movw	r24, r14
     568:	b6 01       	movw	r22, r12
     56a:	0e 94 32 1e 	call	0x3c64	; 0x3c64 <__cmpsf2>
     56e:	81 11       	cpse	r24, r1
     570:	19 c0       	rjmp	.+50     	; 0x5a4 <_ZN12motor_driver5powerEf+0x68>
     572:	0a 81       	ldd	r16, Y+2	; 0x02
     574:	1b 81       	ldd	r17, Y+3	; 0x03
     576:	f8 01       	movw	r30, r16
     578:	61 81       	ldd	r22, Z+1	; 0x01
     57a:	83 81       	ldd	r24, Z+3	; 0x03
     57c:	94 81       	ldd	r25, Z+4	; 0x04
     57e:	0e 94 19 19 	call	0x3232	; 0x3232 <_ZN20Adafruit_MotorShield6setPinEhb.part.1.lto_priv.137>
     582:	f8 01       	movw	r30, r16
     584:	62 81       	ldd	r22, Z+2	; 0x02
     586:	83 81       	ldd	r24, Z+3	; 0x03
     588:	94 81       	ldd	r25, Z+4	; 0x04
     58a:	0e 94 19 19 	call	0x3232	; 0x3232 <_ZN20Adafruit_MotorShield6setPinEhb.part.1.lto_priv.137>
     58e:	ea 81       	ldd	r30, Y+2	; 0x02
     590:	fb 81       	ldd	r31, Y+3	; 0x03
     592:	40 e0       	ldi	r20, 0x00	; 0
     594:	50 e0       	ldi	r21, 0x00	; 0
     596:	60 81       	ld	r22, Z
     598:	83 81       	ldd	r24, Z+3	; 0x03
     59a:	94 81       	ldd	r25, Z+4	; 0x04
     59c:	0e 94 20 19 	call	0x3240	; 0x3240 <_ZN20Adafruit_MotorShield6setPWMEhj>
     5a0:	84 e0       	ldi	r24, 0x04	; 4
     5a2:	94 c0       	rjmp	.+296    	; 0x6cc <_ZN12motor_driver5powerEf+0x190>
     5a4:	20 e0       	ldi	r18, 0x00	; 0
     5a6:	30 e0       	ldi	r19, 0x00	; 0
     5a8:	a9 01       	movw	r20, r18
     5aa:	c7 01       	movw	r24, r14
     5ac:	b6 01       	movw	r22, r12
     5ae:	0e 94 91 1f 	call	0x3f22	; 0x3f22 <__gesf2>
     5b2:	18 16       	cp	r1, r24
     5b4:	0c f0       	brlt	.+2      	; 0x5b8 <_ZN12motor_driver5powerEf+0x7c>
     5b6:	43 c0       	rjmp	.+134    	; 0x63e <_ZN12motor_driver5powerEf+0x102>
     5b8:	8c 81       	ldd	r24, Y+4	; 0x04
     5ba:	82 30       	cpi	r24, 0x02	; 2
     5bc:	71 f4       	brne	.+28     	; 0x5da <_ZN12motor_driver5powerEf+0x9e>
     5be:	0a 81       	ldd	r16, Y+2	; 0x02
     5c0:	1b 81       	ldd	r17, Y+3	; 0x03
     5c2:	f8 01       	movw	r30, r16
     5c4:	61 81       	ldd	r22, Z+1	; 0x01
     5c6:	83 81       	ldd	r24, Z+3	; 0x03
     5c8:	94 81       	ldd	r25, Z+4	; 0x04
     5ca:	0e 94 19 19 	call	0x3232	; 0x3232 <_ZN20Adafruit_MotorShield6setPinEhb.part.1.lto_priv.137>
     5ce:	f8 01       	movw	r30, r16
     5d0:	62 81       	ldd	r22, Z+2	; 0x02
     5d2:	83 81       	ldd	r24, Z+3	; 0x03
     5d4:	94 81       	ldd	r25, Z+4	; 0x04
     5d6:	0e 94 19 19 	call	0x3232	; 0x3232 <_ZN20Adafruit_MotorShield6setPinEhb.part.1.lto_priv.137>
     5da:	20 e0       	ldi	r18, 0x00	; 0
     5dc:	30 e0       	ldi	r19, 0x00	; 0
     5de:	4f e7       	ldi	r20, 0x7F	; 127
     5e0:	53 e4       	ldi	r21, 0x43	; 67
     5e2:	c7 01       	movw	r24, r14
     5e4:	b6 01       	movw	r22, r12
     5e6:	0e 94 96 1f 	call	0x3f2c	; 0x3f2c <__mulsf3>
     5ea:	0e 94 b0 1e 	call	0x3d60	; 0x3d60 <__fixunssfsi>
     5ee:	ea 81       	ldd	r30, Y+2	; 0x02
     5f0:	fb 81       	ldd	r31, Y+3	; 0x03
     5f2:	80 e1       	ldi	r24, 0x10	; 16
     5f4:	68 9f       	mul	r22, r24
     5f6:	a0 01       	movw	r20, r0
     5f8:	11 24       	eor	r1, r1
     5fa:	60 81       	ld	r22, Z
     5fc:	83 81       	ldd	r24, Z+3	; 0x03
     5fe:	94 81       	ldd	r25, Z+4	; 0x04
     600:	0e 94 20 19 	call	0x3240	; 0x3240 <_ZN20Adafruit_MotorShield6setPWMEhj>
     604:	8c 81       	ldd	r24, Y+4	; 0x04
     606:	81 30       	cpi	r24, 0x01	; 1
     608:	c1 f0       	breq	.+48     	; 0x63a <_ZN12motor_driver5powerEf+0xfe>
     60a:	0a 81       	ldd	r16, Y+2	; 0x02
     60c:	1b 81       	ldd	r17, Y+3	; 0x03
     60e:	f8 01       	movw	r30, r16
     610:	83 81       	ldd	r24, Z+3	; 0x03
     612:	94 81       	ldd	r25, Z+4	; 0x04
     614:	20 e0       	ldi	r18, 0x00	; 0
     616:	30 e0       	ldi	r19, 0x00	; 0
     618:	40 e0       	ldi	r20, 0x00	; 0
     61a:	50 e0       	ldi	r21, 0x00	; 0
     61c:	62 81       	ldd	r22, Z+2	; 0x02
     61e:	cd 96       	adiw	r24, 0x3d	; 61
     620:	0e 94 f7 18 	call	0x31ee	; 0x31ee <_ZN26Adafruit_MS_PWMServoDriver6setPWMEhjj>
     624:	f8 01       	movw	r30, r16
     626:	83 81       	ldd	r24, Z+3	; 0x03
     628:	94 81       	ldd	r25, Z+4	; 0x04
     62a:	20 e0       	ldi	r18, 0x00	; 0
     62c:	30 e0       	ldi	r19, 0x00	; 0
     62e:	40 e0       	ldi	r20, 0x00	; 0
     630:	50 e1       	ldi	r21, 0x10	; 16
     632:	61 81       	ldd	r22, Z+1	; 0x01
     634:	cd 96       	adiw	r24, 0x3d	; 61
     636:	0e 94 f7 18 	call	0x31ee	; 0x31ee <_ZN26Adafruit_MS_PWMServoDriver6setPWMEhjj>
     63a:	81 e0       	ldi	r24, 0x01	; 1
     63c:	47 c0       	rjmp	.+142    	; 0x6cc <_ZN12motor_driver5powerEf+0x190>
     63e:	20 e0       	ldi	r18, 0x00	; 0
     640:	30 e0       	ldi	r19, 0x00	; 0
     642:	a9 01       	movw	r20, r18
     644:	c7 01       	movw	r24, r14
     646:	b6 01       	movw	r22, r12
     648:	0e 94 32 1e 	call	0x3c64	; 0x3c64 <__cmpsf2>
     64c:	87 ff       	sbrs	r24, 7
     64e:	3f c0       	rjmp	.+126    	; 0x6ce <_ZN12motor_driver5powerEf+0x192>
     650:	8c 81       	ldd	r24, Y+4	; 0x04
     652:	81 30       	cpi	r24, 0x01	; 1
     654:	71 f4       	brne	.+28     	; 0x672 <_ZN12motor_driver5powerEf+0x136>
     656:	0a 81       	ldd	r16, Y+2	; 0x02
     658:	1b 81       	ldd	r17, Y+3	; 0x03
     65a:	f8 01       	movw	r30, r16
     65c:	61 81       	ldd	r22, Z+1	; 0x01
     65e:	83 81       	ldd	r24, Z+3	; 0x03
     660:	94 81       	ldd	r25, Z+4	; 0x04
     662:	0e 94 19 19 	call	0x3232	; 0x3232 <_ZN20Adafruit_MotorShield6setPinEhb.part.1.lto_priv.137>
     666:	f8 01       	movw	r30, r16
     668:	62 81       	ldd	r22, Z+2	; 0x02
     66a:	83 81       	ldd	r24, Z+3	; 0x03
     66c:	94 81       	ldd	r25, Z+4	; 0x04
     66e:	0e 94 19 19 	call	0x3232	; 0x3232 <_ZN20Adafruit_MotorShield6setPinEhb.part.1.lto_priv.137>
     672:	c7 01       	movw	r24, r14
     674:	b6 01       	movw	r22, r12
     676:	90 58       	subi	r25, 0x80	; 128
     678:	20 e0       	ldi	r18, 0x00	; 0
     67a:	30 e0       	ldi	r19, 0x00	; 0
     67c:	4f e7       	ldi	r20, 0x7F	; 127
     67e:	53 e4       	ldi	r21, 0x43	; 67
     680:	0e 94 96 1f 	call	0x3f2c	; 0x3f2c <__mulsf3>
     684:	0e 94 b0 1e 	call	0x3d60	; 0x3d60 <__fixunssfsi>
     688:	ea 81       	ldd	r30, Y+2	; 0x02
     68a:	fb 81       	ldd	r31, Y+3	; 0x03
     68c:	80 e1       	ldi	r24, 0x10	; 16
     68e:	68 9f       	mul	r22, r24
     690:	a0 01       	movw	r20, r0
     692:	11 24       	eor	r1, r1
     694:	60 81       	ld	r22, Z
     696:	83 81       	ldd	r24, Z+3	; 0x03
     698:	94 81       	ldd	r25, Z+4	; 0x04
     69a:	0e 94 20 19 	call	0x3240	; 0x3240 <_ZN20Adafruit_MotorShield6setPWMEhj>
     69e:	8c 81       	ldd	r24, Y+4	; 0x04
     6a0:	82 30       	cpi	r24, 0x02	; 2
     6a2:	99 f0       	breq	.+38     	; 0x6ca <_ZN12motor_driver5powerEf+0x18e>
     6a4:	ea 80       	ldd	r14, Y+2	; 0x02
     6a6:	fb 80       	ldd	r15, Y+3	; 0x03
     6a8:	f7 01       	movw	r30, r14
     6aa:	61 81       	ldd	r22, Z+1	; 0x01
     6ac:	83 81       	ldd	r24, Z+3	; 0x03
     6ae:	94 81       	ldd	r25, Z+4	; 0x04
     6b0:	0e 94 19 19 	call	0x3232	; 0x3232 <_ZN20Adafruit_MotorShield6setPinEhb.part.1.lto_priv.137>
     6b4:	f7 01       	movw	r30, r14
     6b6:	83 81       	ldd	r24, Z+3	; 0x03
     6b8:	94 81       	ldd	r25, Z+4	; 0x04
     6ba:	20 e0       	ldi	r18, 0x00	; 0
     6bc:	30 e0       	ldi	r19, 0x00	; 0
     6be:	40 e0       	ldi	r20, 0x00	; 0
     6c0:	50 e1       	ldi	r21, 0x10	; 16
     6c2:	62 81       	ldd	r22, Z+2	; 0x02
     6c4:	cd 96       	adiw	r24, 0x3d	; 61
     6c6:	0e 94 f7 18 	call	0x31ee	; 0x31ee <_ZN26Adafruit_MS_PWMServoDriver6setPWMEhjj>
     6ca:	82 e0       	ldi	r24, 0x02	; 2
     6cc:	8c 83       	std	Y+4, r24	; 0x04
     6ce:	df 91       	pop	r29
     6d0:	cf 91       	pop	r28
     6d2:	1f 91       	pop	r17
     6d4:	0f 91       	pop	r16
     6d6:	ff 90       	pop	r15
     6d8:	ef 90       	pop	r14
     6da:	df 90       	pop	r13
     6dc:	cf 90       	pop	r12
     6de:	08 95       	ret

000006e0 <_Z15i2c_irq_handlerPv>:
     6e0:	4f 92       	push	r4
     6e2:	5f 92       	push	r5
     6e4:	6f 92       	push	r6
     6e6:	7f 92       	push	r7
     6e8:	8f 92       	push	r8
     6ea:	9f 92       	push	r9
     6ec:	af 92       	push	r10
     6ee:	bf 92       	push	r11
     6f0:	cf 92       	push	r12
     6f2:	df 92       	push	r13
     6f4:	ef 92       	push	r14
     6f6:	ff 92       	push	r15
     6f8:	0f 93       	push	r16
     6fa:	1f 93       	push	r17
     6fc:	cf 93       	push	r28
     6fe:	df 93       	push	r29
     700:	dc 01       	movw	r26, r24
     702:	80 91 b9 00 	lds	r24, 0x00B9	; 0x8000b9 <__TEXT_REGION_LENGTH__+0x7e00b9>
     706:	88 7f       	andi	r24, 0xF8	; 248
     708:	88 32       	cpi	r24, 0x28	; 40
     70a:	09 f4       	brne	.+2      	; 0x70e <_Z15i2c_irq_handlerPv+0x2e>
     70c:	bf c0       	rjmp	.+382    	; 0x88c <_Z15i2c_irq_handlerPv+0x1ac>
     70e:	28 f5       	brcc	.+74     	; 0x75a <_Z15i2c_irq_handlerPv+0x7a>
     710:	80 31       	cpi	r24, 0x10	; 16
     712:	09 f4       	brne	.+2      	; 0x716 <_Z15i2c_irq_handlerPv+0x36>
     714:	72 c0       	rjmp	.+228    	; 0x7fa <_Z15i2c_irq_handlerPv+0x11a>
     716:	38 f4       	brcc	.+14     	; 0x726 <_Z15i2c_irq_handlerPv+0x46>
     718:	88 23       	and	r24, r24
     71a:	09 f4       	brne	.+2      	; 0x71e <_Z15i2c_irq_handlerPv+0x3e>
     71c:	45 c0       	rjmp	.+138    	; 0x7a8 <_Z15i2c_irq_handlerPv+0xc8>
     71e:	88 30       	cpi	r24, 0x08	; 8
     720:	09 f4       	brne	.+2      	; 0x724 <_Z15i2c_irq_handlerPv+0x44>
     722:	4f c0       	rjmp	.+158    	; 0x7c2 <_Z15i2c_irq_handlerPv+0xe2>
     724:	80 c1       	rjmp	.+768    	; 0xa26 <_Z15i2c_irq_handlerPv+0x346>
     726:	88 31       	cpi	r24, 0x18	; 24
     728:	09 f4       	brne	.+2      	; 0x72c <_Z15i2c_irq_handlerPv+0x4c>
     72a:	87 c0       	rjmp	.+270    	; 0x83a <_Z15i2c_irq_handlerPv+0x15a>
     72c:	80 32       	cpi	r24, 0x20	; 32
     72e:	09 f0       	breq	.+2      	; 0x732 <_Z15i2c_irq_handlerPv+0x52>
     730:	7a c1       	rjmp	.+756    	; 0xa26 <_Z15i2c_irq_handlerPv+0x346>
     732:	54 96       	adiw	r26, 0x14	; 20
     734:	2c 91       	ld	r18, X
     736:	54 97       	sbiw	r26, 0x14	; 20
     738:	28 60       	ori	r18, 0x08	; 8
     73a:	54 96       	adiw	r26, 0x14	; 20
     73c:	2c 93       	st	X, r18
     73e:	54 97       	sbiw	r26, 0x14	; 20
     740:	25 fb       	bst	r18, 5
     742:	66 27       	eor	r22, r22
     744:	60 f9       	bld	r22, 0
     746:	70 e0       	ldi	r23, 0x00	; 0
     748:	e6 e0       	ldi	r30, 0x06	; 6
     74a:	66 0f       	add	r22, r22
     74c:	77 1f       	adc	r23, r23
     74e:	ea 95       	dec	r30
     750:	e1 f7       	brne	.-8      	; 0x74a <_Z15i2c_irq_handlerPv+0x6a>
     752:	65 69       	ori	r22, 0x95	; 149
     754:	60 93 bc 00 	sts	0x00BC, r22	; 0x8000bc <__TEXT_REGION_LENGTH__+0x7e00bc>
     758:	52 c1       	rjmp	.+676    	; 0x9fe <_Z15i2c_irq_handlerPv+0x31e>
     75a:	88 34       	cpi	r24, 0x48	; 72
     75c:	09 f4       	brne	.+2      	; 0x760 <_Z15i2c_irq_handlerPv+0x80>
     75e:	12 c1       	rjmp	.+548    	; 0x984 <_Z15i2c_irq_handlerPv+0x2a4>
     760:	38 f4       	brcc	.+14     	; 0x770 <_Z15i2c_irq_handlerPv+0x90>
     762:	80 33       	cpi	r24, 0x30	; 48
     764:	09 f4       	brne	.+2      	; 0x768 <_Z15i2c_irq_handlerPv+0x88>
     766:	01 c1       	rjmp	.+514    	; 0x96a <_Z15i2c_irq_handlerPv+0x28a>
     768:	80 34       	cpi	r24, 0x40	; 64
     76a:	09 f4       	brne	.+2      	; 0x76e <_Z15i2c_irq_handlerPv+0x8e>
     76c:	2d c1       	rjmp	.+602    	; 0x9c8 <_Z15i2c_irq_handlerPv+0x2e8>
     76e:	5b c1       	rjmp	.+694    	; 0xa26 <_Z15i2c_irq_handlerPv+0x346>
     770:	80 35       	cpi	r24, 0x50	; 80
     772:	09 f4       	brne	.+2      	; 0x776 <_Z15i2c_irq_handlerPv+0x96>
     774:	14 c1       	rjmp	.+552    	; 0x99e <_Z15i2c_irq_handlerPv+0x2be>
     776:	88 35       	cpi	r24, 0x58	; 88
     778:	09 f0       	breq	.+2      	; 0x77c <_Z15i2c_irq_handlerPv+0x9c>
     77a:	55 c1       	rjmp	.+682    	; 0xa26 <_Z15i2c_irq_handlerPv+0x346>
     77c:	40 91 bb 00 	lds	r20, 0x00BB	; 0x8000bb <__TEXT_REGION_LENGTH__+0x7e00bb>
     780:	1c 96       	adiw	r26, 0x0c	; 12
     782:	ed 91       	ld	r30, X+
     784:	fc 91       	ld	r31, X
     786:	1d 97       	sbiw	r26, 0x0d	; 13
     788:	50 96       	adiw	r26, 0x10	; 16
     78a:	2d 91       	ld	r18, X+
     78c:	3c 91       	ld	r19, X
     78e:	51 97       	sbiw	r26, 0x11	; 17
     790:	e2 0f       	add	r30, r18
     792:	f3 1f       	adc	r31, r19
     794:	40 83       	st	Z, r20
     796:	54 96       	adiw	r26, 0x14	; 20
     798:	2c 91       	ld	r18, X
     79a:	54 97       	sbiw	r26, 0x14	; 20
     79c:	25 fb       	bst	r18, 5
     79e:	66 24       	eor	r6, r6
     7a0:	60 f8       	bld	r6, 0
     7a2:	71 2c       	mov	r7, r1
     7a4:	c3 01       	movw	r24, r6
     7a6:	23 c1       	rjmp	.+582    	; 0x9ee <_Z15i2c_irq_handlerPv+0x30e>
     7a8:	54 96       	adiw	r26, 0x14	; 20
     7aa:	2c 91       	ld	r18, X
     7ac:	54 97       	sbiw	r26, 0x14	; 20
     7ae:	24 60       	ori	r18, 0x04	; 4
     7b0:	54 96       	adiw	r26, 0x14	; 20
     7b2:	2c 93       	st	X, r18
     7b4:	54 97       	sbiw	r26, 0x14	; 20
     7b6:	25 fb       	bst	r18, 5
     7b8:	cc 24       	eor	r12, r12
     7ba:	c0 f8       	bld	r12, 0
     7bc:	d1 2c       	mov	r13, r1
     7be:	c6 01       	movw	r24, r12
     7c0:	16 c1       	rjmp	.+556    	; 0x9ee <_Z15i2c_irq_handlerPv+0x30e>
     7c2:	54 96       	adiw	r26, 0x14	; 20
     7c4:	3c 91       	ld	r19, X
     7c6:	54 97       	sbiw	r26, 0x14	; 20
     7c8:	33 70       	andi	r19, 0x03	; 3
     7ca:	17 96       	adiw	r26, 0x07	; 7
     7cc:	2c 91       	ld	r18, X
     7ce:	17 97       	sbiw	r26, 0x07	; 7
     7d0:	31 30       	cpi	r19, 0x01	; 1
     7d2:	11 f4       	brne	.+4      	; 0x7d8 <_Z15i2c_irq_handlerPv+0xf8>
     7d4:	21 60       	ori	r18, 0x01	; 1
     7d6:	01 c0       	rjmp	.+2      	; 0x7da <_Z15i2c_irq_handlerPv+0xfa>
     7d8:	2e 7f       	andi	r18, 0xFE	; 254
     7da:	20 93 bb 00 	sts	0x00BB, r18	; 0x8000bb <__TEXT_REGION_LENGTH__+0x7e00bb>
     7de:	54 96       	adiw	r26, 0x14	; 20
     7e0:	8c 91       	ld	r24, X
     7e2:	85 fb       	bst	r24, 5
     7e4:	ee 24       	eor	r14, r14
     7e6:	e0 f8       	bld	r14, 0
     7e8:	f1 2c       	mov	r15, r1
     7ea:	c7 01       	movw	r24, r14
     7ec:	d6 e0       	ldi	r29, 0x06	; 6
     7ee:	88 0f       	add	r24, r24
     7f0:	99 1f       	adc	r25, r25
     7f2:	da 95       	dec	r29
     7f4:	e1 f7       	brne	.-8      	; 0x7ee <_Z15i2c_irq_handlerPv+0x10e>
     7f6:	85 68       	ori	r24, 0x85	; 133
     7f8:	f7 c0       	rjmp	.+494    	; 0x9e8 <_Z15i2c_irq_handlerPv+0x308>
     7fa:	54 96       	adiw	r26, 0x14	; 20
     7fc:	3c 91       	ld	r19, X
     7fe:	54 97       	sbiw	r26, 0x14	; 20
     800:	33 70       	andi	r19, 0x03	; 3
     802:	17 96       	adiw	r26, 0x07	; 7
     804:	2c 91       	ld	r18, X
     806:	17 97       	sbiw	r26, 0x07	; 7
     808:	32 30       	cpi	r19, 0x02	; 2
     80a:	11 f4       	brne	.+4      	; 0x810 <_Z15i2c_irq_handlerPv+0x130>
     80c:	21 60       	ori	r18, 0x01	; 1
     80e:	01 c0       	rjmp	.+2      	; 0x812 <_Z15i2c_irq_handlerPv+0x132>
     810:	2e 7f       	andi	r18, 0xFE	; 254
     812:	20 93 bb 00 	sts	0x00BB, r18	; 0x8000bb <__TEXT_REGION_LENGTH__+0x7e00bb>
     816:	54 96       	adiw	r26, 0x14	; 20
     818:	8c 91       	ld	r24, X
     81a:	85 fb       	bst	r24, 5
     81c:	88 27       	eor	r24, r24
     81e:	80 f9       	bld	r24, 0
     820:	c8 2f       	mov	r28, r24
     822:	80 e0       	ldi	r24, 0x00	; 0
     824:	d8 2f       	mov	r29, r24
     826:	de 01       	movw	r26, r28
     828:	c6 e0       	ldi	r28, 0x06	; 6
     82a:	aa 0f       	add	r26, r26
     82c:	bb 1f       	adc	r27, r27
     82e:	ca 95       	dec	r28
     830:	e1 f7       	brne	.-8      	; 0x82a <_Z15i2c_irq_handlerPv+0x14a>
     832:	a5 68       	ori	r26, 0x85	; 133
     834:	a0 93 bc 00 	sts	0x00BC, r26	; 0x8000bc <__TEXT_REGION_LENGTH__+0x7e00bc>
     838:	f6 c0       	rjmp	.+492    	; 0xa26 <_Z15i2c_irq_handlerPv+0x346>
     83a:	54 96       	adiw	r26, 0x14	; 20
     83c:	2c 91       	ld	r18, X
     83e:	54 97       	sbiw	r26, 0x14	; 20
     840:	20 fd       	sbrc	r18, 0
     842:	f1 c0       	rjmp	.+482    	; 0xa26 <_Z15i2c_irq_handlerPv+0x346>
     844:	50 96       	adiw	r26, 0x10	; 16
     846:	2d 91       	ld	r18, X+
     848:	3c 91       	ld	r19, X
     84a:	51 97       	sbiw	r26, 0x11	; 17
     84c:	a9 01       	movw	r20, r18
     84e:	4f 5f       	subi	r20, 0xFF	; 255
     850:	5f 4f       	sbci	r21, 0xFF	; 255
     852:	51 96       	adiw	r26, 0x11	; 17
     854:	5c 93       	st	X, r21
     856:	4e 93       	st	-X, r20
     858:	50 97       	sbiw	r26, 0x10	; 16
     85a:	18 96       	adiw	r26, 0x08	; 8
     85c:	4d 91       	ld	r20, X+
     85e:	5c 91       	ld	r21, X
     860:	19 97       	sbiw	r26, 0x09	; 9
     862:	ea 01       	movw	r28, r20
     864:	c2 0f       	add	r28, r18
     866:	d3 1f       	adc	r29, r19
     868:	28 81       	ld	r18, Y
     86a:	20 93 bb 00 	sts	0x00BB, r18	; 0x8000bb <__TEXT_REGION_LENGTH__+0x7e00bb>
     86e:	54 96       	adiw	r26, 0x14	; 20
     870:	8c 91       	ld	r24, X
     872:	85 fb       	bst	r24, 5
     874:	ee 27       	eor	r30, r30
     876:	e0 f9       	bld	r30, 0
     878:	f0 e0       	ldi	r31, 0x00	; 0
     87a:	a6 e0       	ldi	r26, 0x06	; 6
     87c:	ee 0f       	add	r30, r30
     87e:	ff 1f       	adc	r31, r31
     880:	aa 95       	dec	r26
     882:	e1 f7       	brne	.-8      	; 0x87c <_Z15i2c_irq_handlerPv+0x19c>
     884:	e5 68       	ori	r30, 0x85	; 133
     886:	e0 93 bc 00 	sts	0x00BC, r30	; 0x8000bc <__TEXT_REGION_LENGTH__+0x7e00bc>
     88a:	cd c0       	rjmp	.+410    	; 0xa26 <_Z15i2c_irq_handlerPv+0x346>
     88c:	ed 01       	movw	r28, r26
     88e:	6c 89       	ldd	r22, Y+20	; 0x14
     890:	86 2f       	mov	r24, r22
     892:	83 70       	andi	r24, 0x03	; 3
     894:	91 f5       	brne	.+100    	; 0x8fa <_Z15i2c_irq_handlerPv+0x21a>
     896:	88 89       	ldd	r24, Y+16	; 0x10
     898:	99 89       	ldd	r25, Y+17	; 0x11
     89a:	ea 85       	ldd	r30, Y+10	; 0x0a
     89c:	fb 85       	ldd	r31, Y+11	; 0x0b
     89e:	8e 17       	cp	r24, r30
     8a0:	9f 07       	cpc	r25, r31
     8a2:	89 f4       	brne	.+34     	; 0x8c6 <_Z15i2c_irq_handlerPv+0x1e6>
     8a4:	65 fb       	bst	r22, 5
     8a6:	44 27       	eor	r20, r20
     8a8:	40 f9       	bld	r20, 0
     8aa:	50 e0       	ldi	r21, 0x00	; 0
     8ac:	66 e0       	ldi	r22, 0x06	; 6
     8ae:	44 0f       	add	r20, r20
     8b0:	55 1f       	adc	r21, r21
     8b2:	6a 95       	dec	r22
     8b4:	e1 f7       	brne	.-8      	; 0x8ae <_Z15i2c_irq_handlerPv+0x1ce>
     8b6:	45 69       	ori	r20, 0x95	; 149
     8b8:	40 93 bc 00 	sts	0x00BC, r20	; 0x8000bc <__TEXT_REGION_LENGTH__+0x7e00bc>
     8bc:	cd 01       	movw	r24, r26
     8be:	03 96       	adiw	r24, 0x03	; 3
     8c0:	0e 94 b2 0b 	call	0x1764	; 0x1764 <unwait_one.constprop.89>
     8c4:	1a c0       	rjmp	.+52     	; 0x8fa <_Z15i2c_irq_handlerPv+0x21a>
     8c6:	ac 01       	movw	r20, r24
     8c8:	4f 5f       	subi	r20, 0xFF	; 255
     8ca:	5f 4f       	sbci	r21, 0xFF	; 255
     8cc:	59 8b       	std	Y+17, r21	; 0x11
     8ce:	48 8b       	std	Y+16, r20	; 0x10
     8d0:	48 85       	ldd	r20, Y+8	; 0x08
     8d2:	59 85       	ldd	r21, Y+9	; 0x09
     8d4:	fa 01       	movw	r30, r20
     8d6:	e8 0f       	add	r30, r24
     8d8:	f9 1f       	adc	r31, r25
     8da:	80 81       	ld	r24, Z
     8dc:	80 93 bb 00 	sts	0x00BB, r24	; 0x8000bb <__TEXT_REGION_LENGTH__+0x7e00bb>
     8e0:	8c 89       	ldd	r24, Y+20	; 0x14
     8e2:	85 fb       	bst	r24, 5
     8e4:	22 27       	eor	r18, r18
     8e6:	20 f9       	bld	r18, 0
     8e8:	30 e0       	ldi	r19, 0x00	; 0
     8ea:	56 e0       	ldi	r21, 0x06	; 6
     8ec:	22 0f       	add	r18, r18
     8ee:	33 1f       	adc	r19, r19
     8f0:	5a 95       	dec	r21
     8f2:	e1 f7       	brne	.-8      	; 0x8ec <_Z15i2c_irq_handlerPv+0x20c>
     8f4:	25 68       	ori	r18, 0x85	; 133
     8f6:	20 93 bc 00 	sts	0x00BC, r18	; 0x8000bc <__TEXT_REGION_LENGTH__+0x7e00bc>
     8fa:	2c 89       	ldd	r18, Y+20	; 0x14
     8fc:	82 2f       	mov	r24, r18
     8fe:	83 70       	andi	r24, 0x03	; 3
     900:	82 30       	cpi	r24, 0x02	; 2
     902:	09 f0       	breq	.+2      	; 0x906 <_Z15i2c_irq_handlerPv+0x226>
     904:	90 c0       	rjmp	.+288    	; 0xa26 <_Z15i2c_irq_handlerPv+0x346>
     906:	88 89       	ldd	r24, Y+16	; 0x10
     908:	99 89       	ldd	r25, Y+17	; 0x11
     90a:	4a 85       	ldd	r20, Y+10	; 0x0a
     90c:	5b 85       	ldd	r21, Y+11	; 0x0b
     90e:	84 17       	cp	r24, r20
     910:	95 07       	cpc	r25, r21
     912:	79 f4       	brne	.+30     	; 0x932 <_Z15i2c_irq_handlerPv+0x252>
     914:	19 8a       	std	Y+17, r1	; 0x11
     916:	18 8a       	std	Y+16, r1	; 0x10
     918:	25 fb       	bst	r18, 5
     91a:	00 27       	eor	r16, r16
     91c:	00 f9       	bld	r16, 0
     91e:	10 e0       	ldi	r17, 0x00	; 0
     920:	46 e0       	ldi	r20, 0x06	; 6
     922:	00 0f       	add	r16, r16
     924:	11 1f       	adc	r17, r17
     926:	4a 95       	dec	r20
     928:	e1 f7       	brne	.-8      	; 0x922 <_Z15i2c_irq_handlerPv+0x242>
     92a:	05 6a       	ori	r16, 0xA5	; 165
     92c:	00 93 bc 00 	sts	0x00BC, r16	; 0x8000bc <__TEXT_REGION_LENGTH__+0x7e00bc>
     930:	7a c0       	rjmp	.+244    	; 0xa26 <_Z15i2c_irq_handlerPv+0x346>
     932:	9c 01       	movw	r18, r24
     934:	2f 5f       	subi	r18, 0xFF	; 255
     936:	3f 4f       	sbci	r19, 0xFF	; 255
     938:	39 8b       	std	Y+17, r19	; 0x11
     93a:	28 8b       	std	Y+16, r18	; 0x10
     93c:	28 85       	ldd	r18, Y+8	; 0x08
     93e:	39 85       	ldd	r19, Y+9	; 0x09
     940:	f9 01       	movw	r30, r18
     942:	e8 0f       	add	r30, r24
     944:	f9 1f       	adc	r31, r25
     946:	80 81       	ld	r24, Z
     948:	80 93 bb 00 	sts	0x00BB, r24	; 0x8000bb <__TEXT_REGION_LENGTH__+0x7e00bb>
     94c:	8c 89       	ldd	r24, Y+20	; 0x14
     94e:	85 fb       	bst	r24, 5
     950:	44 24       	eor	r4, r4
     952:	40 f8       	bld	r4, 0
     954:	51 2c       	mov	r5, r1
     956:	e2 01       	movw	r28, r4
     958:	36 e0       	ldi	r19, 0x06	; 6
     95a:	cc 0f       	add	r28, r28
     95c:	dd 1f       	adc	r29, r29
     95e:	3a 95       	dec	r19
     960:	e1 f7       	brne	.-8      	; 0x95a <_Z15i2c_irq_handlerPv+0x27a>
     962:	c5 68       	ori	r28, 0x85	; 133
     964:	c0 93 bc 00 	sts	0x00BC, r28	; 0x8000bc <__TEXT_REGION_LENGTH__+0x7e00bc>
     968:	5e c0       	rjmp	.+188    	; 0xa26 <_Z15i2c_irq_handlerPv+0x346>
     96a:	54 96       	adiw	r26, 0x14	; 20
     96c:	2c 91       	ld	r18, X
     96e:	54 97       	sbiw	r26, 0x14	; 20
     970:	20 61       	ori	r18, 0x10	; 16
     972:	54 96       	adiw	r26, 0x14	; 20
     974:	2c 93       	st	X, r18
     976:	54 97       	sbiw	r26, 0x14	; 20
     978:	25 fb       	bst	r18, 5
     97a:	aa 24       	eor	r10, r10
     97c:	a0 f8       	bld	r10, 0
     97e:	b1 2c       	mov	r11, r1
     980:	c5 01       	movw	r24, r10
     982:	35 c0       	rjmp	.+106    	; 0x9ee <_Z15i2c_irq_handlerPv+0x30e>
     984:	54 96       	adiw	r26, 0x14	; 20
     986:	2c 91       	ld	r18, X
     988:	54 97       	sbiw	r26, 0x14	; 20
     98a:	28 60       	ori	r18, 0x08	; 8
     98c:	54 96       	adiw	r26, 0x14	; 20
     98e:	2c 93       	st	X, r18
     990:	54 97       	sbiw	r26, 0x14	; 20
     992:	25 fb       	bst	r18, 5
     994:	88 24       	eor	r8, r8
     996:	80 f8       	bld	r8, 0
     998:	91 2c       	mov	r9, r1
     99a:	c4 01       	movw	r24, r8
     99c:	28 c0       	rjmp	.+80     	; 0x9ee <_Z15i2c_irq_handlerPv+0x30e>
     99e:	50 96       	adiw	r26, 0x10	; 16
     9a0:	2d 91       	ld	r18, X+
     9a2:	3c 91       	ld	r19, X
     9a4:	51 97       	sbiw	r26, 0x11	; 17
     9a6:	a9 01       	movw	r20, r18
     9a8:	4f 5f       	subi	r20, 0xFF	; 255
     9aa:	5f 4f       	sbci	r21, 0xFF	; 255
     9ac:	51 96       	adiw	r26, 0x11	; 17
     9ae:	5c 93       	st	X, r21
     9b0:	4e 93       	st	-X, r20
     9b2:	50 97       	sbiw	r26, 0x10	; 16
     9b4:	40 91 bb 00 	lds	r20, 0x00BB	; 0x8000bb <__TEXT_REGION_LENGTH__+0x7e00bb>
     9b8:	1c 96       	adiw	r26, 0x0c	; 12
     9ba:	6d 91       	ld	r22, X+
     9bc:	7c 91       	ld	r23, X
     9be:	1d 97       	sbiw	r26, 0x0d	; 13
     9c0:	fb 01       	movw	r30, r22
     9c2:	e2 0f       	add	r30, r18
     9c4:	f3 1f       	adc	r31, r19
     9c6:	40 83       	st	Z, r20
     9c8:	50 96       	adiw	r26, 0x10	; 16
     9ca:	2d 91       	ld	r18, X+
     9cc:	3c 91       	ld	r19, X
     9ce:	51 97       	sbiw	r26, 0x11	; 17
     9d0:	2f 5f       	subi	r18, 0xFF	; 255
     9d2:	3f 4f       	sbci	r19, 0xFF	; 255
     9d4:	52 96       	adiw	r26, 0x12	; 18
     9d6:	8d 91       	ld	r24, X+
     9d8:	9c 91       	ld	r25, X
     9da:	53 97       	sbiw	r26, 0x13	; 19
     9dc:	28 17       	cp	r18, r24
     9de:	39 07       	cpc	r19, r25
     9e0:	11 f4       	brne	.+4      	; 0x9e6 <_Z15i2c_irq_handlerPv+0x306>
     9e2:	85 e8       	ldi	r24, 0x85	; 133
     9e4:	01 c0       	rjmp	.+2      	; 0x9e8 <_Z15i2c_irq_handlerPv+0x308>
     9e6:	85 ec       	ldi	r24, 0xC5	; 197
     9e8:	80 93 bc 00 	sts	0x00BC, r24	; 0x8000bc <__TEXT_REGION_LENGTH__+0x7e00bc>
     9ec:	1c c0       	rjmp	.+56     	; 0xa26 <_Z15i2c_irq_handlerPv+0x346>
     9ee:	26 e0       	ldi	r18, 0x06	; 6
     9f0:	88 0f       	add	r24, r24
     9f2:	99 1f       	adc	r25, r25
     9f4:	2a 95       	dec	r18
     9f6:	e1 f7       	brne	.-8      	; 0x9f0 <_Z15i2c_irq_handlerPv+0x310>
     9f8:	85 69       	ori	r24, 0x95	; 149
     9fa:	80 93 bc 00 	sts	0x00BC, r24	; 0x8000bc <__TEXT_REGION_LENGTH__+0x7e00bc>
     9fe:	cd 01       	movw	r24, r26
     a00:	03 96       	adiw	r24, 0x03	; 3
     a02:	df 91       	pop	r29
     a04:	cf 91       	pop	r28
     a06:	1f 91       	pop	r17
     a08:	0f 91       	pop	r16
     a0a:	ff 90       	pop	r15
     a0c:	ef 90       	pop	r14
     a0e:	df 90       	pop	r13
     a10:	cf 90       	pop	r12
     a12:	bf 90       	pop	r11
     a14:	af 90       	pop	r10
     a16:	9f 90       	pop	r9
     a18:	8f 90       	pop	r8
     a1a:	7f 90       	pop	r7
     a1c:	6f 90       	pop	r6
     a1e:	5f 90       	pop	r5
     a20:	4f 90       	pop	r4
     a22:	0c 94 b2 0b 	jmp	0x1764	; 0x1764 <unwait_one.constprop.89>
     a26:	df 91       	pop	r29
     a28:	cf 91       	pop	r28
     a2a:	1f 91       	pop	r17
     a2c:	0f 91       	pop	r16
     a2e:	ff 90       	pop	r15
     a30:	ef 90       	pop	r14
     a32:	df 90       	pop	r13
     a34:	cf 90       	pop	r12
     a36:	bf 90       	pop	r11
     a38:	af 90       	pop	r10
     a3a:	9f 90       	pop	r9
     a3c:	8f 90       	pop	r8
     a3e:	7f 90       	pop	r7
     a40:	6f 90       	pop	r6
     a42:	5f 90       	pop	r5
     a44:	4f 90       	pop	r4
     a46:	08 95       	ret

00000a48 <_ZN5igris6buffereqEPKc>:
     a48:	fc 01       	movw	r30, r24
     a4a:	42 81       	ldd	r20, Z+2	; 0x02
     a4c:	53 81       	ldd	r21, Z+3	; 0x03
     a4e:	80 81       	ld	r24, Z
     a50:	91 81       	ldd	r25, Z+1	; 0x01
     a52:	0e 94 b7 0d 	call	0x1b6e	; 0x1b6e <strncmp>
     a56:	21 e0       	ldi	r18, 0x01	; 1
     a58:	89 2b       	or	r24, r25
     a5a:	09 f0       	breq	.+2      	; 0xa5e <_ZN5igris6buffereqEPKc+0x16>
     a5c:	20 e0       	ldi	r18, 0x00	; 0
     a5e:	82 2f       	mov	r24, r18
     a60:	08 95       	ret

00000a62 <_Z14pubsub_handlerPN4crow6packetE>:
     a62:	0f 93       	push	r16
     a64:	1f 93       	push	r17
     a66:	cf 93       	push	r28
     a68:	df 93       	push	r29
     a6a:	cd b7       	in	r28, 0x3d	; 61
     a6c:	de b7       	in	r29, 0x3e	; 62
     a6e:	28 97       	sbiw	r28, 0x08	; 8
     a70:	0f b6       	in	r0, 0x3f	; 63
     a72:	f8 94       	cli
     a74:	de bf       	out	0x3e, r29	; 62
     a76:	0f be       	out	0x3f, r0	; 63
     a78:	cd bf       	out	0x3d, r28	; 61
     a7a:	8c 01       	movw	r16, r24
     a7c:	ac 01       	movw	r20, r24
     a7e:	41 5f       	subi	r20, 0xF1	; 241
     a80:	5f 4f       	sbci	r21, 0xFF	; 255
     a82:	fc 01       	movw	r30, r24
     a84:	92 89       	ldd	r25, Z+18	; 0x12
     a86:	89 2f       	mov	r24, r25
     a88:	90 e0       	ldi	r25, 0x00	; 0
     a8a:	fa 01       	movw	r30, r20
     a8c:	e8 0f       	add	r30, r24
     a8e:	f9 1f       	adc	r31, r25
     a90:	23 85       	ldd	r18, Z+11	; 0x0b
     a92:	30 e0       	ldi	r19, 0x00	; 0
     a94:	0e 96       	adiw	r24, 0x0e	; 14
     a96:	84 0f       	add	r24, r20
     a98:	95 1f       	adc	r25, r21
     a9a:	9e 83       	std	Y+6, r25	; 0x06
     a9c:	8d 83       	std	Y+5, r24	; 0x05
     a9e:	38 87       	std	Y+8, r19	; 0x08
     aa0:	2f 83       	std	Y+7, r18	; 0x07
     aa2:	6d e4       	ldi	r22, 0x4D	; 77
     aa4:	71 e0       	ldi	r23, 0x01	; 1
     aa6:	ce 01       	movw	r24, r28
     aa8:	05 96       	adiw	r24, 0x05	; 5
     aaa:	0e 94 24 05 	call	0xa48	; 0xa48 <_ZN5igris6buffereqEPKc>
     aae:	88 23       	and	r24, r24
     ab0:	e9 f0       	breq	.+58     	; 0xaec <_Z14pubsub_handlerPN4crow6packetE+0x8a>
     ab2:	c8 01       	movw	r24, r16
     ab4:	0e 94 88 02 	call	0x510	; 0x510 <_ZN4crow6pubsubL8get_dataEPNS_6packetE>
     ab8:	fb 01       	movw	r30, r22
     aba:	84 81       	ldd	r24, Z+4	; 0x04
     abc:	95 81       	ldd	r25, Z+5	; 0x05
     abe:	a6 81       	ldd	r26, Z+6	; 0x06
     ac0:	b7 81       	ldd	r27, Z+7	; 0x07
     ac2:	40 81       	ld	r20, Z
     ac4:	51 81       	ldd	r21, Z+1	; 0x01
     ac6:	62 81       	ldd	r22, Z+2	; 0x02
     ac8:	73 81       	ldd	r23, Z+3	; 0x03
     aca:	40 93 b3 0a 	sts	0x0AB3, r20	; 0x800ab3 <lpower>
     ace:	50 93 b4 0a 	sts	0x0AB4, r21	; 0x800ab4 <lpower+0x1>
     ad2:	60 93 b5 0a 	sts	0x0AB5, r22	; 0x800ab5 <lpower+0x2>
     ad6:	70 93 b6 0a 	sts	0x0AB6, r23	; 0x800ab6 <lpower+0x3>
     ada:	80 93 b7 0a 	sts	0x0AB7, r24	; 0x800ab7 <rpower>
     ade:	90 93 b8 0a 	sts	0x0AB8, r25	; 0x800ab8 <rpower+0x1>
     ae2:	a0 93 b9 0a 	sts	0x0AB9, r26	; 0x800ab9 <rpower+0x2>
     ae6:	b0 93 ba 0a 	sts	0x0ABA, r27	; 0x800aba <rpower+0x3>
     aea:	67 c0       	rjmp	.+206    	; 0xbba <_Z14pubsub_handlerPN4crow6packetE+0x158>
     aec:	6b e5       	ldi	r22, 0x5B	; 91
     aee:	71 e0       	ldi	r23, 0x01	; 1
     af0:	ce 01       	movw	r24, r28
     af2:	05 96       	adiw	r24, 0x05	; 5
     af4:	0e 94 24 05 	call	0xa48	; 0xa48 <_ZN5igris6buffereqEPKc>
     af8:	88 23       	and	r24, r24
     afa:	c1 f1       	breq	.+112    	; 0xb6c <_Z14pubsub_handlerPN4crow6packetE+0x10a>
     afc:	e0 91 16 09 	lds	r30, 0x0916	; 0x800916 <board_led>
     b00:	f0 91 17 09 	lds	r31, 0x0917	; 0x800917 <board_led+0x1>
     b04:	80 91 18 09 	lds	r24, 0x0918	; 0x800918 <board_led+0x2>
     b08:	80 83       	st	Z, r24
     b0a:	c8 01       	movw	r24, r16
     b0c:	0e 94 88 02 	call	0x510	; 0x510 <_ZN4crow6pubsubL8get_dataEPNS_6packetE>
     b10:	69 83       	std	Y+1, r22	; 0x01
     b12:	7a 83       	std	Y+2, r23	; 0x02
     b14:	8b 83       	std	Y+3, r24	; 0x03
     b16:	9c 83       	std	Y+4, r25	; 0x04
     b18:	68 e6       	ldi	r22, 0x68	; 104
     b1a:	71 e0       	ldi	r23, 0x01	; 1
     b1c:	ce 01       	movw	r24, r28
     b1e:	01 96       	adiw	r24, 0x01	; 1
     b20:	0e 94 24 05 	call	0xa48	; 0xa48 <_ZN5igris6buffereqEPKc>
     b24:	88 23       	and	r24, r24
     b26:	69 f0       	breq	.+26     	; 0xb42 <_Z14pubsub_handlerPN4crow6packetE+0xe0>
     b28:	e0 91 16 09 	lds	r30, 0x0916	; 0x800916 <board_led>
     b2c:	f0 91 17 09 	lds	r31, 0x0917	; 0x800917 <board_led+0x1>
     b30:	92 81       	ldd	r25, Z+2	; 0x02
     b32:	80 91 18 09 	lds	r24, 0x0918	; 0x800918 <board_led+0x2>
     b36:	89 2b       	or	r24, r25
     b38:	82 83       	std	Z+2, r24	; 0x02
     b3a:	81 e0       	ldi	r24, 0x01	; 1
     b3c:	80 93 bb 0a 	sts	0x0ABB, r24	; 0x800abb <en>
     b40:	3c c0       	rjmp	.+120    	; 0xbba <_Z14pubsub_handlerPN4crow6packetE+0x158>
     b42:	6b e6       	ldi	r22, 0x6B	; 107
     b44:	71 e0       	ldi	r23, 0x01	; 1
     b46:	ce 01       	movw	r24, r28
     b48:	01 96       	adiw	r24, 0x01	; 1
     b4a:	0e 94 24 05 	call	0xa48	; 0xa48 <_ZN5igris6buffereqEPKc>
     b4e:	88 23       	and	r24, r24
     b50:	a1 f1       	breq	.+104    	; 0xbba <_Z14pubsub_handlerPN4crow6packetE+0x158>
     b52:	e0 91 16 09 	lds	r30, 0x0916	; 0x800916 <board_led>
     b56:	f0 91 17 09 	lds	r31, 0x0917	; 0x800917 <board_led+0x1>
     b5a:	92 81       	ldd	r25, Z+2	; 0x02
     b5c:	80 91 18 09 	lds	r24, 0x0918	; 0x800918 <board_led+0x2>
     b60:	80 95       	com	r24
     b62:	89 23       	and	r24, r25
     b64:	82 83       	std	Z+2, r24	; 0x02
     b66:	10 92 bb 0a 	sts	0x0ABB, r1	; 0x800abb <en>
     b6a:	27 c0       	rjmp	.+78     	; 0xbba <_Z14pubsub_handlerPN4crow6packetE+0x158>
     b6c:	6f e6       	ldi	r22, 0x6F	; 111
     b6e:	71 e0       	ldi	r23, 0x01	; 1
     b70:	ce 01       	movw	r24, r28
     b72:	05 96       	adiw	r24, 0x05	; 5
     b74:	0e 94 24 05 	call	0xa48	; 0xa48 <_ZN5igris6buffereqEPKc>
     b78:	88 23       	and	r24, r24
     b7a:	59 f0       	breq	.+22     	; 0xb92 <_Z14pubsub_handlerPN4crow6packetE+0x130>
     b7c:	c8 01       	movw	r24, r16
     b7e:	0e 94 88 02 	call	0x510	; 0x510 <_ZN4crow6pubsubL8get_dataEPNS_6packetE>
     b82:	fb 01       	movw	r30, r22
     b84:	40 81       	ld	r20, Z
     b86:	51 81       	ldd	r21, Z+1	; 0x01
     b88:	62 81       	ldd	r22, Z+2	; 0x02
     b8a:	73 81       	ldd	r23, Z+3	; 0x03
     b8c:	86 e2       	ldi	r24, 0x26	; 38
     b8e:	98 e0       	ldi	r25, 0x08	; 8
     b90:	12 c0       	rjmp	.+36     	; 0xbb6 <_Z14pubsub_handlerPN4crow6packetE+0x154>
     b92:	6a e7       	ldi	r22, 0x7A	; 122
     b94:	71 e0       	ldi	r23, 0x01	; 1
     b96:	ce 01       	movw	r24, r28
     b98:	05 96       	adiw	r24, 0x05	; 5
     b9a:	0e 94 24 05 	call	0xa48	; 0xa48 <_ZN5igris6buffereqEPKc>
     b9e:	88 23       	and	r24, r24
     ba0:	61 f0       	breq	.+24     	; 0xbba <_Z14pubsub_handlerPN4crow6packetE+0x158>
     ba2:	c8 01       	movw	r24, r16
     ba4:	0e 94 88 02 	call	0x510	; 0x510 <_ZN4crow6pubsubL8get_dataEPNS_6packetE>
     ba8:	fb 01       	movw	r30, r22
     baa:	40 81       	ld	r20, Z
     bac:	51 81       	ldd	r21, Z+1	; 0x01
     bae:	62 81       	ldd	r22, Z+2	; 0x02
     bb0:	73 81       	ldd	r23, Z+3	; 0x03
     bb2:	80 e2       	ldi	r24, 0x20	; 32
     bb4:	98 e0       	ldi	r25, 0x08	; 8
     bb6:	0e 94 15 11 	call	0x222a	; 0x222a <_ZN5genos3avr15pwmservo_writerIjE3setEf>
     bba:	c8 01       	movw	r24, r16
     bbc:	28 96       	adiw	r28, 0x08	; 8
     bbe:	0f b6       	in	r0, 0x3f	; 63
     bc0:	f8 94       	cli
     bc2:	de bf       	out	0x3e, r29	; 62
     bc4:	0f be       	out	0x3f, r0	; 63
     bc6:	cd bf       	out	0x3d, r28	; 61
     bc8:	df 91       	pop	r29
     bca:	cf 91       	pop	r28
     bcc:	1f 91       	pop	r17
     bce:	0f 91       	pop	r16
     bd0:	0c 94 a5 1d 	jmp	0x3b4a	; 0x3b4a <_ZN4crow7releaseEPNS_6packetE>

00000bd4 <_Z10motors_runff>:
     bd4:	8f 92       	push	r8
     bd6:	9f 92       	push	r9
     bd8:	af 92       	push	r10
     bda:	bf 92       	push	r11
     bdc:	cf 92       	push	r12
     bde:	df 92       	push	r13
     be0:	ef 92       	push	r14
     be2:	ff 92       	push	r15
     be4:	cf 93       	push	r28
     be6:	df 93       	push	r29
     be8:	4b 01       	movw	r8, r22
     bea:	5c 01       	movw	r10, r24
     bec:	69 01       	movw	r12, r18
     bee:	7a 01       	movw	r14, r20
     bf0:	ca e4       	ldi	r28, 0x4A	; 74
     bf2:	d9 e0       	ldi	r29, 0x09	; 9
     bf4:	ec 85       	ldd	r30, Y+12	; 0x0c
     bf6:	fd 85       	ldd	r31, Y+13	; 0x0d
     bf8:	01 90       	ld	r0, Z+
     bfa:	f0 81       	ld	r31, Z
     bfc:	e0 2d       	mov	r30, r0
     bfe:	ab 01       	movw	r20, r22
     c00:	bc 01       	movw	r22, r24
     c02:	86 e5       	ldi	r24, 0x56	; 86
     c04:	99 e0       	ldi	r25, 0x09	; 9
     c06:	09 95       	icall
     c08:	b5 01       	movw	r22, r10
     c0a:	a4 01       	movw	r20, r8
     c0c:	ce 01       	movw	r24, r28
     c0e:	0e 94 9e 02 	call	0x53c	; 0x53c <_ZN12motor_driver5powerEf>
     c12:	ea 89       	ldd	r30, Y+18	; 0x12
     c14:	fb 89       	ldd	r31, Y+19	; 0x13
     c16:	01 90       	ld	r0, Z+
     c18:	f0 81       	ld	r31, Z
     c1a:	e0 2d       	mov	r30, r0
     c1c:	b7 01       	movw	r22, r14
     c1e:	a6 01       	movw	r20, r12
     c20:	8c e5       	ldi	r24, 0x5C	; 92
     c22:	99 e0       	ldi	r25, 0x09	; 9
     c24:	09 95       	icall
     c26:	ee 81       	ldd	r30, Y+6	; 0x06
     c28:	ff 81       	ldd	r31, Y+7	; 0x07
     c2a:	01 90       	ld	r0, Z+
     c2c:	f0 81       	ld	r31, Z
     c2e:	e0 2d       	mov	r30, r0
     c30:	b7 01       	movw	r22, r14
     c32:	a6 01       	movw	r20, r12
     c34:	80 e5       	ldi	r24, 0x50	; 80
     c36:	99 e0       	ldi	r25, 0x09	; 9
     c38:	df 91       	pop	r29
     c3a:	cf 91       	pop	r28
     c3c:	ff 90       	pop	r15
     c3e:	ef 90       	pop	r14
     c40:	df 90       	pop	r13
     c42:	cf 90       	pop	r12
     c44:	bf 90       	pop	r11
     c46:	af 90       	pop	r10
     c48:	9f 90       	pop	r9
     c4a:	8f 90       	pop	r8
     c4c:	09 94       	ijmp

00000c4e <main>:
     c4e:	cf 93       	push	r28
     c50:	df 93       	push	r29
     c52:	cd b7       	in	r28, 0x3d	; 61
     c54:	de b7       	in	r29, 0x3e	; 62
     c56:	28 97       	sbiw	r28, 0x08	; 8
     c58:	0f b6       	in	r0, 0x3f	; 63
     c5a:	f8 94       	cli
     c5c:	de bf       	out	0x3e, r29	; 62
     c5e:	0f be       	out	0x3f, r0	; 63
     c60:	cd bf       	out	0x3d, r28	; 61
     c62:	ec e2       	ldi	r30, 0x2C	; 44
     c64:	f8 e0       	ldi	r31, 0x08	; 8
     c66:	80 e0       	ldi	r24, 0x00	; 0
     c68:	90 e0       	ldi	r25, 0x00	; 0
     c6a:	41 e1       	ldi	r20, 0x11	; 17
     c6c:	58 e1       	ldi	r21, 0x18	; 24
     c6e:	26 e0       	ldi	r18, 0x06	; 6
     c70:	51 83       	std	Z+1, r21	; 0x01
     c72:	40 83       	st	Z, r20
     c74:	93 83       	std	Z+3, r25	; 0x03
     c76:	82 83       	std	Z+2, r24	; 0x02
     c78:	28 9f       	mul	r18, r24
     c7a:	d0 01       	movw	r26, r0
     c7c:	29 9f       	mul	r18, r25
     c7e:	b0 0d       	add	r27, r0
     c80:	11 24       	eor	r1, r1
     c82:	a4 5d       	subi	r26, 0xD4	; 212
     c84:	b7 4f       	sbci	r27, 0xF7	; 247
     c86:	15 96       	adiw	r26, 0x05	; 5
     c88:	1c 92       	st	X, r1
     c8a:	1e 92       	st	-X, r1
     c8c:	14 97       	sbiw	r26, 0x04	; 4
     c8e:	01 96       	adiw	r24, 0x01	; 1
     c90:	36 96       	adiw	r30, 0x06	; 6
     c92:	89 31       	cpi	r24, 0x19	; 25
     c94:	91 05       	cpc	r25, r1
     c96:	61 f7       	brne	.-40     	; 0xc70 <main+0x22>
     c98:	10 92 c0 00 	sts	0x00C0, r1	; 0x8000c0 <__TEXT_REGION_LENGTH__+0x7e00c0>
     c9c:	10 92 c5 00 	sts	0x00C5, r1	; 0x8000c5 <__TEXT_REGION_LENGTH__+0x7e00c5>
     ca0:	88 e0       	ldi	r24, 0x08	; 8
     ca2:	80 93 c4 00 	sts	0x00C4, r24	; 0x8000c4 <__TEXT_REGION_LENGTH__+0x7e00c4>
     ca6:	86 e0       	ldi	r24, 0x06	; 6
     ca8:	80 93 c2 00 	sts	0x00C2, r24	; 0x8000c2 <__TEXT_REGION_LENGTH__+0x7e00c2>
     cac:	80 91 c1 00 	lds	r24, 0x00C1	; 0x8000c1 <__TEXT_REGION_LENGTH__+0x7e00c1>
     cb0:	88 60       	ori	r24, 0x08	; 8
     cb2:	80 93 c1 00 	sts	0x00C1, r24	; 0x8000c1 <__TEXT_REGION_LENGTH__+0x7e00c1>
     cb6:	8f ea       	ldi	r24, 0xAF	; 175
     cb8:	91 e0       	ldi	r25, 0x01	; 1
     cba:	90 93 d7 0a 	sts	0x0AD7, r25	; 0x800ad7 <current_diag_ops+0x1>
     cbe:	80 93 d6 0a 	sts	0x0AD6, r24	; 0x800ad6 <current_diag_ops>
     cc2:	10 92 d5 0a 	sts	0x0AD5, r1	; 0x800ad5 <current_diag_priv+0x1>
     cc6:	10 92 d4 0a 	sts	0x0AD4, r1	; 0x800ad4 <current_diag_priv>
     cca:	82 e9       	ldi	r24, 0x92	; 146
     ccc:	95 e1       	ldi	r25, 0x15	; 21
     cce:	90 93 87 08 	sts	0x0887, r25	; 0x800887 <irqtable+0x5b>
     cd2:	80 93 86 08 	sts	0x0886, r24	; 0x800886 <irqtable+0x5a>
     cd6:	10 92 89 08 	sts	0x0889, r1	; 0x800889 <irqtable+0x5d>
     cda:	10 92 88 08 	sts	0x0888, r1	; 0x800888 <irqtable+0x5c>
     cde:	e0 91 03 01 	lds	r30, 0x0103	; 0x800103 <__data_start+0x3>
     ce2:	f0 91 04 01 	lds	r31, 0x0104	; 0x800104 <__data_start+0x4>
     ce6:	80 81       	ld	r24, Z
     ce8:	81 60       	ori	r24, 0x01	; 1
     cea:	80 83       	st	Z, r24
     cec:	e0 91 00 01 	lds	r30, 0x0100	; 0x800100 <__data_start>
     cf0:	f0 91 01 01 	lds	r31, 0x0101	; 0x800101 <__data_start+0x1>
     cf4:	81 81       	ldd	r24, Z+1	; 0x01
     cf6:	88 7f       	andi	r24, 0xF8	; 248
     cf8:	83 60       	ori	r24, 0x03	; 3
     cfa:	81 83       	std	Z+1, r24	; 0x01
     cfc:	86 e0       	ldi	r24, 0x06	; 6
     cfe:	91 e0       	ldi	r25, 0x01	; 1
     d00:	a0 e0       	ldi	r26, 0x00	; 0
     d02:	b0 e0       	ldi	r27, 0x00	; 0
     d04:	80 93 1d 01 	sts	0x011D, r24	; 0x80011d <jiffies_to_millis>
     d08:	90 93 1e 01 	sts	0x011E, r25	; 0x80011e <jiffies_to_millis+0x1>
     d0c:	a0 93 1f 01 	sts	0x011F, r26	; 0x80011f <jiffies_to_millis+0x2>
     d10:	b0 93 20 01 	sts	0x0120, r27	; 0x800120 <jiffies_to_millis+0x3>
     d14:	e0 91 16 09 	lds	r30, 0x0916	; 0x800916 <board_led>
     d18:	f0 91 17 09 	lds	r31, 0x0917	; 0x800917 <board_led+0x1>
     d1c:	91 81       	ldd	r25, Z+1	; 0x01
     d1e:	20 91 18 09 	lds	r18, 0x0918	; 0x800918 <board_led+0x2>
     d22:	92 2b       	or	r25, r18
     d24:	91 83       	std	Z+1, r25	; 0x01
     d26:	82 81       	ldd	r24, Z+2	; 0x02
     d28:	82 2b       	or	r24, r18
     d2a:	82 83       	std	Z+2, r24	; 0x02
     d2c:	8c e9       	ldi	r24, 0x9C	; 156
     d2e:	91 e0       	ldi	r25, 0x01	; 1
     d30:	0e 94 a5 19 	call	0x334a	; 0x334a <debug_print>
     d34:	0e 94 0b 18 	call	0x3016	; 0x3016 <debug_print_newline.lto_priv.100.lto_priv.109>
     d38:	8e ed       	ldi	r24, 0xDE	; 222
     d3a:	98 e0       	ldi	r25, 0x08	; 8
     d3c:	90 93 63 09 	sts	0x0963, r25	; 0x800963 <pwm_hor+0x1>
     d40:	80 93 62 09 	sts	0x0962, r24	; 0x800962 <pwm_hor>
     d44:	21 e6       	ldi	r18, 0x61	; 97
     d46:	20 93 64 09 	sts	0x0964, r18	; 0x800964 <pwm_hor+0x2>
     d4a:	90 93 66 09 	sts	0x0966, r25	; 0x800966 <pwm_ver+0x1>
     d4e:	80 93 65 09 	sts	0x0965, r24	; 0x800965 <pwm_ver>
     d52:	82 e6       	ldi	r24, 0x62	; 98
     d54:	80 93 67 09 	sts	0x0967, r24	; 0x800967 <pwm_ver+0x2>
     d58:	8e ed       	ldi	r24, 0xDE	; 222
     d5a:	98 e0       	ldi	r25, 0x08	; 8
     d5c:	0e 94 f4 10 	call	0x21e8	; 0x21e8 <_ZN5genos3avr8pwmservo19standart_timer_modeEv.isra.10.lto_priv.138>
     d60:	82 e6       	ldi	r24, 0x62	; 98
     d62:	99 e0       	ldi	r25, 0x09	; 9
     d64:	0e 94 13 02 	call	0x426	; 0x426 <_ZN5genos3avr8pwmservo14pwm_mode_startEv>
     d68:	62 e6       	ldi	r22, 0x62	; 98
     d6a:	79 e0       	ldi	r23, 0x09	; 9
     d6c:	ce 01       	movw	r24, r28
     d6e:	01 96       	adiw	r24, 0x01	; 1
     d70:	0e 94 db 0c 	call	0x19b6	; 0x19b6 <_ZN5genos3avr8pwmservo10get_writerEjj.constprop.59>
     d74:	86 e0       	ldi	r24, 0x06	; 6
     d76:	fe 01       	movw	r30, r28
     d78:	31 96       	adiw	r30, 0x01	; 1
     d7a:	a6 e2       	ldi	r26, 0x26	; 38
     d7c:	b8 e0       	ldi	r27, 0x08	; 8
     d7e:	01 90       	ld	r0, Z+
     d80:	0d 92       	st	X+, r0
     d82:	8a 95       	dec	r24
     d84:	e1 f7       	brne	.-8      	; 0xd7e <main+0x130>
     d86:	80 91 65 09 	lds	r24, 0x0965	; 0x800965 <pwm_ver>
     d8a:	90 91 66 09 	lds	r25, 0x0966	; 0x800966 <pwm_ver+0x1>
     d8e:	0e 94 f4 10 	call	0x21e8	; 0x21e8 <_ZN5genos3avr8pwmservo19standart_timer_modeEv.isra.10.lto_priv.138>
     d92:	85 e6       	ldi	r24, 0x65	; 101
     d94:	99 e0       	ldi	r25, 0x09	; 9
     d96:	0e 94 13 02 	call	0x426	; 0x426 <_ZN5genos3avr8pwmservo14pwm_mode_startEv>
     d9a:	65 e6       	ldi	r22, 0x65	; 101
     d9c:	79 e0       	ldi	r23, 0x09	; 9
     d9e:	ce 01       	movw	r24, r28
     da0:	01 96       	adiw	r24, 0x01	; 1
     da2:	0e 94 db 0c 	call	0x19b6	; 0x19b6 <_ZN5genos3avr8pwmservo10get_writerEjj.constprop.59>
     da6:	86 e0       	ldi	r24, 0x06	; 6
     da8:	fe 01       	movw	r30, r28
     daa:	31 96       	adiw	r30, 0x01	; 1
     dac:	a0 e2       	ldi	r26, 0x20	; 32
     dae:	b8 e0       	ldi	r27, 0x08	; 8
     db0:	01 90       	ld	r0, Z+
     db2:	0d 92       	st	X+, r0
     db4:	8a 95       	dec	r24
     db6:	e1 f7       	brne	.-8      	; 0xdb0 <main+0x162>
     db8:	e0 91 9f 0a 	lds	r30, 0x0A9F	; 0x800a9f <_ZL6PINOUT.lto_priv.136+0x24>
     dbc:	f0 91 a0 0a 	lds	r31, 0x0AA0	; 0x800aa0 <_ZL6PINOUT.lto_priv.136+0x25>
     dc0:	91 81       	ldd	r25, Z+1	; 0x01
     dc2:	80 91 a1 0a 	lds	r24, 0x0AA1	; 0x800aa1 <_ZL6PINOUT.lto_priv.136+0x26>
     dc6:	89 2b       	or	r24, r25
     dc8:	81 83       	std	Z+1, r24	; 0x01
     dca:	e0 91 a3 0a 	lds	r30, 0x0AA3	; 0x800aa3 <_ZL6PINOUT.lto_priv.136+0x28>
     dce:	f0 91 a4 0a 	lds	r31, 0x0AA4	; 0x800aa4 <_ZL6PINOUT.lto_priv.136+0x29>
     dd2:	91 81       	ldd	r25, Z+1	; 0x01
     dd4:	80 91 a5 0a 	lds	r24, 0x0AA5	; 0x800aa5 <_ZL6PINOUT.lto_priv.136+0x2a>
     dd8:	89 2b       	or	r24, r25
     dda:	81 83       	std	Z+1, r24	; 0x01
     ddc:	40 e0       	ldi	r20, 0x00	; 0
     dde:	50 e0       	ldi	r21, 0x00	; 0
     de0:	60 e0       	ldi	r22, 0x00	; 0
     de2:	7f e3       	ldi	r23, 0x3F	; 63
     de4:	86 e2       	ldi	r24, 0x26	; 38
     de6:	98 e0       	ldi	r25, 0x08	; 8
     de8:	0e 94 15 11 	call	0x222a	; 0x222a <_ZN5genos3avr15pwmservo_writerIjE3setEf>
     dec:	40 e0       	ldi	r20, 0x00	; 0
     dee:	50 e0       	ldi	r21, 0x00	; 0
     df0:	60 e0       	ldi	r22, 0x00	; 0
     df2:	7f e3       	ldi	r23, 0x3F	; 63
     df4:	80 e2       	ldi	r24, 0x20	; 32
     df6:	98 e0       	ldi	r25, 0x08	; 8
     df8:	0e 94 15 11 	call	0x222a	; 0x222a <_ZN5genos3avr15pwmservo_writerIjE3setEf>
     dfc:	84 b1       	in	r24, 0x04	; 4
     dfe:	83 60       	ori	r24, 0x03	; 3
     e00:	84 b9       	out	0x04, r24	; 4
     e02:	84 ec       	ldi	r24, 0xC4	; 196
     e04:	a8 2e       	mov	r10, r24
     e06:	88 e0       	ldi	r24, 0x08	; 8
     e08:	b8 2e       	mov	r11, r24
     e0a:	80 e0       	ldi	r24, 0x00	; 0
     e0c:	90 e0       	ldi	r25, 0x00	; 0
     e0e:	e5 e8       	ldi	r30, 0x85	; 133
     e10:	f1 e0       	ldi	r31, 0x01	; 1
     e12:	0a e0       	ldi	r16, 0x0A	; 10
     e14:	ff 24       	eor	r15, r15
     e16:	f3 94       	inc	r15
     e18:	20 81       	ld	r18, Z
     e1a:	2e 32       	cpi	r18, 0x2E	; 46
     e1c:	b9 f0       	breq	.+46     	; 0xe4c <main+0x1fe>
     e1e:	44 f4       	brge	.+16     	; 0xe30 <main+0x1e2>
     e20:	23 32       	cpi	r18, 0x23	; 35
     e22:	09 f0       	breq	.+2      	; 0xe26 <main+0x1d8>
     e24:	93 c0       	rjmp	.+294    	; 0xf4c <main+0x2fe>
     e26:	bf 01       	movw	r22, r30
     e28:	6f 5f       	subi	r22, 0xFF	; 255
     e2a:	7f 4f       	sbci	r23, 0xFF	; 255
     e2c:	30 e0       	ldi	r19, 0x00	; 0
     e2e:	64 c0       	rjmp	.+200    	; 0xef8 <main+0x2aa>
     e30:	2a 33       	cpi	r18, 0x3A	; 58
     e32:	29 f0       	breq	.+10     	; 0xe3e <main+0x1f0>
     e34:	2f 35       	cpi	r18, 0x5F	; 95
     e36:	09 f0       	breq	.+2      	; 0xe3a <main+0x1ec>
     e38:	89 c0       	rjmp	.+274    	; 0xf4c <main+0x2fe>
     e3a:	31 96       	adiw	r30, 0x01	; 1
     e3c:	7f c0       	rjmp	.+254    	; 0xf3c <main+0x2ee>
     e3e:	6f 01       	movw	r12, r30
     e40:	2f ef       	ldi	r18, 0xFF	; 255
     e42:	c2 1a       	sub	r12, r18
     e44:	d2 0a       	sbc	r13, r18
     e46:	40 e0       	ldi	r20, 0x00	; 0
     e48:	50 e0       	ldi	r21, 0x00	; 0
     e4a:	2b c0       	rjmp	.+86     	; 0xea2 <main+0x254>
     e4c:	af 01       	movw	r20, r30
     e4e:	4f 5f       	subi	r20, 0xFF	; 255
     e50:	5f 4f       	sbci	r21, 0xFF	; 255
     e52:	20 e0       	ldi	r18, 0x00	; 0
     e54:	fa 01       	movw	r30, r20
     e56:	30 81       	ld	r19, Z
     e58:	4f 5f       	subi	r20, 0xFF	; 255
     e5a:	5f 4f       	sbci	r21, 0xFF	; 255
     e5c:	63 2f       	mov	r22, r19
     e5e:	70 e0       	ldi	r23, 0x00	; 0
     e60:	69 54       	subi	r22, 0x49	; 73
     e62:	7e 4f       	sbci	r23, 0xFE	; 254
     e64:	db 01       	movw	r26, r22
     e66:	6c 91       	ld	r22, X
     e68:	62 ff       	sbrs	r22, 2
     e6a:	0c c0       	rjmp	.+24     	; 0xe84 <main+0x236>
     e6c:	22 0f       	add	r18, r18
     e6e:	62 2f       	mov	r22, r18
     e70:	66 0f       	add	r22, r22
     e72:	66 0f       	add	r22, r22
     e74:	26 0f       	add	r18, r22
     e76:	3a 33       	cpi	r19, 0x3A	; 58
     e78:	14 f4       	brge	.+4      	; 0xe7e <main+0x230>
     e7a:	30 53       	subi	r19, 0x30	; 48
     e7c:	01 c0       	rjmp	.+2      	; 0xe80 <main+0x232>
     e7e:	37 53       	subi	r19, 0x37	; 55
     e80:	23 0f       	add	r18, r19
     e82:	e8 cf       	rjmp	.-48     	; 0xe54 <main+0x206>
     e84:	01 96       	adiw	r24, 0x01	; 1
     e86:	d5 01       	movw	r26, r10
     e88:	2c 93       	st	X, r18
     e8a:	54 c0       	rjmp	.+168    	; 0xf34 <main+0x2e6>
     e8c:	04 9f       	mul	r16, r20
     e8e:	b0 01       	movw	r22, r0
     e90:	05 9f       	mul	r16, r21
     e92:	70 0d       	add	r23, r0
     e94:	11 24       	eor	r1, r1
     e96:	2a 33       	cpi	r18, 0x3A	; 58
     e98:	94 f4       	brge	.+36     	; 0xebe <main+0x270>
     e9a:	20 53       	subi	r18, 0x30	; 48
     e9c:	ab 01       	movw	r20, r22
     e9e:	42 0f       	add	r20, r18
     ea0:	51 1d       	adc	r21, r1
     ea2:	f6 01       	movw	r30, r12
     ea4:	20 81       	ld	r18, Z
     ea6:	3f ef       	ldi	r19, 0xFF	; 255
     ea8:	c3 1a       	sub	r12, r19
     eaa:	d3 0a       	sbc	r13, r19
     eac:	62 2f       	mov	r22, r18
     eae:	70 e0       	ldi	r23, 0x00	; 0
     eb0:	69 54       	subi	r22, 0x49	; 73
     eb2:	7e 4f       	sbci	r23, 0xFE	; 254
     eb4:	db 01       	movw	r26, r22
     eb6:	3c 91       	ld	r19, X
     eb8:	32 fd       	sbrc	r19, 2
     eba:	e8 cf       	rjmp	.-48     	; 0xe8c <main+0x23e>
     ebc:	02 c0       	rjmp	.+4      	; 0xec2 <main+0x274>
     ebe:	27 53       	subi	r18, 0x37	; 55
     ec0:	ed cf       	rjmp	.-38     	; 0xe9c <main+0x24e>
     ec2:	d5 01       	movw	r26, r10
     ec4:	5c 93       	st	X, r21
     ec6:	11 96       	adiw	r26, 0x01	; 1
     ec8:	4c 93       	st	X, r20
     eca:	02 96       	adiw	r24, 0x02	; 2
     ecc:	95 01       	movw	r18, r10
     ece:	2e 5f       	subi	r18, 0xFE	; 254
     ed0:	3f 4f       	sbci	r19, 0xFF	; 255
     ed2:	59 01       	movw	r10, r18
     ed4:	33 c0       	rjmp	.+102    	; 0xf3c <main+0x2ee>
     ed6:	33 23       	and	r19, r19
     ed8:	f1 f0       	breq	.+60     	; 0xf16 <main+0x2c8>
     eda:	f5 01       	movw	r30, r10
     edc:	31 96       	adiw	r30, 0x01	; 1
     ede:	a0 e1       	ldi	r26, 0x10	; 16
     ee0:	1a 9f       	mul	r17, r26
     ee2:	a0 01       	movw	r20, r0
     ee4:	11 24       	eor	r1, r1
     ee6:	2a 33       	cpi	r18, 0x3A	; 58
     ee8:	a4 f4       	brge	.+40     	; 0xf12 <main+0x2c4>
     eea:	20 53       	subi	r18, 0x30	; 48
     eec:	24 2b       	or	r18, r20
     eee:	d5 01       	movw	r26, r10
     ef0:	2c 93       	st	X, r18
     ef2:	01 96       	adiw	r24, 0x01	; 1
     ef4:	5f 01       	movw	r10, r30
     ef6:	3f 25       	eor	r19, r15
     ef8:	fb 01       	movw	r30, r22
     efa:	20 81       	ld	r18, Z
     efc:	6f 5f       	subi	r22, 0xFF	; 255
     efe:	7f 4f       	sbci	r23, 0xFF	; 255
     f00:	42 2f       	mov	r20, r18
     f02:	50 e0       	ldi	r21, 0x00	; 0
     f04:	49 54       	subi	r20, 0x49	; 73
     f06:	5e 4f       	sbci	r21, 0xFE	; 254
     f08:	da 01       	movw	r26, r20
     f0a:	4c 91       	ld	r20, X
     f0c:	44 74       	andi	r20, 0x44	; 68
     f0e:	19 f7       	brne	.-58     	; 0xed6 <main+0x288>
     f10:	09 c0       	rjmp	.+18     	; 0xf24 <main+0x2d6>
     f12:	27 53       	subi	r18, 0x37	; 55
     f14:	eb cf       	rjmp	.-42     	; 0xeec <main+0x29e>
     f16:	2a 33       	cpi	r18, 0x3A	; 58
     f18:	14 f4       	brge	.+4      	; 0xf1e <main+0x2d0>
     f1a:	10 ed       	ldi	r17, 0xD0	; 208
     f1c:	01 c0       	rjmp	.+2      	; 0xf20 <main+0x2d2>
     f1e:	19 ec       	ldi	r17, 0xC9	; 201
     f20:	12 0f       	add	r17, r18
     f22:	e9 cf       	rjmp	.-46     	; 0xef6 <main+0x2a8>
     f24:	33 23       	and	r19, r19
     f26:	51 f0       	breq	.+20     	; 0xf3c <main+0x2ee>
     f28:	21 2f       	mov	r18, r17
     f2a:	22 95       	swap	r18
     f2c:	20 7f       	andi	r18, 0xF0	; 240
     f2e:	d5 01       	movw	r26, r10
     f30:	2c 93       	st	X, r18
     f32:	01 96       	adiw	r24, 0x01	; 1
     f34:	95 01       	movw	r18, r10
     f36:	2f 5f       	subi	r18, 0xFF	; 255
     f38:	3f 4f       	sbci	r19, 0xFF	; 255
     f3a:	cb cf       	rjmp	.-106    	; 0xed2 <main+0x284>
     f3c:	31 e0       	ldi	r19, 0x01	; 1
     f3e:	eb 39       	cpi	r30, 0x9B	; 155
     f40:	f3 07       	cpc	r31, r19
     f42:	09 f0       	breq	.+2      	; 0xf46 <main+0x2f8>
     f44:	69 cf       	rjmp	.-302    	; 0xe18 <main+0x1ca>
     f46:	28 2f       	mov	r18, r24
     f48:	89 2f       	mov	r24, r25
     f4a:	02 c0       	rjmp	.+4      	; 0xf50 <main+0x302>
     f4c:	2f ef       	ldi	r18, 0xFF	; 255
     f4e:	8f ef       	ldi	r24, 0xFF	; 255
     f50:	20 93 bc 0a 	sts	0x0ABC, r18	; 0x800abc <raddr_len>
     f54:	80 93 bd 0a 	sts	0x0ABD, r24	; 0x800abd <raddr_len+0x1>
     f58:	ee 24       	eor	r14, r14
     f5a:	e3 94       	inc	r14
     f5c:	08 e0       	ldi	r16, 0x08	; 8
     f5e:	2e e6       	ldi	r18, 0x6E	; 110
     f60:	40 e0       	ldi	r20, 0x00	; 0
     f62:	52 ec       	ldi	r21, 0xC2	; 194
     f64:	61 e0       	ldi	r22, 0x01	; 1
     f66:	70 e0       	ldi	r23, 0x00	; 0
     f68:	8d e0       	ldi	r24, 0x0D	; 13
     f6a:	99 e0       	ldi	r25, 0x09	; 9
     f6c:	0e 94 65 14 	call	0x28ca	; 0x28ca <_ZN16avr_usart_device5setupElchh>
     f70:	84 ec       	ldi	r24, 0xC4	; 196
     f72:	9a e0       	ldi	r25, 0x0A	; 10
     f74:	90 93 c7 0a 	sts	0x0AC7, r25	; 0x800ac7 <runlist+0x3>
     f78:	80 93 c6 0a 	sts	0x0AC6, r24	; 0x800ac6 <runlist+0x2>
     f7c:	90 93 c5 0a 	sts	0x0AC5, r25	; 0x800ac5 <runlist+0x1>
     f80:	80 93 c4 0a 	sts	0x0AC4, r24	; 0x800ac4 <runlist>
     f84:	88 ec       	ldi	r24, 0xC8	; 200
     f86:	9a e0       	ldi	r25, 0x0A	; 10
     f88:	90 93 cb 0a 	sts	0x0ACB, r25	; 0x800acb <runlist+0x7>
     f8c:	80 93 ca 0a 	sts	0x0ACA, r24	; 0x800aca <runlist+0x6>
     f90:	90 93 c9 0a 	sts	0x0AC9, r25	; 0x800ac9 <runlist+0x5>
     f94:	80 93 c8 0a 	sts	0x0AC8, r24	; 0x800ac8 <runlist+0x4>
     f98:	8c ec       	ldi	r24, 0xCC	; 204
     f9a:	9a e0       	ldi	r25, 0x0A	; 10
     f9c:	90 93 cf 0a 	sts	0x0ACF, r25	; 0x800acf <runlist+0xb>
     fa0:	80 93 ce 0a 	sts	0x0ACE, r24	; 0x800ace <runlist+0xa>
     fa4:	90 93 cd 0a 	sts	0x0ACD, r25	; 0x800acd <runlist+0x9>
     fa8:	80 93 cc 0a 	sts	0x0ACC, r24	; 0x800acc <runlist+0x8>
     fac:	80 ed       	ldi	r24, 0xD0	; 208
     fae:	9a e0       	ldi	r25, 0x0A	; 10
     fb0:	90 93 d3 0a 	sts	0x0AD3, r25	; 0x800ad3 <runlist+0xf>
     fb4:	80 93 d2 0a 	sts	0x0AD2, r24	; 0x800ad2 <runlist+0xe>
     fb8:	90 93 d1 0a 	sts	0x0AD1, r25	; 0x800ad1 <runlist+0xd>
     fbc:	80 93 d0 0a 	sts	0x0AD0, r24	; 0x800ad0 <runlist+0xc>
     fc0:	83 ea       	ldi	r24, 0xA3	; 163
     fc2:	91 e0       	ldi	r25, 0x01	; 1
     fc4:	0e 94 a5 19 	call	0x334a	; 0x334a <debug_print>
     fc8:	87 eb       	ldi	r24, 0xB7	; 183
     fca:	92 e0       	ldi	r25, 0x02	; 2
     fcc:	0e 94 a5 19 	call	0x334a	; 0x334a <debug_print>
     fd0:	0e 94 0b 18 	call	0x3016	; 0x3016 <debug_print_newline.lto_priv.100.lto_priv.109>
     fd4:	00 ea       	ldi	r16, 0xA0	; 160
     fd6:	16 e0       	ldi	r17, 0x06	; 6
     fd8:	18 87       	std	Y+8, r17	; 0x08
     fda:	0f 83       	std	Y+7, r16	; 0x07
     fdc:	ce 01       	movw	r24, r28
     fde:	07 96       	adiw	r24, 0x07	; 7
     fe0:	0e 94 8e 0d 	call	0x1b1c	; 0x1b1c <debug_writehex_reversed.constprop.33>
     fe4:	62 e0       	ldi	r22, 0x02	; 2
     fe6:	70 e0       	ldi	r23, 0x00	; 0
     fe8:	8c ea       	ldi	r24, 0xAC	; 172
     fea:	91 e0       	ldi	r25, 0x01	; 1
     fec:	0e 94 f0 17 	call	0x2fe0	; 0x2fe0 <diag_write>
     ff0:	10 93 e5 0a 	sts	0x0AE5, r17	; 0x800ae5 <_crow_packet_pool+0x3>
     ff4:	00 93 e4 0a 	sts	0x0AE4, r16	; 0x800ae4 <_crow_packet_pool+0x2>
     ff8:	80 e8       	ldi	r24, 0x80	; 128
     ffa:	91 e0       	ldi	r25, 0x01	; 1
     ffc:	90 93 e7 0a 	sts	0x0AE7, r25	; 0x800ae7 <_crow_packet_pool+0x5>
    1000:	80 93 e6 0a 	sts	0x0AE6, r24	; 0x800ae6 <_crow_packet_pool+0x4>
    1004:	80 e4       	ldi	r24, 0x40	; 64
    1006:	90 e0       	ldi	r25, 0x00	; 0
    1008:	90 93 e9 0a 	sts	0x0AE9, r25	; 0x800ae9 <_crow_packet_pool+0x7>
    100c:	80 93 e8 0a 	sts	0x0AE8, r24	; 0x800ae8 <_crow_packet_pool+0x6>
    1010:	82 ee       	ldi	r24, 0xE2	; 226
    1012:	9a e0       	ldi	r25, 0x0A	; 10
    1014:	90 93 e3 0a 	sts	0x0AE3, r25	; 0x800ae3 <_crow_packet_pool+0x1>
    1018:	80 93 e2 0a 	sts	0x0AE2, r24	; 0x800ae2 <_crow_packet_pool>
    101c:	f8 01       	movw	r30, r16
    101e:	80 91 e2 0a 	lds	r24, 0x0AE2	; 0x800ae2 <_crow_packet_pool>
    1022:	90 91 e3 0a 	lds	r25, 0x0AE3	; 0x800ae3 <_crow_packet_pool+0x1>
    1026:	91 83       	std	Z+1, r25	; 0x01
    1028:	80 83       	st	Z, r24
    102a:	f0 93 e3 0a 	sts	0x0AE3, r31	; 0x800ae3 <_crow_packet_pool+0x1>
    102e:	e0 93 e2 0a 	sts	0x0AE2, r30	; 0x800ae2 <_crow_packet_pool>
    1032:	e0 5c       	subi	r30, 0xC0	; 192
    1034:	ff 4f       	sbci	r31, 0xFF	; 255
    1036:	88 e0       	ldi	r24, 0x08	; 8
    1038:	e0 32       	cpi	r30, 0x20	; 32
    103a:	f8 07       	cpc	r31, r24
    103c:	81 f7       	brne	.-32     	; 0x101e <main+0x3d0>
    103e:	e0 91 16 09 	lds	r30, 0x0916	; 0x800916 <board_led>
    1042:	f0 91 17 09 	lds	r31, 0x0917	; 0x800917 <board_led+0x1>
    1046:	91 81       	ldd	r25, Z+1	; 0x01
    1048:	20 91 18 09 	lds	r18, 0x0918	; 0x800918 <board_led+0x2>
    104c:	92 2b       	or	r25, r18
    104e:	91 83       	std	Z+1, r25	; 0x01
    1050:	82 81       	ldd	r24, Z+2	; 0x02
    1052:	82 2b       	or	r24, r18
    1054:	82 83       	std	Z+2, r24	; 0x02
    1056:	83 ea       	ldi	r24, 0xA3	; 163
    1058:	91 e0       	ldi	r25, 0x01	; 1
    105a:	0e 94 a5 19 	call	0x334a	; 0x334a <debug_print>
    105e:	8c ee       	ldi	r24, 0xEC	; 236
    1060:	92 e0       	ldi	r25, 0x02	; 2
    1062:	0e 94 a5 19 	call	0x334a	; 0x334a <debug_print>
    1066:	0e 94 0b 18 	call	0x3016	; 0x3016 <debug_print_newline.lto_priv.100.lto_priv.109>
    106a:	8d e0       	ldi	r24, 0x0D	; 13
    106c:	99 e0       	ldi	r25, 0x09	; 9
    106e:	90 93 c7 09 	sts	0x09C7, r25	; 0x8009c7 <uartgate+0x8>
    1072:	80 93 c6 09 	sts	0x09C6, r24	; 0x8009c6 <uartgate+0x7>
    1076:	88 ec       	ldi	r24, 0xC8	; 200
    1078:	99 e0       	ldi	r25, 0x09	; 9
    107a:	90 93 cb 09 	sts	0x09CB, r25	; 0x8009cb <uartgate+0xc>
    107e:	80 93 ca 09 	sts	0x09CA, r24	; 0x8009ca <uartgate+0xb>
    1082:	90 93 c9 09 	sts	0x09C9, r25	; 0x8009c9 <uartgate+0xa>
    1086:	80 93 c8 09 	sts	0x09C8, r24	; 0x8009c8 <uartgate+0x9>
    108a:	10 92 cd 09 	sts	0x09CD, r1	; 0x8009cd <uartgate+0xe>
    108e:	10 92 cc 09 	sts	0x09CC, r1	; 0x8009cc <uartgate+0xd>
    1092:	8f eb       	ldi	r24, 0xBF	; 191
    1094:	99 e0       	ldi	r25, 0x09	; 9
    1096:	0e 94 2c 1a 	call	0x3458	; 0x3458 <_ZN13crow_uartgate9init_recvEv>
    109a:	80 e4       	ldi	r24, 0x40	; 64
    109c:	90 e0       	ldi	r25, 0x00	; 0
    109e:	90 93 25 0a 	sts	0x0A25, r25	; 0x800a25 <uartgate+0x66>
    10a2:	80 93 24 0a 	sts	0x0A24, r24	; 0x800a24 <uartgate+0x65>
    10a6:	10 92 21 0a 	sts	0x0A21, r1	; 0x800a21 <uartgate+0x62>
    10aa:	10 92 20 0a 	sts	0x0A20, r1	; 0x800a20 <uartgate+0x61>
    10ae:	10 92 23 0a 	sts	0x0A23, r1	; 0x800a23 <uartgate+0x64>
    10b2:	10 92 22 0a 	sts	0x0A22, r1	; 0x800a22 <uartgate+0x63>
    10b6:	84 ef       	ldi	r24, 0xF4	; 244
    10b8:	80 93 c5 09 	sts	0x09C5, r24	; 0x8009c5 <uartgate+0x6>
    10bc:	e0 91 0b 09 	lds	r30, 0x090B	; 0x80090b <crow_gateways+0x2>
    10c0:	f0 91 0c 09 	lds	r31, 0x090C	; 0x80090c <crow_gateways+0x3>
    10c4:	f0 93 c4 09 	sts	0x09C4, r31	; 0x8009c4 <uartgate+0x5>
    10c8:	e0 93 c3 09 	sts	0x09C3, r30	; 0x8009c3 <uartgate+0x4>
    10cc:	89 e0       	ldi	r24, 0x09	; 9
    10ce:	99 e0       	ldi	r25, 0x09	; 9
    10d0:	90 93 c2 09 	sts	0x09C2, r25	; 0x8009c2 <uartgate+0x3>
    10d4:	80 93 c1 09 	sts	0x09C1, r24	; 0x8009c1 <uartgate+0x2>
    10d8:	81 ec       	ldi	r24, 0xC1	; 193
    10da:	99 e0       	ldi	r25, 0x09	; 9
    10dc:	90 93 0c 09 	sts	0x090C, r25	; 0x80090c <crow_gateways+0x3>
    10e0:	80 93 0b 09 	sts	0x090B, r24	; 0x80090b <crow_gateways+0x2>
    10e4:	91 83       	std	Z+1, r25	; 0x01
    10e6:	80 83       	st	Z, r24
    10e8:	a0 91 c6 09 	lds	r26, 0x09C6	; 0x8009c6 <uartgate+0x7>
    10ec:	b0 91 c7 09 	lds	r27, 0x09C7	; 0x8009c7 <uartgate+0x8>
    10f0:	8f eb       	ldi	r24, 0xBF	; 191
    10f2:	99 e0       	ldi	r25, 0x09	; 9
    10f4:	15 96       	adiw	r26, 0x05	; 5
    10f6:	9c 93       	st	X, r25
    10f8:	8e 93       	st	-X, r24
    10fa:	14 97       	sbiw	r26, 0x04	; 4
    10fc:	81 eb       	ldi	r24, 0xB1	; 177
    10fe:	9b e1       	ldi	r25, 0x1B	; 27
    1100:	13 96       	adiw	r26, 0x03	; 3
    1102:	9c 93       	st	X, r25
    1104:	8e 93       	st	-X, r24
    1106:	12 97       	sbiw	r26, 0x02	; 2
    1108:	ed 91       	ld	r30, X+
    110a:	fc 91       	ld	r31, X
    110c:	11 97       	sbiw	r26, 0x01	; 1
    110e:	04 80       	ldd	r0, Z+4	; 0x04
    1110:	f5 81       	ldd	r31, Z+5	; 0x05
    1112:	e0 2d       	mov	r30, r0
    1114:	60 e0       	ldi	r22, 0x00	; 0
    1116:	cd 01       	movw	r24, r26
    1118:	09 95       	icall
    111a:	10 92 c3 0a 	sts	0x0AC3, r1	; 0x800ac3 <_ZN4crow21user_incoming_handlerE+0x1>
    111e:	10 92 c2 0a 	sts	0x0AC2, r1	; 0x800ac2 <_ZN4crow21user_incoming_handlerE>
    1122:	81 e3       	ldi	r24, 0x31	; 49
    1124:	95 e0       	ldi	r25, 0x05	; 5
    1126:	90 93 08 09 	sts	0x0908, r25	; 0x800908 <_ZN4crow15pubsub_protocolE+0x8>
    112a:	80 93 07 09 	sts	0x0907, r24	; 0x800907 <_ZN4crow15pubsub_protocolE+0x7>
    112e:	e0 91 0b 01 	lds	r30, 0x010B	; 0x80010b <_ZN4crow9protocolsE+0x2>
    1132:	f0 91 0c 01 	lds	r31, 0x010C	; 0x80010c <_ZN4crow9protocolsE+0x3>
    1136:	f0 93 05 09 	sts	0x0905, r31	; 0x800905 <_ZN4crow15pubsub_protocolE+0x5>
    113a:	e0 93 04 09 	sts	0x0904, r30	; 0x800904 <_ZN4crow15pubsub_protocolE+0x4>
    113e:	89 e0       	ldi	r24, 0x09	; 9
    1140:	91 e0       	ldi	r25, 0x01	; 1
    1142:	90 93 03 09 	sts	0x0903, r25	; 0x800903 <_ZN4crow15pubsub_protocolE+0x3>
    1146:	80 93 02 09 	sts	0x0902, r24	; 0x800902 <_ZN4crow15pubsub_protocolE+0x2>
    114a:	82 e0       	ldi	r24, 0x02	; 2
    114c:	99 e0       	ldi	r25, 0x09	; 9
    114e:	90 93 0c 01 	sts	0x010C, r25	; 0x80010c <_ZN4crow9protocolsE+0x3>
    1152:	80 93 0b 01 	sts	0x010B, r24	; 0x80010b <_ZN4crow9protocolsE+0x2>
    1156:	91 83       	std	Z+1, r25	; 0x01
    1158:	80 83       	st	Z, r24
    115a:	78 94       	sei
    115c:	60 e0       	ldi	r22, 0x00	; 0
    115e:	70 e0       	ldi	r23, 0x00	; 0
    1160:	88 ec       	ldi	r24, 0xC8	; 200
    1162:	92 e4       	ldi	r25, 0x42	; 66
    1164:	0e 94 7f 16 	call	0x2cfe	; 0x2cfe <delay>
    1168:	6b e5       	ldi	r22, 0x5B	; 91
    116a:	71 e0       	ldi	r23, 0x01	; 1
    116c:	80 91 bc 0a 	lds	r24, 0x0ABC	; 0x800abc <raddr_len>
    1170:	0e 94 4a 0d 	call	0x1a94	; 0x1a94 <_ZN4crow9subscribeEPKhhPKchjhj.constprop.41>
    1174:	6d e4       	ldi	r22, 0x4D	; 77
    1176:	71 e0       	ldi	r23, 0x01	; 1
    1178:	80 91 bc 0a 	lds	r24, 0x0ABC	; 0x800abc <raddr_len>
    117c:	0e 94 4a 0d 	call	0x1a94	; 0x1a94 <_ZN4crow9subscribeEPKhhPKchjhj.constprop.41>
    1180:	6f e6       	ldi	r22, 0x6F	; 111
    1182:	71 e0       	ldi	r23, 0x01	; 1
    1184:	80 91 bc 0a 	lds	r24, 0x0ABC	; 0x800abc <raddr_len>
    1188:	0e 94 4a 0d 	call	0x1a94	; 0x1a94 <_ZN4crow9subscribeEPKhhPKchjhj.constprop.41>
    118c:	6a e7       	ldi	r22, 0x7A	; 122
    118e:	71 e0       	ldi	r23, 0x01	; 1
    1190:	80 91 bc 0a 	lds	r24, 0x0ABC	; 0x800abc <raddr_len>
    1194:	0e 94 4a 0d 	call	0x1a94	; 0x1a94 <_ZN4crow9subscribeEPKhhPKchjhj.constprop.41>
    1198:	8c e1       	ldi	r24, 0x1C	; 28
    119a:	99 e0       	ldi	r25, 0x09	; 9
    119c:	0e 94 df 17 	call	0x2fbe	; 0x2fbe <schedee_run>
    11a0:	88 e6       	ldi	r24, 0x68	; 104
    11a2:	99 e0       	ldi	r25, 0x09	; 9
    11a4:	10 92 70 09 	sts	0x0970, r1	; 0x800970 <updater_schedee+0x8>
    11a8:	2c e6       	ldi	r18, 0x6C	; 108
    11aa:	39 e0       	ldi	r19, 0x09	; 9
    11ac:	30 93 6f 09 	sts	0x096F, r19	; 0x80096f <updater_schedee+0x7>
    11b0:	20 93 6e 09 	sts	0x096E, r18	; 0x80096e <updater_schedee+0x6>
    11b4:	30 93 6d 09 	sts	0x096D, r19	; 0x80096d <updater_schedee+0x5>
    11b8:	20 93 6c 09 	sts	0x096C, r18	; 0x80096c <updater_schedee+0x4>
    11bc:	10 92 79 09 	sts	0x0979, r1	; 0x800979 <updater_schedee+0x11>
    11c0:	23 e0       	ldi	r18, 0x03	; 3
    11c2:	20 93 7a 09 	sts	0x097A, r18	; 0x80097a <updater_schedee+0x12>
    11c6:	10 92 7b 09 	sts	0x097B, r1	; 0x80097b <updater_schedee+0x13>
    11ca:	20 91 1a 09 	lds	r18, 0x091A	; 0x80091a <__current_schedee>
    11ce:	30 91 1b 09 	lds	r19, 0x091B	; 0x80091b <__current_schedee+0x1>
    11d2:	30 93 6b 09 	sts	0x096B, r19	; 0x80096b <updater_schedee+0x3>
    11d6:	20 93 6a 09 	sts	0x096A, r18	; 0x80096a <updater_schedee+0x2>
    11da:	10 92 7d 09 	sts	0x097D, r1	; 0x80097d <updater_schedee+0x15>
    11de:	10 92 7c 09 	sts	0x097C, r1	; 0x80097c <updater_schedee+0x14>
    11e2:	25 e2       	ldi	r18, 0x25	; 37
    11e4:	e0 e9       	ldi	r30, 0x90	; 144
    11e6:	f9 e0       	ldi	r31, 0x09	; 9
    11e8:	df 01       	movw	r26, r30
    11ea:	1d 92       	st	X+, r1
    11ec:	2a 95       	dec	r18
    11ee:	e9 f7       	brne	.-6      	; 0x11ea <main+0x59c>
    11f0:	20 e8       	ldi	r18, 0x80	; 128
    11f2:	20 93 b4 09 	sts	0x09B4, r18	; 0x8009b4 <updater_schedee+0x4c>
    11f6:	2f e9       	ldi	r18, 0x9F	; 159
    11f8:	36 e0       	ldi	r19, 0x06	; 6
    11fa:	30 93 b3 09 	sts	0x09B3, r19	; 0x8009b3 <updater_schedee+0x4b>
    11fe:	20 93 b2 09 	sts	0x09B2, r18	; 0x8009b2 <updater_schedee+0x4a>
    1202:	28 eb       	ldi	r18, 0xB8	; 184
    1204:	37 e1       	ldi	r19, 0x17	; 23
    1206:	30 93 b1 09 	sts	0x09B1, r19	; 0x8009b1 <updater_schedee+0x49>
    120a:	20 93 b0 09 	sts	0x09B0, r18	; 0x8009b0 <updater_schedee+0x48>
    120e:	9a 83       	std	Y+2, r25	; 0x02
    1210:	89 83       	std	Y+1, r24	; 0x01
    1212:	80 93 a8 09 	sts	0x09A8, r24	; 0x8009a8 <updater_schedee+0x40>
    1216:	8a 81       	ldd	r24, Y+2	; 0x02
    1218:	80 93 a9 09 	sts	0x09A9, r24	; 0x8009a9 <updater_schedee+0x41>
    121c:	80 e2       	ldi	r24, 0x20	; 32
    121e:	96 e0       	ldi	r25, 0x06	; 6
    1220:	90 93 ba 09 	sts	0x09BA, r25	; 0x8009ba <updater_schedee+0x52>
    1224:	80 93 b9 09 	sts	0x09B9, r24	; 0x8009b9 <updater_schedee+0x51>
    1228:	80 e8       	ldi	r24, 0x80	; 128
    122a:	90 e0       	ldi	r25, 0x00	; 0
    122c:	90 93 bc 09 	sts	0x09BC, r25	; 0x8009bc <updater_schedee+0x54>
    1230:	80 93 bb 09 	sts	0x09BB, r24	; 0x8009bb <updater_schedee+0x53>
    1234:	8c ee       	ldi	r24, 0xEC	; 236
    1236:	9f e0       	ldi	r25, 0x0F	; 15
    1238:	90 93 b6 09 	sts	0x09B6, r25	; 0x8009b6 <updater_schedee+0x4e>
    123c:	80 93 b5 09 	sts	0x09B5, r24	; 0x8009b5 <updater_schedee+0x4d>
    1240:	10 92 b8 09 	sts	0x09B8, r1	; 0x8009b8 <updater_schedee+0x50>
    1244:	10 92 b7 09 	sts	0x09B7, r1	; 0x8009b7 <updater_schedee+0x4f>
    1248:	80 91 7b 09 	lds	r24, 0x097B	; 0x80097b <updater_schedee+0x13>
    124c:	84 60       	ori	r24, 0x04	; 4
    124e:	82 60       	ori	r24, 0x02	; 2
    1250:	80 93 7b 09 	sts	0x097B, r24	; 0x80097b <updater_schedee+0x13>
    1254:	88 e6       	ldi	r24, 0x68	; 104
    1256:	99 e0       	ldi	r25, 0x09	; 9
    1258:	0e 94 df 17 	call	0x2fbe	; 0x2fbe <schedee_run>
    125c:	0e 94 88 11 	call	0x2310	; 0x2310 <__schedule__>

00001260 <_ZN5genos3avr5timerIhP11timer8_regsE7value16Ev>:
    1260:	dc 01       	movw	r26, r24
    1262:	12 96       	adiw	r26, 0x02	; 2
    1264:	ed 91       	ld	r30, X+
    1266:	fc 91       	ld	r31, X
    1268:	13 97       	sbiw	r26, 0x03	; 3
    126a:	82 81       	ldd	r24, Z+2	; 0x02
    126c:	90 e0       	ldi	r25, 0x00	; 0
    126e:	08 95       	ret

00001270 <_ZN5genos3avr5timerIhP11timer8_regsE4typeEv>:
    1270:	88 e0       	ldi	r24, 0x08	; 8
    1272:	08 95       	ret

00001274 <_ZN5genos3avr5timerIhP11timer8_regsE15set_ovf_handlerEPFvPvES5_>:
    1274:	dc 01       	movw	r26, r24
    1276:	14 96       	adiw	r26, 0x04	; 4
    1278:	ec 91       	ld	r30, X
    127a:	b6 e0       	ldi	r27, 0x06	; 6
    127c:	eb 9f       	mul	r30, r27
    127e:	f0 01       	movw	r30, r0
    1280:	11 24       	eor	r1, r1
    1282:	e4 5d       	subi	r30, 0xD4	; 212
    1284:	f7 4f       	sbci	r31, 0xF7	; 247
    1286:	71 83       	std	Z+1, r23	; 0x01
    1288:	60 83       	st	Z, r22
    128a:	53 83       	std	Z+3, r21	; 0x03
    128c:	42 83       	std	Z+2, r20	; 0x02
    128e:	08 95       	ret

00001290 <_ZN5genos3avr5timerIhP11timer8_regsE14irq_ovf_enableEb>:
    1290:	dc 01       	movw	r26, r24
    1292:	18 96       	adiw	r26, 0x08	; 8
    1294:	ed 91       	ld	r30, X+
    1296:	fc 91       	ld	r31, X
    1298:	19 97       	sbiw	r26, 0x09	; 9
    129a:	80 81       	ld	r24, Z
    129c:	8e 7f       	andi	r24, 0xFE	; 254
    129e:	68 2b       	or	r22, r24
    12a0:	60 83       	st	Z, r22
    12a2:	08 95       	ret

000012a4 <_ZN5genos3avr5timerIhP11timer8_regsE11set_divcodeEh>:
    12a4:	dc 01       	movw	r26, r24
    12a6:	12 96       	adiw	r26, 0x02	; 2
    12a8:	ed 91       	ld	r30, X+
    12aa:	fc 91       	ld	r31, X
    12ac:	13 97       	sbiw	r26, 0x03	; 3
    12ae:	81 81       	ldd	r24, Z+1	; 0x01
    12b0:	88 7f       	andi	r24, 0xF8	; 248
    12b2:	67 70       	andi	r22, 0x07	; 7
    12b4:	68 2b       	or	r22, r24
    12b6:	61 83       	std	Z+1, r22	; 0x01
    12b8:	80 e0       	ldi	r24, 0x00	; 0
    12ba:	90 e0       	ldi	r25, 0x00	; 0
    12bc:	08 95       	ret

000012be <_ZN5genos3avr5timerIhP11timer8_regsE11set_dividerEj>:
    12be:	cf 93       	push	r28
    12c0:	df 93       	push	r29
    12c2:	ec 01       	movw	r28, r24
    12c4:	cb 01       	movw	r24, r22
    12c6:	0e 94 40 16 	call	0x2c80	; 0x2c80 <_ZN5genos3avrL15tc_divider_codeEj.lto_priv.104.lto_priv.110>
    12ca:	ea 81       	ldd	r30, Y+2	; 0x02
    12cc:	fb 81       	ldd	r31, Y+3	; 0x03
    12ce:	91 81       	ldd	r25, Z+1	; 0x01
    12d0:	98 7f       	andi	r25, 0xF8	; 248
    12d2:	87 70       	andi	r24, 0x07	; 7
    12d4:	89 2b       	or	r24, r25
    12d6:	81 83       	std	Z+1, r24	; 0x01
    12d8:	80 e0       	ldi	r24, 0x00	; 0
    12da:	90 e0       	ldi	r25, 0x00	; 0
    12dc:	df 91       	pop	r29
    12de:	cf 91       	pop	r28
    12e0:	08 95       	ret

000012e2 <_GLOBAL__I_65535_0_main.o.5765>:
    12e2:	cf 92       	push	r12
    12e4:	df 92       	push	r13
    12e6:	ef 92       	push	r14
    12e8:	ff 92       	push	r15
    12ea:	0f 93       	push	r16
    12ec:	1f 93       	push	r17
    12ee:	cf 93       	push	r28
    12f0:	df 93       	push	r29
    12f2:	80 91 29 01 	lds	r24, 0x0129	; 0x800129 <crow_outters+0x4>
    12f6:	90 91 2a 01 	lds	r25, 0x012A	; 0x80012a <crow_outters+0x5>
    12fa:	a0 91 2b 01 	lds	r26, 0x012B	; 0x80012b <crow_outters+0x6>
    12fe:	b0 91 2c 01 	lds	r27, 0x012C	; 0x80012c <crow_outters+0x7>
    1302:	24 e4       	ldi	r18, 0x44	; 68
    1304:	30 e0       	ldi	r19, 0x00	; 0
    1306:	30 93 eb 08 	sts	0x08EB, r19	; 0x8008eb <_ZN5genos3avr6timer0E+0x3>
    130a:	20 93 ea 08 	sts	0x08EA, r18	; 0x8008ea <_ZN5genos3avr6timer0E+0x2>
    130e:	80 93 ec 08 	sts	0x08EC, r24	; 0x8008ec <_ZN5genos3avr6timer0E+0x4>
    1312:	90 93 ed 08 	sts	0x08ED, r25	; 0x8008ed <_ZN5genos3avr6timer0E+0x5>
    1316:	a0 93 ee 08 	sts	0x08EE, r26	; 0x8008ee <_ZN5genos3avr6timer0E+0x6>
    131a:	b0 93 ef 08 	sts	0x08EF, r27	; 0x8008ef <_ZN5genos3avr6timer0E+0x7>
    131e:	8e e6       	ldi	r24, 0x6E	; 110
    1320:	90 e0       	ldi	r25, 0x00	; 0
    1322:	90 93 f1 08 	sts	0x08F1, r25	; 0x8008f1 <_ZN5genos3avr6timer0E+0x9>
    1326:	80 93 f0 08 	sts	0x08F0, r24	; 0x8008f0 <_ZN5genos3avr6timer0E+0x8>
    132a:	2d e5       	ldi	r18, 0x5D	; 93
    132c:	33 e0       	ldi	r19, 0x03	; 3
    132e:	30 93 e9 08 	sts	0x08E9, r19	; 0x8008e9 <_ZN5genos3avr6timer0E+0x1>
    1332:	20 93 e8 08 	sts	0x08E8, r18	; 0x8008e8 <_ZN5genos3avr6timer0E>
    1336:	80 91 2d 01 	lds	r24, 0x012D	; 0x80012d <crow_outters+0x8>
    133a:	90 91 2e 01 	lds	r25, 0x012E	; 0x80012e <crow_outters+0x9>
    133e:	a0 91 2f 01 	lds	r26, 0x012F	; 0x80012f <crow_outters+0xa>
    1342:	b0 91 30 01 	lds	r27, 0x0130	; 0x800130 <crow_outters+0xb>
    1346:	60 e8       	ldi	r22, 0x80	; 128
    1348:	70 e0       	ldi	r23, 0x00	; 0
    134a:	70 93 e1 08 	sts	0x08E1, r23	; 0x8008e1 <_ZN5genos3avr6timer1E+0x3>
    134e:	60 93 e0 08 	sts	0x08E0, r22	; 0x8008e0 <_ZN5genos3avr6timer1E+0x2>
    1352:	80 93 e2 08 	sts	0x08E2, r24	; 0x8008e2 <_ZN5genos3avr6timer1E+0x4>
    1356:	90 93 e3 08 	sts	0x08E3, r25	; 0x8008e3 <_ZN5genos3avr6timer1E+0x5>
    135a:	a0 93 e4 08 	sts	0x08E4, r26	; 0x8008e4 <_ZN5genos3avr6timer1E+0x6>
    135e:	b0 93 e5 08 	sts	0x08E5, r27	; 0x8008e5 <_ZN5genos3avr6timer1E+0x7>
    1362:	8f e6       	ldi	r24, 0x6F	; 111
    1364:	90 e0       	ldi	r25, 0x00	; 0
    1366:	90 93 e7 08 	sts	0x08E7, r25	; 0x8008e7 <_ZN5genos3avr6timer1E+0x9>
    136a:	80 93 e6 08 	sts	0x08E6, r24	; 0x8008e6 <_ZN5genos3avr6timer1E+0x8>
    136e:	8d e4       	ldi	r24, 0x4D	; 77
    1370:	93 e0       	ldi	r25, 0x03	; 3
    1372:	90 93 df 08 	sts	0x08DF, r25	; 0x8008df <_ZN5genos3avr6timer1E+0x1>
    1376:	80 93 de 08 	sts	0x08DE, r24	; 0x8008de <_ZN5genos3avr6timer1E>
    137a:	80 91 31 01 	lds	r24, 0x0131	; 0x800131 <crow_outters+0xc>
    137e:	90 91 32 01 	lds	r25, 0x0132	; 0x800132 <crow_outters+0xd>
    1382:	a0 91 33 01 	lds	r26, 0x0133	; 0x800133 <crow_outters+0xe>
    1386:	b0 91 34 01 	lds	r27, 0x0134	; 0x800134 <crow_outters+0xf>
    138a:	40 eb       	ldi	r20, 0xB0	; 176
    138c:	50 e0       	ldi	r21, 0x00	; 0
    138e:	50 93 d7 08 	sts	0x08D7, r21	; 0x8008d7 <_ZN5genos3avr6timer2E+0x3>
    1392:	40 93 d6 08 	sts	0x08D6, r20	; 0x8008d6 <_ZN5genos3avr6timer2E+0x2>
    1396:	80 93 d8 08 	sts	0x08D8, r24	; 0x8008d8 <_ZN5genos3avr6timer2E+0x4>
    139a:	90 93 d9 08 	sts	0x08D9, r25	; 0x8008d9 <_ZN5genos3avr6timer2E+0x5>
    139e:	a0 93 da 08 	sts	0x08DA, r26	; 0x8008da <_ZN5genos3avr6timer2E+0x6>
    13a2:	b0 93 db 08 	sts	0x08DB, r27	; 0x8008db <_ZN5genos3avr6timer2E+0x7>
    13a6:	80 e7       	ldi	r24, 0x70	; 112
    13a8:	90 e0       	ldi	r25, 0x00	; 0
    13aa:	90 93 dd 08 	sts	0x08DD, r25	; 0x8008dd <_ZN5genos3avr6timer2E+0x9>
    13ae:	80 93 dc 08 	sts	0x08DC, r24	; 0x8008dc <_ZN5genos3avr6timer2E+0x8>
    13b2:	30 93 d5 08 	sts	0x08D5, r19	; 0x8008d5 <_ZN5genos3avr6timer2E+0x1>
    13b6:	20 93 d4 08 	sts	0x08D4, r18	; 0x8008d4 <_ZN5genos3avr6timer2E>
    13ba:	83 e1       	ldi	r24, 0x13	; 19
    13bc:	93 e0       	ldi	r25, 0x03	; 3
    13be:	90 93 f9 08 	sts	0x08F9, r25	; 0x8008f9 <_ZN5genos7devmngrE+0x7>
    13c2:	80 93 f8 08 	sts	0x08F8, r24	; 0x8008f8 <_ZN5genos7devmngrE+0x6>
    13c6:	e0 91 05 01 	lds	r30, 0x0105	; 0x800105 <_ZN5genos7ns_listE>
    13ca:	f0 91 06 01 	lds	r31, 0x0106	; 0x800106 <_ZN5genos7ns_listE+0x1>
    13ce:	85 e0       	ldi	r24, 0x05	; 5
    13d0:	91 e0       	ldi	r25, 0x01	; 1
    13d2:	90 93 f7 08 	sts	0x08F7, r25	; 0x8008f7 <_ZN5genos7devmngrE+0x5>
    13d6:	80 93 f6 08 	sts	0x08F6, r24	; 0x8008f6 <_ZN5genos7devmngrE+0x4>
    13da:	f0 93 f5 08 	sts	0x08F5, r31	; 0x8008f5 <_ZN5genos7devmngrE+0x3>
    13de:	e0 93 f4 08 	sts	0x08F4, r30	; 0x8008f4 <_ZN5genos7devmngrE+0x2>
    13e2:	84 ef       	ldi	r24, 0xF4	; 244
    13e4:	98 e0       	ldi	r25, 0x08	; 8
    13e6:	93 83       	std	Z+3, r25	; 0x03
    13e8:	82 83       	std	Z+2, r24	; 0x02
    13ea:	90 93 06 01 	sts	0x0106, r25	; 0x800106 <_ZN5genos7ns_listE+0x1>
    13ee:	80 93 05 01 	sts	0x0105, r24	; 0x800105 <_ZN5genos7ns_listE>
    13f2:	8c ef       	ldi	r24, 0xFC	; 252
    13f4:	98 e0       	ldi	r25, 0x08	; 8
    13f6:	90 93 fd 08 	sts	0x08FD, r25	; 0x8008fd <_ZN5genos7devmngrE+0xb>
    13fa:	80 93 fc 08 	sts	0x08FC, r24	; 0x8008fc <_ZN5genos7devmngrE+0xa>
    13fe:	90 93 ff 08 	sts	0x08FF, r25	; 0x8008ff <_ZN5genos7devmngrE+0xd>
    1402:	80 93 fe 08 	sts	0x08FE, r24	; 0x8008fe <_ZN5genos7devmngrE+0xc>
    1406:	8d e6       	ldi	r24, 0x6D	; 109
    1408:	93 e0       	ldi	r25, 0x03	; 3
    140a:	90 93 f3 08 	sts	0x08F3, r25	; 0x8008f3 <_ZN5genos7devmngrE+0x1>
    140e:	80 93 f2 08 	sts	0x08F2, r24	; 0x8008f2 <_ZN5genos7devmngrE>
    1412:	87 e7       	ldi	r24, 0x77	; 119
    1414:	93 e0       	ldi	r25, 0x03	; 3
    1416:	90 93 fb 08 	sts	0x08FB, r25	; 0x8008fb <_ZN5genos7devmngrE+0x9>
    141a:	80 93 fa 08 	sts	0x08FA, r24	; 0x8008fa <_ZN5genos7devmngrE+0x8>
    141e:	82 e0       	ldi	r24, 0x02	; 2
    1420:	99 e0       	ldi	r25, 0x09	; 9
    1422:	90 93 03 09 	sts	0x0903, r25	; 0x800903 <_ZN4crow15pubsub_protocolE+0x3>
    1426:	80 93 02 09 	sts	0x0902, r24	; 0x800902 <_ZN4crow15pubsub_protocolE+0x2>
    142a:	90 93 05 09 	sts	0x0905, r25	; 0x800905 <_ZN4crow15pubsub_protocolE+0x5>
    142e:	80 93 04 09 	sts	0x0904, r24	; 0x800904 <_ZN4crow15pubsub_protocolE+0x4>
    1432:	84 e0       	ldi	r24, 0x04	; 4
    1434:	80 93 06 09 	sts	0x0906, r24	; 0x800906 <_ZN4crow15pubsub_protocolE+0x6>
    1438:	87 e8       	ldi	r24, 0x87	; 135
    143a:	93 e0       	ldi	r25, 0x03	; 3
    143c:	90 93 01 09 	sts	0x0901, r25	; 0x800901 <_ZN4crow15pubsub_protocolE+0x1>
    1440:	80 93 00 09 	sts	0x0900, r24	; 0x800900 <_ZN4crow15pubsub_protocolE>
    1444:	89 e0       	ldi	r24, 0x09	; 9
    1446:	99 e0       	ldi	r25, 0x09	; 9
    1448:	90 93 0c 09 	sts	0x090C, r25	; 0x80090c <crow_gateways+0x3>
    144c:	80 93 0b 09 	sts	0x090B, r24	; 0x80090b <crow_gateways+0x2>
    1450:	90 93 0a 09 	sts	0x090A, r25	; 0x80090a <crow_gateways+0x1>
    1454:	80 93 09 09 	sts	0x0909, r24	; 0x800909 <crow_gateways>
    1458:	23 e2       	ldi	r18, 0x23	; 35
    145a:	30 e0       	ldi	r19, 0x00	; 0
    145c:	30 93 17 09 	sts	0x0917, r19	; 0x800917 <board_led+0x1>
    1460:	20 93 16 09 	sts	0x0916, r18	; 0x800916 <board_led>
    1464:	40 e2       	ldi	r20, 0x20	; 32
    1466:	50 e0       	ldi	r21, 0x00	; 0
    1468:	50 93 19 09 	sts	0x0919, r21	; 0x800919 <board_led+0x3>
    146c:	40 93 18 09 	sts	0x0918, r20	; 0x800918 <board_led+0x2>
    1470:	8f e8       	ldi	r24, 0x8F	; 143
    1472:	93 e0       	ldi	r25, 0x03	; 3
    1474:	90 93 0e 09 	sts	0x090E, r25	; 0x80090e <usart0+0x1>
    1478:	80 93 0d 09 	sts	0x090D, r24	; 0x80090d <usart0>
    147c:	80 ec       	ldi	r24, 0xC0	; 192
    147e:	90 e0       	ldi	r25, 0x00	; 0
    1480:	90 93 14 09 	sts	0x0914, r25	; 0x800914 <usart0+0x7>
    1484:	80 93 13 09 	sts	0x0913, r24	; 0x800913 <usart0+0x6>
    1488:	81 e1       	ldi	r24, 0x11	; 17
    148a:	80 93 15 09 	sts	0x0915, r24	; 0x800915 <usart0+0x8>
    148e:	89 e2       	ldi	r24, 0x29	; 41
    1490:	90 e0       	ldi	r25, 0x00	; 0
    1492:	90 93 7c 0a 	sts	0x0A7C, r25	; 0x800a7c <_ZL6PINOUT.lto_priv.136+0x1>
    1496:	80 93 7b 0a 	sts	0x0A7B, r24	; 0x800a7b <_ZL6PINOUT.lto_priv.136>
    149a:	ee 24       	eor	r14, r14
    149c:	e3 94       	inc	r14
    149e:	f1 2c       	mov	r15, r1
    14a0:	f0 92 7e 0a 	sts	0x0A7E, r15	; 0x800a7e <_ZL6PINOUT.lto_priv.136+0x3>
    14a4:	e0 92 7d 0a 	sts	0x0A7D, r14	; 0x800a7d <_ZL6PINOUT.lto_priv.136+0x2>
    14a8:	90 93 80 0a 	sts	0x0A80, r25	; 0x800a80 <_ZL6PINOUT.lto_priv.136+0x5>
    14ac:	80 93 7f 0a 	sts	0x0A7F, r24	; 0x800a7f <_ZL6PINOUT.lto_priv.136+0x4>
    14b0:	02 e0       	ldi	r16, 0x02	; 2
    14b2:	10 e0       	ldi	r17, 0x00	; 0
    14b4:	10 93 82 0a 	sts	0x0A82, r17	; 0x800a82 <_ZL6PINOUT.lto_priv.136+0x7>
    14b8:	00 93 81 0a 	sts	0x0A81, r16	; 0x800a81 <_ZL6PINOUT.lto_priv.136+0x6>
    14bc:	90 93 84 0a 	sts	0x0A84, r25	; 0x800a84 <_ZL6PINOUT.lto_priv.136+0x9>
    14c0:	80 93 83 0a 	sts	0x0A83, r24	; 0x800a83 <_ZL6PINOUT.lto_priv.136+0x8>
    14c4:	c4 e0       	ldi	r28, 0x04	; 4
    14c6:	d0 e0       	ldi	r29, 0x00	; 0
    14c8:	d0 93 86 0a 	sts	0x0A86, r29	; 0x800a86 <_ZL6PINOUT.lto_priv.136+0xb>
    14cc:	c0 93 85 0a 	sts	0x0A85, r28	; 0x800a85 <_ZL6PINOUT.lto_priv.136+0xa>
    14d0:	90 93 88 0a 	sts	0x0A88, r25	; 0x800a88 <_ZL6PINOUT.lto_priv.136+0xd>
    14d4:	80 93 87 0a 	sts	0x0A87, r24	; 0x800a87 <_ZL6PINOUT.lto_priv.136+0xc>
    14d8:	a8 e0       	ldi	r26, 0x08	; 8
    14da:	b0 e0       	ldi	r27, 0x00	; 0
    14dc:	b0 93 8a 0a 	sts	0x0A8A, r27	; 0x800a8a <_ZL6PINOUT.lto_priv.136+0xf>
    14e0:	a0 93 89 0a 	sts	0x0A89, r26	; 0x800a89 <_ZL6PINOUT.lto_priv.136+0xe>
    14e4:	90 93 8c 0a 	sts	0x0A8C, r25	; 0x800a8c <_ZL6PINOUT.lto_priv.136+0x11>
    14e8:	80 93 8b 0a 	sts	0x0A8B, r24	; 0x800a8b <_ZL6PINOUT.lto_priv.136+0x10>
    14ec:	e0 e1       	ldi	r30, 0x10	; 16
    14ee:	f0 e0       	ldi	r31, 0x00	; 0
    14f0:	f0 93 8e 0a 	sts	0x0A8E, r31	; 0x800a8e <_ZL6PINOUT.lto_priv.136+0x13>
    14f4:	e0 93 8d 0a 	sts	0x0A8D, r30	; 0x800a8d <_ZL6PINOUT.lto_priv.136+0x12>
    14f8:	90 93 90 0a 	sts	0x0A90, r25	; 0x800a90 <_ZL6PINOUT.lto_priv.136+0x15>
    14fc:	80 93 8f 0a 	sts	0x0A8F, r24	; 0x800a8f <_ZL6PINOUT.lto_priv.136+0x14>
    1500:	50 93 92 0a 	sts	0x0A92, r21	; 0x800a92 <_ZL6PINOUT.lto_priv.136+0x17>
    1504:	40 93 91 0a 	sts	0x0A91, r20	; 0x800a91 <_ZL6PINOUT.lto_priv.136+0x16>
    1508:	90 93 94 0a 	sts	0x0A94, r25	; 0x800a94 <_ZL6PINOUT.lto_priv.136+0x19>
    150c:	80 93 93 0a 	sts	0x0A93, r24	; 0x800a93 <_ZL6PINOUT.lto_priv.136+0x18>
    1510:	68 94       	set
    1512:	cc 24       	eor	r12, r12
    1514:	c6 f8       	bld	r12, 6
    1516:	d1 2c       	mov	r13, r1
    1518:	d0 92 96 0a 	sts	0x0A96, r13	; 0x800a96 <_ZL6PINOUT.lto_priv.136+0x1b>
    151c:	c0 92 95 0a 	sts	0x0A95, r12	; 0x800a95 <_ZL6PINOUT.lto_priv.136+0x1a>
    1520:	90 93 98 0a 	sts	0x0A98, r25	; 0x800a98 <_ZL6PINOUT.lto_priv.136+0x1d>
    1524:	80 93 97 0a 	sts	0x0A97, r24	; 0x800a97 <_ZL6PINOUT.lto_priv.136+0x1c>
    1528:	70 93 9a 0a 	sts	0x0A9A, r23	; 0x800a9a <_ZL6PINOUT.lto_priv.136+0x1f>
    152c:	60 93 99 0a 	sts	0x0A99, r22	; 0x800a99 <_ZL6PINOUT.lto_priv.136+0x1e>
    1530:	30 93 9c 0a 	sts	0x0A9C, r19	; 0x800a9c <_ZL6PINOUT.lto_priv.136+0x21>
    1534:	20 93 9b 0a 	sts	0x0A9B, r18	; 0x800a9b <_ZL6PINOUT.lto_priv.136+0x20>
    1538:	f0 92 9e 0a 	sts	0x0A9E, r15	; 0x800a9e <_ZL6PINOUT.lto_priv.136+0x23>
    153c:	e0 92 9d 0a 	sts	0x0A9D, r14	; 0x800a9d <_ZL6PINOUT.lto_priv.136+0x22>
    1540:	30 93 a0 0a 	sts	0x0AA0, r19	; 0x800aa0 <_ZL6PINOUT.lto_priv.136+0x25>
    1544:	20 93 9f 0a 	sts	0x0A9F, r18	; 0x800a9f <_ZL6PINOUT.lto_priv.136+0x24>
    1548:	10 93 a2 0a 	sts	0x0AA2, r17	; 0x800aa2 <_ZL6PINOUT.lto_priv.136+0x27>
    154c:	00 93 a1 0a 	sts	0x0AA1, r16	; 0x800aa1 <_ZL6PINOUT.lto_priv.136+0x26>
    1550:	30 93 a4 0a 	sts	0x0AA4, r19	; 0x800aa4 <_ZL6PINOUT.lto_priv.136+0x29>
    1554:	20 93 a3 0a 	sts	0x0AA3, r18	; 0x800aa3 <_ZL6PINOUT.lto_priv.136+0x28>
    1558:	d0 93 a6 0a 	sts	0x0AA6, r29	; 0x800aa6 <_ZL6PINOUT.lto_priv.136+0x2b>
    155c:	c0 93 a5 0a 	sts	0x0AA5, r28	; 0x800aa5 <_ZL6PINOUT.lto_priv.136+0x2a>
    1560:	30 93 a8 0a 	sts	0x0AA8, r19	; 0x800aa8 <_ZL6PINOUT.lto_priv.136+0x2d>
    1564:	20 93 a7 0a 	sts	0x0AA7, r18	; 0x800aa7 <_ZL6PINOUT.lto_priv.136+0x2c>
    1568:	b0 93 aa 0a 	sts	0x0AAA, r27	; 0x800aaa <_ZL6PINOUT.lto_priv.136+0x2f>
    156c:	a0 93 a9 0a 	sts	0x0AA9, r26	; 0x800aa9 <_ZL6PINOUT.lto_priv.136+0x2e>
    1570:	30 93 ac 0a 	sts	0x0AAC, r19	; 0x800aac <_ZL6PINOUT.lto_priv.136+0x31>
    1574:	20 93 ab 0a 	sts	0x0AAB, r18	; 0x800aab <_ZL6PINOUT.lto_priv.136+0x30>
    1578:	f0 93 ae 0a 	sts	0x0AAE, r31	; 0x800aae <_ZL6PINOUT.lto_priv.136+0x33>
    157c:	e0 93 ad 0a 	sts	0x0AAD, r30	; 0x800aad <_ZL6PINOUT.lto_priv.136+0x32>
    1580:	30 93 b0 0a 	sts	0x0AB0, r19	; 0x800ab0 <_ZL6PINOUT.lto_priv.136+0x35>
    1584:	20 93 af 0a 	sts	0x0AAF, r18	; 0x800aaf <_ZL6PINOUT.lto_priv.136+0x34>
    1588:	50 93 b2 0a 	sts	0x0AB2, r21	; 0x800ab2 <_ZL6PINOUT.lto_priv.136+0x37>
    158c:	40 93 b1 0a 	sts	0x0AB1, r20	; 0x800ab1 <_ZL6PINOUT.lto_priv.136+0x36>
    1590:	89 e6       	ldi	r24, 0x69	; 105
    1592:	9a e0       	ldi	r25, 0x0A	; 10
    1594:	90 93 6a 0a 	sts	0x0A6A, r25	; 0x800a6a <i2c+0x4>
    1598:	80 93 69 0a 	sts	0x0A69, r24	; 0x800a69 <i2c+0x3>
    159c:	90 93 6c 0a 	sts	0x0A6C, r25	; 0x800a6c <i2c+0x6>
    15a0:	80 93 6b 0a 	sts	0x0A6B, r24	; 0x800a6b <i2c+0x5>
    15a4:	85 eb       	ldi	r24, 0xB5	; 181
    15a6:	93 e0       	ldi	r25, 0x03	; 3
    15a8:	90 93 67 0a 	sts	0x0A67, r25	; 0x800a67 <i2c+0x1>
    15ac:	80 93 66 0a 	sts	0x0A66, r24	; 0x800a66 <i2c>
    15b0:	10 92 6f 0a 	sts	0x0A6F, r1	; 0x800a6f <i2c+0x9>
    15b4:	10 92 6e 0a 	sts	0x0A6E, r1	; 0x800a6e <i2c+0x8>
    15b8:	10 92 71 0a 	sts	0x0A71, r1	; 0x800a71 <i2c+0xb>
    15bc:	10 92 70 0a 	sts	0x0A70, r1	; 0x800a70 <i2c+0xa>
    15c0:	10 92 73 0a 	sts	0x0A73, r1	; 0x800a73 <i2c+0xd>
    15c4:	10 92 72 0a 	sts	0x0A72, r1	; 0x800a72 <i2c+0xc>
    15c8:	10 92 75 0a 	sts	0x0A75, r1	; 0x800a75 <i2c+0xf>
    15cc:	10 92 74 0a 	sts	0x0A74, r1	; 0x800a74 <i2c+0xe>
    15d0:	10 92 7a 0a 	sts	0x0A7A, r1	; 0x800a7a <i2c+0x14>
    15d4:	e6 e2       	ldi	r30, 0x26	; 38
    15d6:	fa e0       	ldi	r31, 0x0A	; 10
    15d8:	8e e3       	ldi	r24, 0x3E	; 62
    15da:	9a e0       	ldi	r25, 0x0A	; 10
    15dc:	11 86       	std	Z+9, r1	; 0x09
    15de:	10 86       	std	Z+8, r1	; 0x08
    15e0:	12 86       	std	Z+10, r1	; 0x0a
    15e2:	17 82       	std	Z+7, r1	; 0x07
    15e4:	16 82       	std	Z+6, r1	; 0x06
    15e6:	15 82       	std	Z+5, r1	; 0x05
    15e8:	36 96       	adiw	r30, 0x06	; 6
    15ea:	8e 17       	cp	r24, r30
    15ec:	9f 07       	cpc	r25, r31
    15ee:	b1 f7       	brne	.-20     	; 0x15dc <_GLOBAL__I_65535_0_main.o.5765+0x2fa>
    15f0:	10 92 4f 0a 	sts	0x0A4F, r1	; 0x800a4f <mshield+0x29>
    15f4:	10 92 52 0a 	sts	0x0A52, r1	; 0x800a52 <mshield+0x2c>
    15f8:	10 92 4e 0a 	sts	0x0A4E, r1	; 0x800a4e <mshield+0x28>
    15fc:	10 92 4d 0a 	sts	0x0A4D, r1	; 0x800a4d <mshield+0x27>
    1600:	10 92 5f 0a 	sts	0x0A5F, r1	; 0x800a5f <mshield+0x39>
    1604:	10 92 62 0a 	sts	0x0A62, r1	; 0x800a62 <mshield+0x3c>
    1608:	10 92 5e 0a 	sts	0x0A5E, r1	; 0x800a5e <mshield+0x38>
    160c:	10 92 5d 0a 	sts	0x0A5D, r1	; 0x800a5d <mshield+0x37>
    1610:	80 e6       	ldi	r24, 0x60	; 96
    1612:	80 93 28 0a 	sts	0x0A28, r24	; 0x800a28 <mshield+0x2>
    1616:	80 93 65 0a 	sts	0x0A65, r24	; 0x800a65 <mshield+0x3f>
    161a:	8d ea       	ldi	r24, 0xAD	; 173
    161c:	93 e0       	ldi	r25, 0x03	; 3
    161e:	90 93 c0 09 	sts	0x09C0, r25	; 0x8009c0 <uartgate+0x1>
    1622:	80 93 bf 09 	sts	0x09BF, r24	; 0x8009bf <uartgate>
    1626:	88 ec       	ldi	r24, 0xC8	; 200
    1628:	99 e0       	ldi	r25, 0x09	; 9
    162a:	90 93 c9 09 	sts	0x09C9, r25	; 0x8009c9 <uartgate+0xa>
    162e:	80 93 c8 09 	sts	0x09C8, r24	; 0x8009c8 <uartgate+0x9>
    1632:	90 93 cb 09 	sts	0x09CB, r25	; 0x8009cb <uartgate+0xc>
    1636:	80 93 ca 09 	sts	0x09CA, r24	; 0x8009ca <uartgate+0xb>
    163a:	10 92 cd 09 	sts	0x09CD, r1	; 0x8009cd <uartgate+0xe>
    163e:	10 92 cc 09 	sts	0x09CC, r1	; 0x8009cc <uartgate+0xd>
    1642:	10 92 cf 09 	sts	0x09CF, r1	; 0x8009cf <uartgate+0x10>
    1646:	10 92 ce 09 	sts	0x09CE, r1	; 0x8009ce <uartgate+0xf>
    164a:	10 92 d0 09 	sts	0x09D0, r1	; 0x8009d0 <uartgate+0x11>
    164e:	10 92 d1 09 	sts	0x09D1, r1	; 0x8009d1 <uartgate+0x12>
    1652:	10 92 d3 09 	sts	0x09D3, r1	; 0x8009d3 <uartgate+0x14>
    1656:	10 92 d2 09 	sts	0x09D2, r1	; 0x8009d2 <uartgate+0x13>
    165a:	10 92 d5 09 	sts	0x09D5, r1	; 0x8009d5 <uartgate+0x16>
    165e:	10 92 d4 09 	sts	0x09D4, r1	; 0x8009d4 <uartgate+0x15>
    1662:	90 e1       	ldi	r25, 0x10	; 16
    1664:	ee e7       	ldi	r30, 0x7E	; 126
    1666:	f9 e0       	ldi	r31, 0x09	; 9
    1668:	df 01       	movw	r26, r30
    166a:	89 2f       	mov	r24, r25
    166c:	1d 92       	st	X+, r1
    166e:	8a 95       	dec	r24
    1670:	e9 f7       	brne	.-6      	; 0x166c <_GLOBAL__I_65535_0_main.o.5765+0x38a>
    1672:	10 92 8f 09 	sts	0x098F, r1	; 0x80098f <updater_schedee+0x27>
    1676:	10 92 8e 09 	sts	0x098E, r1	; 0x80098e <updater_schedee+0x26>
    167a:	21 ea       	ldi	r18, 0xA1	; 161
    167c:	33 e0       	ldi	r19, 0x03	; 3
    167e:	30 93 69 09 	sts	0x0969, r19	; 0x800969 <updater_schedee+0x1>
    1682:	20 93 68 09 	sts	0x0968, r18	; 0x800968 <updater_schedee>
    1686:	8f ef       	ldi	r24, 0xFF	; 255
    1688:	80 93 67 09 	sts	0x0967, r24	; 0x800967 <pwm_ver+0x2>
    168c:	80 93 64 09 	sts	0x0964, r24	; 0x800964 <pwm_hor+0x2>
    1690:	2b ec       	ldi	r18, 0xCB	; 203
    1692:	33 e0       	ldi	r19, 0x03	; 3
    1694:	30 93 4b 09 	sts	0x094B, r19	; 0x80094b <motors+0x1>
    1698:	20 93 4a 09 	sts	0x094A, r18	; 0x80094a <motors>
    169c:	84 e0       	ldi	r24, 0x04	; 4
    169e:	80 93 4e 09 	sts	0x094E, r24	; 0x80094e <motors+0x4>
    16a2:	10 92 4f 09 	sts	0x094F, r1	; 0x80094f <motors+0x5>
    16a6:	30 93 51 09 	sts	0x0951, r19	; 0x800951 <motors+0x7>
    16aa:	20 93 50 09 	sts	0x0950, r18	; 0x800950 <motors+0x6>
    16ae:	80 93 54 09 	sts	0x0954, r24	; 0x800954 <motors+0xa>
    16b2:	10 92 55 09 	sts	0x0955, r1	; 0x800955 <motors+0xb>
    16b6:	30 93 57 09 	sts	0x0957, r19	; 0x800957 <motors+0xd>
    16ba:	20 93 56 09 	sts	0x0956, r18	; 0x800956 <motors+0xc>
    16be:	80 93 5a 09 	sts	0x095A, r24	; 0x80095a <motors+0x10>
    16c2:	10 92 5b 09 	sts	0x095B, r1	; 0x80095b <motors+0x11>
    16c6:	30 93 5d 09 	sts	0x095D, r19	; 0x80095d <motors+0x13>
    16ca:	20 93 5c 09 	sts	0x095C, r18	; 0x80095c <motors+0x12>
    16ce:	80 93 60 09 	sts	0x0960, r24	; 0x800960 <motors+0x16>
    16d2:	10 92 61 09 	sts	0x0961, r1	; 0x800961 <motors+0x17>
    16d6:	e2 e3       	ldi	r30, 0x32	; 50
    16d8:	f9 e0       	ldi	r31, 0x09	; 9
    16da:	df 01       	movw	r26, r30
    16dc:	1d 92       	st	X+, r1
    16de:	9a 95       	dec	r25
    16e0:	e9 f7       	brne	.-6      	; 0x16dc <_GLOBAL__I_65535_0_main.o.5765+0x3fa>
    16e2:	10 92 43 09 	sts	0x0943, r1	; 0x800943 <spammer_schedee+0x27>
    16e6:	10 92 42 09 	sts	0x0942, r1	; 0x800942 <spammer_schedee+0x26>
    16ea:	10 92 45 09 	sts	0x0945, r1	; 0x800945 <spammer_schedee+0x29>
    16ee:	10 92 44 09 	sts	0x0944, r1	; 0x800944 <spammer_schedee+0x28>
    16f2:	10 92 24 09 	sts	0x0924, r1	; 0x800924 <spammer_schedee+0x8>
    16f6:	80 e2       	ldi	r24, 0x20	; 32
    16f8:	99 e0       	ldi	r25, 0x09	; 9
    16fa:	90 93 23 09 	sts	0x0923, r25	; 0x800923 <spammer_schedee+0x7>
    16fe:	80 93 22 09 	sts	0x0922, r24	; 0x800922 <spammer_schedee+0x6>
    1702:	90 93 21 09 	sts	0x0921, r25	; 0x800921 <spammer_schedee+0x5>
    1706:	80 93 20 09 	sts	0x0920, r24	; 0x800920 <spammer_schedee+0x4>
    170a:	10 92 2d 09 	sts	0x092D, r1	; 0x80092d <spammer_schedee+0x11>
    170e:	83 e0       	ldi	r24, 0x03	; 3
    1710:	80 93 2e 09 	sts	0x092E, r24	; 0x80092e <spammer_schedee+0x12>
    1714:	80 91 1a 09 	lds	r24, 0x091A	; 0x80091a <__current_schedee>
    1718:	90 91 1b 09 	lds	r25, 0x091B	; 0x80091b <__current_schedee+0x1>
    171c:	90 93 1f 09 	sts	0x091F, r25	; 0x80091f <spammer_schedee+0x3>
    1720:	80 93 1e 09 	sts	0x091E, r24	; 0x80091e <spammer_schedee+0x2>
    1724:	10 92 31 09 	sts	0x0931, r1	; 0x800931 <spammer_schedee+0x15>
    1728:	10 92 30 09 	sts	0x0930, r1	; 0x800930 <spammer_schedee+0x14>
    172c:	82 e0       	ldi	r24, 0x02	; 2
    172e:	80 93 2f 09 	sts	0x092F, r24	; 0x80092f <spammer_schedee+0x13>
    1732:	8f eb       	ldi	r24, 0xBF	; 191
    1734:	93 e0       	ldi	r25, 0x03	; 3
    1736:	90 93 1d 09 	sts	0x091D, r25	; 0x80091d <spammer_schedee+0x1>
    173a:	80 93 1c 09 	sts	0x091C, r24	; 0x80091c <spammer_schedee>
    173e:	8e ee       	ldi	r24, 0xEE	; 238
    1740:	9e e0       	ldi	r25, 0x0E	; 14
    1742:	90 93 47 09 	sts	0x0947, r25	; 0x800947 <spammer_schedee+0x2b>
    1746:	80 93 46 09 	sts	0x0946, r24	; 0x800946 <spammer_schedee+0x2a>
    174a:	10 92 49 09 	sts	0x0949, r1	; 0x800949 <spammer_schedee+0x2d>
    174e:	10 92 48 09 	sts	0x0948, r1	; 0x800948 <spammer_schedee+0x2c>
    1752:	df 91       	pop	r29
    1754:	cf 91       	pop	r28
    1756:	1f 91       	pop	r17
    1758:	0f 91       	pop	r16
    175a:	ff 90       	pop	r15
    175c:	ef 90       	pop	r14
    175e:	df 90       	pop	r13
    1760:	cf 90       	pop	r12
    1762:	08 95       	ret

00001764 <unwait_one.constprop.89>:
    1764:	0f 93       	push	r16
    1766:	1f 93       	push	r17
    1768:	cf 93       	push	r28
    176a:	df 93       	push	r29
    176c:	8c 01       	movw	r16, r24
    176e:	0e 94 49 19 	call	0x3292	; 0x3292 <system_lock>
    1772:	f8 01       	movw	r30, r16
    1774:	c0 81       	ld	r28, Z
    1776:	d1 81       	ldd	r29, Z+1	; 0x01
    1778:	0c 17       	cp	r16, r28
    177a:	1d 07       	cpc	r17, r29
    177c:	91 f0       	breq	.+36     	; 0x17a2 <unwait_one.constprop.89+0x3e>
    177e:	8c 81       	ldd	r24, Y+4	; 0x04
    1780:	81 30       	cpi	r24, 0x01	; 1
    1782:	59 f0       	breq	.+22     	; 0x179a <unwait_one.constprop.89+0x36>
    1784:	82 30       	cpi	r24, 0x02	; 2
    1786:	69 f4       	brne	.+26     	; 0x17a2 <unwait_one.constprop.89+0x3e>
    1788:	ce 01       	movw	r24, r28
    178a:	0e 94 b8 16 	call	0x2d70	; 0x2d70 <dlist_del.lto_priv.93.lto_priv.107>
    178e:	ed 81       	ldd	r30, Y+5	; 0x05
    1790:	fe 81       	ldd	r31, Y+6	; 0x06
    1792:	8f 81       	ldd	r24, Y+7	; 0x07
    1794:	98 85       	ldd	r25, Y+8	; 0x08
    1796:	09 95       	icall
    1798:	04 c0       	rjmp	.+8      	; 0x17a2 <unwait_one.constprop.89+0x3e>
    179a:	ce 01       	movw	r24, r28
    179c:	04 97       	sbiw	r24, 0x04	; 4
    179e:	0e 94 df 17 	call	0x2fbe	; 0x2fbe <schedee_run>
    17a2:	df 91       	pop	r29
    17a4:	cf 91       	pop	r28
    17a6:	1f 91       	pop	r17
    17a8:	0f 91       	pop	r16
    17aa:	0c 94 36 19 	jmp	0x326c	; 0x326c <system_unlock>

000017ae <_ZN4crow13create_packetEPNS_7gatewayEhj.constprop.80>:
    17ae:	df 92       	push	r13
    17b0:	ef 92       	push	r14
    17b2:	ff 92       	push	r15
    17b4:	0f 93       	push	r16
    17b6:	1f 93       	push	r17
    17b8:	cf 93       	push	r28
    17ba:	df 93       	push	r29
    17bc:	d8 2e       	mov	r13, r24
    17be:	7b 01       	movw	r14, r22
    17c0:	0e 94 49 19 	call	0x3292	; 0x3292 <system_lock>
    17c4:	0d 2d       	mov	r16, r13
    17c6:	10 e0       	ldi	r17, 0x00	; 0
    17c8:	c8 01       	movw	r24, r16
    17ca:	8e 0d       	add	r24, r14
    17cc:	9f 1d       	adc	r25, r15
    17ce:	0e 94 60 11 	call	0x22c0	; 0x22c0 <_ZN4crow15allocate_packetEj>
    17d2:	ec 01       	movw	r28, r24
    17d4:	0e 94 36 19 	call	0x326c	; 0x326c <system_unlock>
    17d8:	8a e0       	ldi	r24, 0x0A	; 10
    17da:	e8 0e       	add	r14, r24
    17dc:	f1 1c       	adc	r15, r1
    17de:	0e 0d       	add	r16, r14
    17e0:	1f 1d       	adc	r17, r15
    17e2:	19 8b       	std	Y+17, r17	; 0x11
    17e4:	08 8b       	std	Y+16, r16	; 0x10
    17e6:	da 8a       	std	Y+18, r13	; 0x12
    17e8:	88 ec       	ldi	r24, 0xC8	; 200
    17ea:	90 e0       	ldi	r25, 0x00	; 0
    17ec:	9d 8b       	std	Y+21, r25	; 0x15
    17ee:	8c 8b       	std	Y+20, r24	; 0x14
    17f0:	1f 86       	std	Y+15, r1	; 0x0f
    17f2:	18 8e       	std	Y+24, r1	; 0x18
    17f4:	1b 8a       	std	Y+19, r1	; 0x13
    17f6:	db 83       	std	Y+3, r29	; 0x03
    17f8:	ca 83       	std	Y+2, r28	; 0x02
    17fa:	d9 83       	std	Y+1, r29	; 0x01
    17fc:	c8 83       	st	Y, r28
    17fe:	ce 01       	movw	r24, r28
    1800:	04 96       	adiw	r24, 0x04	; 4
    1802:	9f 83       	std	Y+7, r25	; 0x07
    1804:	8e 83       	std	Y+6, r24	; 0x06
    1806:	9d 83       	std	Y+5, r25	; 0x05
    1808:	8c 83       	std	Y+4, r24	; 0x04
    180a:	19 86       	std	Y+9, r1	; 0x09
    180c:	18 86       	std	Y+8, r1	; 0x08
    180e:	1c 86       	std	Y+12, r1	; 0x0c
    1810:	1e 86       	std	Y+14, r1	; 0x0e
    1812:	1d 86       	std	Y+13, r1	; 0x0d
    1814:	ce 01       	movw	r24, r28
    1816:	df 91       	pop	r29
    1818:	cf 91       	pop	r28
    181a:	1f 91       	pop	r17
    181c:	0f 91       	pop	r16
    181e:	ff 90       	pop	r15
    1820:	ef 90       	pop	r14
    1822:	df 90       	pop	r13
    1824:	08 95       	ret

00001826 <_ZN4crow6send_vEPKvhPK5iovecjhhj.constprop.79>:
    1826:	cf 92       	push	r12
    1828:	df 92       	push	r13
    182a:	ef 92       	push	r14
    182c:	ff 92       	push	r15
    182e:	0f 93       	push	r16
    1830:	1f 93       	push	r17
    1832:	cf 93       	push	r28
    1834:	df 93       	push	r29
    1836:	d8 2e       	mov	r13, r24
    1838:	8b 01       	movw	r16, r22
    183a:	7a 01       	movw	r14, r20
    183c:	ee 0c       	add	r14, r14
    183e:	ff 1c       	adc	r15, r15
    1840:	ee 0c       	add	r14, r14
    1842:	ff 1c       	adc	r15, r15
    1844:	e6 0e       	add	r14, r22
    1846:	f7 1e       	adc	r15, r23
    1848:	fb 01       	movw	r30, r22
    184a:	60 e0       	ldi	r22, 0x00	; 0
    184c:	70 e0       	ldi	r23, 0x00	; 0
    184e:	ee 16       	cp	r14, r30
    1850:	ff 06       	cpc	r15, r31
    1852:	31 f0       	breq	.+12     	; 0x1860 <_ZN4crow6send_vEPKvhPK5iovecjhhj.constprop.79+0x3a>
    1854:	82 81       	ldd	r24, Z+2	; 0x02
    1856:	93 81       	ldd	r25, Z+3	; 0x03
    1858:	68 0f       	add	r22, r24
    185a:	79 1f       	adc	r23, r25
    185c:	34 96       	adiw	r30, 0x04	; 4
    185e:	f7 cf       	rjmp	.-18     	; 0x184e <_ZN4crow6send_vEPKvhPK5iovecjhhj.constprop.79+0x28>
    1860:	8d 2d       	mov	r24, r13
    1862:	0e 94 d7 0b 	call	0x17ae	; 0x17ae <_ZN4crow13create_packetEPNS_7gatewayEhj.constprop.80>
    1866:	ec 01       	movw	r28, r24
    1868:	8f 85       	ldd	r24, Y+15	; 0x0f
    186a:	87 70       	andi	r24, 0x07	; 7
    186c:	80 62       	ori	r24, 0x20	; 32
    186e:	8f 87       	std	Y+15, r24	; 0x0f
    1870:	18 8e       	std	Y+24, r1	; 0x18
    1872:	88 ec       	ldi	r24, 0xC8	; 200
    1874:	90 e0       	ldi	r25, 0x00	; 0
    1876:	9d 8b       	std	Y+21, r25	; 0x15
    1878:	8c 8b       	std	Y+20, r24	; 0x14
    187a:	4d 2d       	mov	r20, r13
    187c:	50 e0       	ldi	r21, 0x00	; 0
    187e:	64 ec       	ldi	r22, 0xC4	; 196
    1880:	78 e0       	ldi	r23, 0x08	; 8
    1882:	ce 01       	movw	r24, r28
    1884:	49 96       	adiw	r24, 0x19	; 25
    1886:	0e 94 1c 0e 	call	0x1c38	; 0x1c38 <memcpy>
    188a:	8a 89       	ldd	r24, Y+18	; 0x12
    188c:	9e 01       	movw	r18, r28
    188e:	28 0f       	add	r18, r24
    1890:	31 1d       	adc	r19, r1
    1892:	f9 01       	movw	r30, r18
    1894:	79 96       	adiw	r30, 0x19	; 25
    1896:	6f 01       	movw	r12, r30
    1898:	e0 16       	cp	r14, r16
    189a:	f1 06       	cpc	r15, r17
    189c:	81 f0       	breq	.+32     	; 0x18be <_ZN4crow6send_vEPKvhPK5iovecjhhj.constprop.79+0x98>
    189e:	f8 01       	movw	r30, r16
    18a0:	60 81       	ld	r22, Z
    18a2:	71 81       	ldd	r23, Z+1	; 0x01
    18a4:	42 81       	ldd	r20, Z+2	; 0x02
    18a6:	53 81       	ldd	r21, Z+3	; 0x03
    18a8:	c6 01       	movw	r24, r12
    18aa:	0e 94 1c 0e 	call	0x1c38	; 0x1c38 <memcpy>
    18ae:	f8 01       	movw	r30, r16
    18b0:	82 81       	ldd	r24, Z+2	; 0x02
    18b2:	93 81       	ldd	r25, Z+3	; 0x03
    18b4:	c8 0e       	add	r12, r24
    18b6:	d9 1e       	adc	r13, r25
    18b8:	0c 5f       	subi	r16, 0xFC	; 252
    18ba:	1f 4f       	sbci	r17, 0xFF	; 255
    18bc:	ed cf       	rjmp	.-38     	; 0x1898 <_ZN4crow6send_vEPKvhPK5iovecjhhj.constprop.79+0x72>
    18be:	1b 8a       	std	Y+19, r1	; 0x13
    18c0:	8f 85       	ldd	r24, Y+15	; 0x0f
    18c2:	8e 7f       	andi	r24, 0xFE	; 254
    18c4:	8f 87       	std	Y+15, r24	; 0x0f
    18c6:	0e 94 49 19 	call	0x3292	; 0x3292 <system_lock>
    18ca:	80 91 c2 08 	lds	r24, 0x08C2	; 0x8008c2 <__seqcounter>
    18ce:	90 91 c3 08 	lds	r25, 0x08C3	; 0x8008c3 <__seqcounter+0x1>
    18d2:	9c 01       	movw	r18, r24
    18d4:	2f 5f       	subi	r18, 0xFF	; 255
    18d6:	3f 4f       	sbci	r19, 0xFF	; 255
    18d8:	30 93 c3 08 	sts	0x08C3, r19	; 0x8008c3 <__seqcounter+0x1>
    18dc:	20 93 c2 08 	sts	0x08C2, r18	; 0x8008c2 <__seqcounter>
    18e0:	9f 8b       	std	Y+23, r25	; 0x17
    18e2:	8e 8b       	std	Y+22, r24	; 0x16
    18e4:	0e 94 36 19 	call	0x326c	; 0x326c <system_unlock>
    18e8:	ce 01       	movw	r24, r28
    18ea:	df 91       	pop	r29
    18ec:	cf 91       	pop	r28
    18ee:	1f 91       	pop	r17
    18f0:	0f 91       	pop	r16
    18f2:	ff 90       	pop	r15
    18f4:	ef 90       	pop	r14
    18f6:	df 90       	pop	r13
    18f8:	cf 90       	pop	r12
    18fa:	0c 94 5d 19 	jmp	0x32ba	; 0x32ba <_ZN4crow6travelEPNS_6packetE>

000018fe <wait_current_schedee.constprop.71>:
    18fe:	ef 92       	push	r14
    1900:	ff 92       	push	r15
    1902:	0f 93       	push	r16
    1904:	1f 93       	push	r17
    1906:	cf 93       	push	r28
    1908:	df 93       	push	r29
    190a:	c0 91 1a 09 	lds	r28, 0x091A	; 0x80091a <__current_schedee>
    190e:	d0 91 1b 09 	lds	r29, 0x091B	; 0x80091b <__current_schedee+0x1>
    1912:	20 97       	sbiw	r28, 0x00	; 0
    1914:	89 f1       	breq	.+98     	; 0x1978 <wait_current_schedee.constprop.71+0x7a>
    1916:	2b 89       	ldd	r18, Y+19	; 0x13
    1918:	21 ff       	sbrs	r18, 1
    191a:	2e c0       	rjmp	.+92     	; 0x1978 <wait_current_schedee.constprop.71+0x7a>
    191c:	8c 01       	movw	r16, r24
    191e:	81 e0       	ldi	r24, 0x01	; 1
    1920:	88 87       	std	Y+8, r24	; 0x08
    1922:	82 e0       	ldi	r24, 0x02	; 2
    1924:	8a 8b       	std	Y+18, r24	; 0x12
    1926:	0e 94 49 19 	call	0x3292	; 0x3292 <system_lock>
    192a:	7e 01       	movw	r14, r28
    192c:	84 e0       	ldi	r24, 0x04	; 4
    192e:	e8 0e       	add	r14, r24
    1930:	f1 1c       	adc	r15, r1
    1932:	c7 01       	movw	r24, r14
    1934:	0e 94 a6 16 	call	0x2d4c	; 0x2d4c <dlist_del_init.lto_priv.113.lto_priv.130>
    1938:	ac 81       	ldd	r26, Y+4	; 0x04
    193a:	bd 81       	ldd	r27, Y+5	; 0x05
    193c:	ee 81       	ldd	r30, Y+6	; 0x06
    193e:	ff 81       	ldd	r31, Y+7	; 0x07
    1940:	13 96       	adiw	r26, 0x03	; 3
    1942:	fc 93       	st	X, r31
    1944:	ee 93       	st	-X, r30
    1946:	12 97       	sbiw	r26, 0x02	; 2
    1948:	b1 83       	std	Z+1, r27	; 0x01
    194a:	a0 83       	st	Z, r26
    194c:	d8 01       	movw	r26, r16
    194e:	ed 91       	ld	r30, X+
    1950:	fc 91       	ld	r31, X
    1952:	11 97       	sbiw	r26, 0x01	; 1
    1954:	1f 83       	std	Y+7, r17	; 0x07
    1956:	0e 83       	std	Y+6, r16	; 0x06
    1958:	fd 83       	std	Y+5, r31	; 0x05
    195a:	ec 83       	std	Y+4, r30	; 0x04
    195c:	f3 82       	std	Z+3, r15	; 0x03
    195e:	e2 82       	std	Z+2, r14	; 0x02
    1960:	ed 92       	st	X+, r14
    1962:	fc 92       	st	X, r15
    1964:	0e 94 36 19 	call	0x326c	; 0x326c <system_unlock>
    1968:	df 91       	pop	r29
    196a:	cf 91       	pop	r28
    196c:	1f 91       	pop	r17
    196e:	0f 91       	pop	r16
    1970:	ff 90       	pop	r15
    1972:	ef 90       	pop	r14
    1974:	0c 94 df 16 	jmp	0x2dbe	; 0x2dbe <__displace__>
    1978:	8f ef       	ldi	r24, 0xFF	; 255
    197a:	9f ef       	ldi	r25, 0xFF	; 255
    197c:	df 91       	pop	r29
    197e:	cf 91       	pop	r28
    1980:	1f 91       	pop	r17
    1982:	0f 91       	pop	r16
    1984:	ff 90       	pop	r15
    1986:	ef 90       	pop	r14
    1988:	08 95       	ret

0000198a <_ZN10i2c_device5writeEhPKvj.constprop.70>:
    198a:	cf 93       	push	r28
    198c:	df 93       	push	r29
    198e:	ec 01       	movw	r28, r24
    1990:	e8 81       	ld	r30, Y
    1992:	f9 81       	ldd	r31, Y+1	; 0x01
    1994:	01 90       	ld	r0, Z+
    1996:	f0 81       	ld	r31, Z
    1998:	e0 2d       	mov	r30, r0
    199a:	09 95       	icall
    199c:	ce 01       	movw	r24, r28
    199e:	03 96       	adiw	r24, 0x03	; 3
    19a0:	0e 94 7f 0c 	call	0x18fe	; 0x18fe <wait_current_schedee.constprop.71>
    19a4:	e8 81       	ld	r30, Y
    19a6:	f9 81       	ldd	r31, Y+1	; 0x01
    19a8:	04 80       	ldd	r0, Z+4	; 0x04
    19aa:	f5 81       	ldd	r31, Z+5	; 0x05
    19ac:	e0 2d       	mov	r30, r0
    19ae:	ce 01       	movw	r24, r28
    19b0:	df 91       	pop	r29
    19b2:	cf 91       	pop	r28
    19b4:	09 94       	ijmp

000019b6 <_ZN5genos3avr8pwmservo10get_writerEjj.constprop.59>:
    19b6:	0f 93       	push	r16
    19b8:	1f 93       	push	r17
    19ba:	cf 93       	push	r28
    19bc:	df 93       	push	r29
    19be:	ec 01       	movw	r28, r24
    19c0:	db 01       	movw	r26, r22
    19c2:	ed 91       	ld	r30, X+
    19c4:	fc 91       	ld	r31, X
    19c6:	11 97       	sbiw	r26, 0x01	; 1
    19c8:	12 96       	adiw	r26, 0x02	; 2
    19ca:	8c 91       	ld	r24, X
    19cc:	82 36       	cpi	r24, 0x62	; 98
    19ce:	41 f0       	breq	.+16     	; 0x19e0 <_ZN5genos3avr8pwmservo10get_writerEjj.constprop.59+0x2a>
    19d0:	83 36       	cpi	r24, 0x63	; 99
    19d2:	51 f0       	breq	.+20     	; 0x19e8 <_ZN5genos3avr8pwmservo10get_writerEjj.constprop.59+0x32>
    19d4:	81 36       	cpi	r24, 0x61	; 97
    19d6:	61 f4       	brne	.+24     	; 0x19f0 <_ZN5genos3avr8pwmservo10get_writerEjj.constprop.59+0x3a>
    19d8:	82 81       	ldd	r24, Z+2	; 0x02
    19da:	93 81       	ldd	r25, Z+3	; 0x03
    19dc:	08 96       	adiw	r24, 0x08	; 8
    19de:	0a c0       	rjmp	.+20     	; 0x19f4 <_ZN5genos3avr8pwmservo10get_writerEjj.constprop.59+0x3e>
    19e0:	82 81       	ldd	r24, Z+2	; 0x02
    19e2:	93 81       	ldd	r25, Z+3	; 0x03
    19e4:	0a 96       	adiw	r24, 0x0a	; 10
    19e6:	06 c0       	rjmp	.+12     	; 0x19f4 <_ZN5genos3avr8pwmservo10get_writerEjj.constprop.59+0x3e>
    19e8:	82 81       	ldd	r24, Z+2	; 0x02
    19ea:	93 81       	ldd	r25, Z+3	; 0x03
    19ec:	0c 96       	adiw	r24, 0x0c	; 12
    19ee:	02 c0       	rjmp	.+4      	; 0x19f4 <_ZN5genos3avr8pwmservo10get_writerEjj.constprop.59+0x3e>
    19f0:	80 e0       	ldi	r24, 0x00	; 0
    19f2:	90 e0       	ldi	r25, 0x00	; 0
    19f4:	02 80       	ldd	r0, Z+2	; 0x02
    19f6:	f3 81       	ldd	r31, Z+3	; 0x03
    19f8:	e0 2d       	mov	r30, r0
    19fa:	66 81       	ldd	r22, Z+6	; 0x06
    19fc:	77 81       	ldd	r23, Z+7	; 0x07
    19fe:	06 81       	ldd	r16, Z+6	; 0x06
    1a00:	17 81       	ldd	r17, Z+7	; 0x07
    1a02:	99 83       	std	Y+1, r25	; 0x01
    1a04:	88 83       	st	Y, r24
    1a06:	80 e0       	ldi	r24, 0x00	; 0
    1a08:	90 e0       	ldi	r25, 0x00	; 0
    1a0a:	0e 94 df 1e 	call	0x3dbe	; 0x3dbe <__floatunsisf>
    1a0e:	20 e0       	ldi	r18, 0x00	; 0
    1a10:	30 e0       	ldi	r19, 0x00	; 0
    1a12:	4a ef       	ldi	r20, 0xFA	; 250
    1a14:	54 e4       	ldi	r21, 0x44	; 68
    1a16:	0e 94 96 1f 	call	0x3f2c	; 0x3f2c <__mulsf3>
    1a1a:	20 e0       	ldi	r18, 0x00	; 0
    1a1c:	30 e4       	ldi	r19, 0x40	; 64
    1a1e:	4c e9       	ldi	r20, 0x9C	; 156
    1a20:	56 e4       	ldi	r21, 0x46	; 70
    1a22:	0e 94 37 1e 	call	0x3c6e	; 0x3c6e <__divsf3>
    1a26:	0e 94 b0 1e 	call	0x3d60	; 0x3d60 <__fixunssfsi>
    1a2a:	7b 83       	std	Y+3, r23	; 0x03
    1a2c:	6a 83       	std	Y+2, r22	; 0x02
    1a2e:	b8 01       	movw	r22, r16
    1a30:	80 e0       	ldi	r24, 0x00	; 0
    1a32:	90 e0       	ldi	r25, 0x00	; 0
    1a34:	0e 94 df 1e 	call	0x3dbe	; 0x3dbe <__floatunsisf>
    1a38:	20 e0       	ldi	r18, 0x00	; 0
    1a3a:	30 e0       	ldi	r19, 0x00	; 0
    1a3c:	4a e7       	ldi	r20, 0x7A	; 122
    1a3e:	54 e4       	ldi	r21, 0x44	; 68
    1a40:	0e 94 96 1f 	call	0x3f2c	; 0x3f2c <__mulsf3>
    1a44:	20 e0       	ldi	r18, 0x00	; 0
    1a46:	30 e4       	ldi	r19, 0x40	; 64
    1a48:	4c e9       	ldi	r20, 0x9C	; 156
    1a4a:	56 e4       	ldi	r21, 0x46	; 70
    1a4c:	0e 94 37 1e 	call	0x3c6e	; 0x3c6e <__divsf3>
    1a50:	0e 94 b0 1e 	call	0x3d60	; 0x3d60 <__fixunssfsi>
    1a54:	7d 83       	std	Y+5, r23	; 0x05
    1a56:	6c 83       	std	Y+4, r22	; 0x04
    1a58:	ce 01       	movw	r24, r28
    1a5a:	df 91       	pop	r29
    1a5c:	cf 91       	pop	r28
    1a5e:	1f 91       	pop	r17
    1a60:	0f 91       	pop	r16
    1a62:	08 95       	ret

00001a64 <_ZN26Adafruit_MS_PWMServoDriver6write8Ehh.constprop.54>:
    1a64:	cf 93       	push	r28
    1a66:	df 93       	push	r29
    1a68:	00 d0       	rcall	.+0      	; 0x1a6a <_ZN26Adafruit_MS_PWMServoDriver6write8Ehh.constprop.54+0x6>
    1a6a:	cd b7       	in	r28, 0x3d	; 61
    1a6c:	de b7       	in	r29, 0x3e	; 62
    1a6e:	89 83       	std	Y+1, r24	; 0x01
    1a70:	6a 83       	std	Y+2, r22	; 0x02
    1a72:	e6 e2       	ldi	r30, 0x26	; 38
    1a74:	fa e0       	ldi	r31, 0x0A	; 10
    1a76:	22 e0       	ldi	r18, 0x02	; 2
    1a78:	30 e0       	ldi	r19, 0x00	; 0
    1a7a:	ae 01       	movw	r20, r28
    1a7c:	4f 5f       	subi	r20, 0xFF	; 255
    1a7e:	5f 4f       	sbci	r21, 0xFF	; 255
    1a80:	67 ad       	ldd	r22, Z+63	; 0x3f
    1a82:	85 ad       	ldd	r24, Z+61	; 0x3d
    1a84:	96 ad       	ldd	r25, Z+62	; 0x3e
    1a86:	0e 94 c5 0c 	call	0x198a	; 0x198a <_ZN10i2c_device5writeEhPKvj.constprop.70>
    1a8a:	0f 90       	pop	r0
    1a8c:	0f 90       	pop	r0
    1a8e:	df 91       	pop	r29
    1a90:	cf 91       	pop	r28
    1a92:	08 95       	ret

00001a94 <_ZN4crow9subscribeEPKhhPKchjhj.constprop.41>:
    1a94:	cf 93       	push	r28
    1a96:	df 93       	push	r29
    1a98:	cd b7       	in	r28, 0x3d	; 61
    1a9a:	de b7       	in	r29, 0x3e	; 62
    1a9c:	61 97       	sbiw	r28, 0x11	; 17
    1a9e:	0f b6       	in	r0, 0x3f	; 63
    1aa0:	f8 94       	cli
    1aa2:	de bf       	out	0x3e, r29	; 62
    1aa4:	0f be       	out	0x3f, r0	; 63
    1aa6:	cd bf       	out	0x3d, r28	; 61
    1aa8:	db 01       	movw	r26, r22
    1aaa:	fb 01       	movw	r30, r22
    1aac:	01 90       	ld	r0, Z+
    1aae:	00 20       	and	r0, r0
    1ab0:	e9 f7       	brne	.-6      	; 0x1aac <_ZN4crow9subscribeEPKhhPKchjhj.constprop.41+0x18>
    1ab2:	31 97       	sbiw	r30, 0x01	; 1
    1ab4:	af 01       	movw	r20, r30
    1ab6:	46 1b       	sub	r20, r22
    1ab8:	57 0b       	sbc	r21, r23
    1aba:	18 8a       	std	Y+16, r1	; 0x10
    1abc:	49 8b       	std	Y+17, r20	; 0x11
    1abe:	1d 86       	std	Y+13, r1	; 0x0d
    1ac0:	28 ec       	ldi	r18, 0xC8	; 200
    1ac2:	30 e0       	ldi	r19, 0x00	; 0
    1ac4:	3f 87       	std	Y+15, r19	; 0x0f
    1ac6:	2e 87       	std	Y+14, r18	; 0x0e
    1ac8:	be 01       	movw	r22, r28
    1aca:	6f 5f       	subi	r22, 0xFF	; 255
    1acc:	7f 4f       	sbci	r23, 0xFF	; 255
    1ace:	9c e0       	ldi	r25, 0x0C	; 12
    1ad0:	fb 01       	movw	r30, r22
    1ad2:	11 92       	st	Z+, r1
    1ad4:	9a 95       	dec	r25
    1ad6:	e9 f7       	brne	.-6      	; 0x1ad2 <_ZN4crow9subscribeEPKhhPKchjhj.constprop.41+0x3e>
    1ad8:	22 e0       	ldi	r18, 0x02	; 2
    1ada:	30 e0       	ldi	r19, 0x00	; 0
    1adc:	3c 83       	std	Y+4, r19	; 0x04
    1ade:	2b 83       	std	Y+3, r18	; 0x03
    1ae0:	23 e0       	ldi	r18, 0x03	; 3
    1ae2:	30 e0       	ldi	r19, 0x00	; 0
    1ae4:	38 87       	std	Y+8, r19	; 0x08
    1ae6:	2f 83       	std	Y+7, r18	; 0x07
    1ae8:	9e 01       	movw	r18, r28
    1aea:	20 5f       	subi	r18, 0xF0	; 240
    1aec:	3f 4f       	sbci	r19, 0xFF	; 255
    1aee:	3a 83       	std	Y+2, r19	; 0x02
    1af0:	29 83       	std	Y+1, r18	; 0x01
    1af2:	23 50       	subi	r18, 0x03	; 3
    1af4:	31 09       	sbc	r19, r1
    1af6:	3e 83       	std	Y+6, r19	; 0x06
    1af8:	2d 83       	std	Y+5, r18	; 0x05
    1afa:	ba 87       	std	Y+10, r27	; 0x0a
    1afc:	a9 87       	std	Y+9, r26	; 0x09
    1afe:	5c 87       	std	Y+12, r21	; 0x0c
    1b00:	4b 87       	std	Y+11, r20	; 0x0b
    1b02:	43 e0       	ldi	r20, 0x03	; 3
    1b04:	50 e0       	ldi	r21, 0x00	; 0
    1b06:	0e 94 13 0c 	call	0x1826	; 0x1826 <_ZN4crow6send_vEPKvhPK5iovecjhhj.constprop.79>
    1b0a:	61 96       	adiw	r28, 0x11	; 17
    1b0c:	0f b6       	in	r0, 0x3f	; 63
    1b0e:	f8 94       	cli
    1b10:	de bf       	out	0x3e, r29	; 62
    1b12:	0f be       	out	0x3f, r0	; 63
    1b14:	cd bf       	out	0x3d, r28	; 61
    1b16:	df 91       	pop	r29
    1b18:	cf 91       	pop	r28
    1b1a:	08 95       	ret

00001b1c <debug_writehex_reversed.constprop.33>:
    1b1c:	ef 92       	push	r14
    1b1e:	ff 92       	push	r15
    1b20:	0f 93       	push	r16
    1b22:	1f 93       	push	r17
    1b24:	cf 93       	push	r28
    1b26:	7c 01       	movw	r14, r24
    1b28:	8c 01       	movw	r16, r24
    1b2a:	0e 5f       	subi	r16, 0xFE	; 254
    1b2c:	1f 4f       	sbci	r17, 0xFF	; 255
    1b2e:	e0 16       	cp	r14, r16
    1b30:	f1 06       	cpc	r15, r17
    1b32:	b9 f0       	breq	.+46     	; 0x1b62 <debug_writehex_reversed.constprop.33+0x46>
    1b34:	f8 01       	movw	r30, r16
    1b36:	c2 91       	ld	r28, -Z
    1b38:	8f 01       	movw	r16, r30
    1b3a:	8c 2f       	mov	r24, r28
    1b3c:	82 95       	swap	r24
    1b3e:	8f 70       	andi	r24, 0x0F	; 15
    1b40:	8a 30       	cpi	r24, 0x0A	; 10
    1b42:	10 f4       	brcc	.+4      	; 0x1b48 <debug_writehex_reversed.constprop.33+0x2c>
    1b44:	80 5d       	subi	r24, 0xD0	; 208
    1b46:	01 c0       	rjmp	.+2      	; 0x1b4a <debug_writehex_reversed.constprop.33+0x2e>
    1b48:	89 5c       	subi	r24, 0xC9	; 201
    1b4a:	0e 94 fe 17 	call	0x2ffc	; 0x2ffc <diag_putc>
    1b4e:	8c 2f       	mov	r24, r28
    1b50:	8f 70       	andi	r24, 0x0F	; 15
    1b52:	8a 30       	cpi	r24, 0x0A	; 10
    1b54:	10 f4       	brcc	.+4      	; 0x1b5a <debug_writehex_reversed.constprop.33+0x3e>
    1b56:	80 5d       	subi	r24, 0xD0	; 208
    1b58:	01 c0       	rjmp	.+2      	; 0x1b5c <debug_writehex_reversed.constprop.33+0x40>
    1b5a:	89 5c       	subi	r24, 0xC9	; 201
    1b5c:	0e 94 fe 17 	call	0x2ffc	; 0x2ffc <diag_putc>
    1b60:	e6 cf       	rjmp	.-52     	; 0x1b2e <debug_writehex_reversed.constprop.33+0x12>
    1b62:	cf 91       	pop	r28
    1b64:	1f 91       	pop	r17
    1b66:	0f 91       	pop	r16
    1b68:	ff 90       	pop	r15
    1b6a:	ef 90       	pop	r14
    1b6c:	08 95       	ret

00001b6e <strncmp>:
    1b6e:	cf 93       	push	r28
    1b70:	df 93       	push	r29
    1b72:	41 15       	cp	r20, r1
    1b74:	51 05       	cpc	r21, r1
    1b76:	b1 f0       	breq	.+44     	; 0x1ba4 <strncmp+0x36>
    1b78:	9b 01       	movw	r18, r22
    1b7a:	fc 01       	movw	r30, r24
    1b7c:	d9 01       	movw	r26, r18
    1b7e:	ef 01       	movw	r28, r30
    1b80:	41 50       	subi	r20, 0x01	; 1
    1b82:	51 09       	sbc	r21, r1
    1b84:	31 f4       	brne	.+12     	; 0x1b92 <strncmp+0x24>
    1b86:	88 81       	ld	r24, Y
    1b88:	90 e0       	ldi	r25, 0x00	; 0
    1b8a:	2c 91       	ld	r18, X
    1b8c:	82 1b       	sub	r24, r18
    1b8e:	91 09       	sbc	r25, r1
    1b90:	0b c0       	rjmp	.+22     	; 0x1ba8 <strncmp+0x3a>
    1b92:	81 91       	ld	r24, Z+
    1b94:	88 23       	and	r24, r24
    1b96:	b9 f3       	breq	.-18     	; 0x1b86 <strncmp+0x18>
    1b98:	2f 5f       	subi	r18, 0xFF	; 255
    1b9a:	3f 4f       	sbci	r19, 0xFF	; 255
    1b9c:	9c 91       	ld	r25, X
    1b9e:	89 17       	cp	r24, r25
    1ba0:	69 f3       	breq	.-38     	; 0x1b7c <strncmp+0xe>
    1ba2:	f1 cf       	rjmp	.-30     	; 0x1b86 <strncmp+0x18>
    1ba4:	80 e0       	ldi	r24, 0x00	; 0
    1ba6:	90 e0       	ldi	r25, 0x00	; 0
    1ba8:	df 91       	pop	r29
    1baa:	cf 91       	pop	r28
    1bac:	08 95       	ret

00001bae <memcmp>:
    1bae:	41 15       	cp	r20, r1
    1bb0:	51 05       	cpc	r21, r1
    1bb2:	a9 f0       	breq	.+42     	; 0x1bde <memcmp+0x30>
    1bb4:	9c 01       	movw	r18, r24
    1bb6:	cb 01       	movw	r24, r22
    1bb8:	dc 01       	movw	r26, r24
    1bba:	f9 01       	movw	r30, r18
    1bbc:	41 50       	subi	r20, 0x01	; 1
    1bbe:	51 09       	sbc	r21, r1
    1bc0:	31 f4       	brne	.+12     	; 0x1bce <memcmp+0x20>
    1bc2:	80 81       	ld	r24, Z
    1bc4:	90 e0       	ldi	r25, 0x00	; 0
    1bc6:	2c 91       	ld	r18, X
    1bc8:	82 1b       	sub	r24, r18
    1bca:	91 09       	sbc	r25, r1
    1bcc:	08 95       	ret
    1bce:	2f 5f       	subi	r18, 0xFF	; 255
    1bd0:	3f 4f       	sbci	r19, 0xFF	; 255
    1bd2:	01 96       	adiw	r24, 0x01	; 1
    1bd4:	70 81       	ld	r23, Z
    1bd6:	6c 91       	ld	r22, X
    1bd8:	76 17       	cp	r23, r22
    1bda:	71 f3       	breq	.-36     	; 0x1bb8 <memcmp+0xa>
    1bdc:	f2 cf       	rjmp	.-28     	; 0x1bc2 <memcmp+0x14>
    1bde:	80 e0       	ldi	r24, 0x00	; 0
    1be0:	90 e0       	ldi	r25, 0x00	; 0
    1be2:	08 95       	ret

00001be4 <memmove>:
    1be4:	68 17       	cp	r22, r24
    1be6:	79 07       	cpc	r23, r25
    1be8:	a0 f4       	brcc	.+40     	; 0x1c12 <memmove+0x2e>
    1bea:	fb 01       	movw	r30, r22
    1bec:	e4 0f       	add	r30, r20
    1bee:	f5 1f       	adc	r31, r21
    1bf0:	8e 17       	cp	r24, r30
    1bf2:	9f 07       	cpc	r25, r31
    1bf4:	70 f4       	brcc	.+28     	; 0x1c12 <memmove+0x2e>
    1bf6:	dc 01       	movw	r26, r24
    1bf8:	a4 0f       	add	r26, r20
    1bfa:	b5 1f       	adc	r27, r21
    1bfc:	4e 1b       	sub	r20, r30
    1bfe:	5f 0b       	sbc	r21, r31
    1c00:	9f 01       	movw	r18, r30
    1c02:	24 0f       	add	r18, r20
    1c04:	35 1f       	adc	r19, r21
    1c06:	23 2b       	or	r18, r19
    1c08:	19 f0       	breq	.+6      	; 0x1c10 <memmove+0x2c>
    1c0a:	22 91       	ld	r18, -Z
    1c0c:	2e 93       	st	-X, r18
    1c0e:	f8 cf       	rjmp	.-16     	; 0x1c00 <memmove+0x1c>
    1c10:	08 95       	ret
    1c12:	0c 94 1c 0e 	jmp	0x1c38	; 0x1c38 <memcpy>

00001c16 <strcmp>:
    1c16:	dc 01       	movw	r26, r24
    1c18:	9b 01       	movw	r18, r22
    1c1a:	f9 01       	movw	r30, r18
    1c1c:	9d 91       	ld	r25, X+
    1c1e:	99 23       	and	r25, r25
    1c20:	29 f0       	breq	.+10     	; 0x1c2c <strcmp+0x16>
    1c22:	2f 5f       	subi	r18, 0xFF	; 255
    1c24:	3f 4f       	sbci	r19, 0xFF	; 255
    1c26:	80 81       	ld	r24, Z
    1c28:	98 17       	cp	r25, r24
    1c2a:	b9 f3       	breq	.-18     	; 0x1c1a <strcmp+0x4>
    1c2c:	89 2f       	mov	r24, r25
    1c2e:	90 e0       	ldi	r25, 0x00	; 0
    1c30:	20 81       	ld	r18, Z
    1c32:	82 1b       	sub	r24, r18
    1c34:	91 09       	sbc	r25, r1
    1c36:	08 95       	ret

00001c38 <memcpy>:
    1c38:	cf 92       	push	r12
    1c3a:	df 92       	push	r13
    1c3c:	ef 92       	push	r14
    1c3e:	ff 92       	push	r15
    1c40:	cf 93       	push	r28
    1c42:	df 93       	push	r29
    1c44:	40 31       	cpi	r20, 0x10	; 16
    1c46:	51 05       	cpc	r21, r1
    1c48:	38 f0       	brcs	.+14     	; 0x1c58 <memcpy+0x20>
    1c4a:	9b 01       	movw	r18, r22
    1c4c:	28 2b       	or	r18, r24
    1c4e:	39 2b       	or	r19, r25
    1c50:	23 70       	andi	r18, 0x03	; 3
    1c52:	33 27       	eor	r19, r19
    1c54:	23 2b       	or	r18, r19
    1c56:	29 f0       	breq	.+10     	; 0x1c62 <memcpy+0x2a>
    1c58:	fc 01       	movw	r30, r24
    1c5a:	db 01       	movw	r26, r22
    1c5c:	4e 0f       	add	r20, r30
    1c5e:	5f 1f       	adc	r21, r31
    1c60:	5a c0       	rjmp	.+180    	; 0x1d16 <memcpy+0xde>
    1c62:	db 01       	movw	r26, r22
    1c64:	fc 01       	movw	r30, r24
    1c66:	9a 01       	movw	r18, r20
    1c68:	cd 90       	ld	r12, X+
    1c6a:	dd 90       	ld	r13, X+
    1c6c:	ed 90       	ld	r14, X+
    1c6e:	fc 90       	ld	r15, X
    1c70:	13 97       	sbiw	r26, 0x03	; 3
    1c72:	c0 82       	st	Z, r12
    1c74:	d1 82       	std	Z+1, r13	; 0x01
    1c76:	e2 82       	std	Z+2, r14	; 0x02
    1c78:	f3 82       	std	Z+3, r15	; 0x03
    1c7a:	14 96       	adiw	r26, 0x04	; 4
    1c7c:	cd 90       	ld	r12, X+
    1c7e:	dd 90       	ld	r13, X+
    1c80:	ed 90       	ld	r14, X+
    1c82:	fc 90       	ld	r15, X
    1c84:	17 97       	sbiw	r26, 0x07	; 7
    1c86:	c4 82       	std	Z+4, r12	; 0x04
    1c88:	d5 82       	std	Z+5, r13	; 0x05
    1c8a:	e6 82       	std	Z+6, r14	; 0x06
    1c8c:	f7 82       	std	Z+7, r15	; 0x07
    1c8e:	18 96       	adiw	r26, 0x08	; 8
    1c90:	cd 90       	ld	r12, X+
    1c92:	dd 90       	ld	r13, X+
    1c94:	ed 90       	ld	r14, X+
    1c96:	fc 90       	ld	r15, X
    1c98:	1b 97       	sbiw	r26, 0x0b	; 11
    1c9a:	c0 86       	std	Z+8, r12	; 0x08
    1c9c:	d1 86       	std	Z+9, r13	; 0x09
    1c9e:	e2 86       	std	Z+10, r14	; 0x0a
    1ca0:	f3 86       	std	Z+11, r15	; 0x0b
    1ca2:	1c 96       	adiw	r26, 0x0c	; 12
    1ca4:	cd 90       	ld	r12, X+
    1ca6:	dd 90       	ld	r13, X+
    1ca8:	ed 90       	ld	r14, X+
    1caa:	fc 90       	ld	r15, X
    1cac:	1f 97       	sbiw	r26, 0x0f	; 15
    1cae:	c4 86       	std	Z+12, r12	; 0x0c
    1cb0:	d5 86       	std	Z+13, r13	; 0x0d
    1cb2:	e6 86       	std	Z+14, r14	; 0x0e
    1cb4:	f7 86       	std	Z+15, r15	; 0x0f
    1cb6:	20 51       	subi	r18, 0x10	; 16
    1cb8:	31 09       	sbc	r19, r1
    1cba:	50 96       	adiw	r26, 0x10	; 16
    1cbc:	70 96       	adiw	r30, 0x10	; 16
    1cbe:	20 31       	cpi	r18, 0x10	; 16
    1cc0:	31 05       	cpc	r19, r1
    1cc2:	90 f6       	brcc	.-92     	; 0x1c68 <memcpy+0x30>
    1cc4:	9a 01       	movw	r18, r20
    1cc6:	20 51       	subi	r18, 0x10	; 16
    1cc8:	31 09       	sbc	r19, r1
    1cca:	20 7f       	andi	r18, 0xF0	; 240
    1ccc:	20 5f       	subi	r18, 0xF0	; 240
    1cce:	3f 4f       	sbci	r19, 0xFF	; 255
    1cd0:	fc 01       	movw	r30, r24
    1cd2:	e2 0f       	add	r30, r18
    1cd4:	f3 1f       	adc	r31, r19
    1cd6:	62 0f       	add	r22, r18
    1cd8:	73 1f       	adc	r23, r19
    1cda:	9a 01       	movw	r18, r20
    1cdc:	2f 70       	andi	r18, 0x0F	; 15
    1cde:	33 27       	eor	r19, r19
    1ce0:	db 01       	movw	r26, r22
    1ce2:	ef 01       	movw	r28, r30
    1ce4:	a9 01       	movw	r20, r18
    1ce6:	44 30       	cpi	r20, 0x04	; 4
    1ce8:	51 05       	cpc	r21, r1
    1cea:	58 f0       	brcs	.+22     	; 0x1d02 <memcpy+0xca>
    1cec:	cd 90       	ld	r12, X+
    1cee:	dd 90       	ld	r13, X+
    1cf0:	ed 90       	ld	r14, X+
    1cf2:	fd 90       	ld	r15, X+
    1cf4:	c9 92       	st	Y+, r12
    1cf6:	d9 92       	st	Y+, r13
    1cf8:	e9 92       	st	Y+, r14
    1cfa:	f9 92       	st	Y+, r15
    1cfc:	44 50       	subi	r20, 0x04	; 4
    1cfe:	51 09       	sbc	r21, r1
    1d00:	f2 cf       	rjmp	.-28     	; 0x1ce6 <memcpy+0xae>
    1d02:	a9 01       	movw	r20, r18
    1d04:	43 70       	andi	r20, 0x03	; 3
    1d06:	55 27       	eor	r21, r21
    1d08:	2c 70       	andi	r18, 0x0C	; 12
    1d0a:	33 27       	eor	r19, r19
    1d0c:	e2 0f       	add	r30, r18
    1d0e:	f3 1f       	adc	r31, r19
    1d10:	62 0f       	add	r22, r18
    1d12:	73 1f       	adc	r23, r19
    1d14:	a2 cf       	rjmp	.-188    	; 0x1c5a <memcpy+0x22>
    1d16:	e4 17       	cp	r30, r20
    1d18:	f5 07       	cpc	r31, r21
    1d1a:	19 f0       	breq	.+6      	; 0x1d22 <memcpy+0xea>
    1d1c:	2d 91       	ld	r18, X+
    1d1e:	21 93       	st	Z+, r18
    1d20:	fa cf       	rjmp	.-12     	; 0x1d16 <memcpy+0xde>
    1d22:	df 91       	pop	r29
    1d24:	cf 91       	pop	r28
    1d26:	ff 90       	pop	r15
    1d28:	ef 90       	pop	r14
    1d2a:	df 90       	pop	r13
    1d2c:	cf 90       	pop	r12
    1d2e:	08 95       	ret

00001d30 <abort>:
    1d30:	88 e1       	ldi	r24, 0x18	; 24
    1d32:	93 e0       	ldi	r25, 0x03	; 3
    1d34:	0e 94 a5 19 	call	0x334a	; 0x334a <debug_print>
    1d38:	ff cf       	rjmp	.-2      	; 0x1d38 <abort+0x8>

00001d3a <_ZN13crow_uartgate7do_sendEPN4crow6packetE.constprop.13>:
    1d3a:	0f 93       	push	r16
    1d3c:	1f 93       	push	r17
    1d3e:	cf 93       	push	r28
    1d40:	df 93       	push	r29
    1d42:	ec 01       	movw	r28, r24
    1d44:	8b 01       	movw	r16, r22
    1d46:	83 ea       	ldi	r24, 0xA3	; 163
    1d48:	91 e0       	ldi	r25, 0x01	; 1
    1d4a:	0e 94 a5 19 	call	0x334a	; 0x334a <debug_print>
    1d4e:	8e e1       	ldi	r24, 0x1E	; 30
    1d50:	93 e0       	ldi	r25, 0x03	; 3
    1d52:	0e 94 a5 19 	call	0x334a	; 0x334a <debug_print>
    1d56:	0e 94 0b 18 	call	0x3016	; 0x3016 <debug_print_newline.lto_priv.100.lto_priv.109>
    1d5a:	c8 01       	movw	r24, r16
    1d5c:	0e 94 b8 16 	call	0x2d70	; 0x2d70 <dlist_del.lto_priv.93.lto_priv.107>
    1d60:	1e 87       	std	Y+14, r17	; 0x0e
    1d62:	0d 87       	std	Y+13, r16	; 0x0d
    1d64:	98 01       	movw	r18, r16
    1d66:	21 5f       	subi	r18, 0xF1	; 241
    1d68:	3f 4f       	sbci	r19, 0xFF	; 255
    1d6a:	3c 8b       	std	Y+20, r19	; 0x14
    1d6c:	2b 8b       	std	Y+19, r18	; 0x13
    1d6e:	d8 01       	movw	r26, r16
    1d70:	50 96       	adiw	r26, 0x10	; 16
    1d72:	8d 91       	ld	r24, X+
    1d74:	9c 91       	ld	r25, X
    1d76:	51 97       	sbiw	r26, 0x11	; 17
    1d78:	82 0f       	add	r24, r18
    1d7a:	93 1f       	adc	r25, r19
    1d7c:	9e 8b       	std	Y+22, r25	; 0x16
    1d7e:	8d 8b       	std	Y+21, r24	; 0x15
    1d80:	8f 81       	ldd	r24, Y+7	; 0x07
    1d82:	98 85       	ldd	r25, Y+8	; 0x08
    1d84:	dc 01       	movw	r26, r24
    1d86:	ed 91       	ld	r30, X+
    1d88:	fc 91       	ld	r31, X
    1d8a:	00 84       	ldd	r0, Z+8	; 0x08
    1d8c:	f1 85       	ldd	r31, Z+9	; 0x09
    1d8e:	e0 2d       	mov	r30, r0
    1d90:	6c ea       	ldi	r22, 0xAC	; 172
    1d92:	7f ef       	ldi	r23, 0xFF	; 255
    1d94:	09 95       	icall
    1d96:	8f ef       	ldi	r24, 0xFF	; 255
    1d98:	8a 8b       	std	Y+18, r24	; 0x12
    1d9a:	19 8a       	std	Y+17, r1	; 0x11
    1d9c:	8f 81       	ldd	r24, Y+7	; 0x07
    1d9e:	98 85       	ldd	r25, Y+8	; 0x08
    1da0:	dc 01       	movw	r26, r24
    1da2:	ed 91       	ld	r30, X+
    1da4:	fc 91       	ld	r31, X
    1da6:	04 80       	ldd	r0, Z+4	; 0x04
    1da8:	f5 81       	ldd	r31, Z+5	; 0x05
    1daa:	e0 2d       	mov	r30, r0
    1dac:	62 e0       	ldi	r22, 0x02	; 2
    1dae:	df 91       	pop	r29
    1db0:	cf 91       	pop	r28
    1db2:	1f 91       	pop	r17
    1db4:	0f 91       	pop	r16
    1db6:	09 94       	ijmp

00001db8 <_ZN5genos3avr5timerIjP12timer16_regsE11set_dividerEj>:
    1db8:	cf 93       	push	r28
    1dba:	df 93       	push	r29
    1dbc:	ec 01       	movw	r28, r24
    1dbe:	cb 01       	movw	r24, r22
    1dc0:	0e 94 40 16 	call	0x2c80	; 0x2c80 <_ZN5genos3avrL15tc_divider_codeEj.lto_priv.104.lto_priv.110>
    1dc4:	ea 81       	ldd	r30, Y+2	; 0x02
    1dc6:	fb 81       	ldd	r31, Y+3	; 0x03
    1dc8:	91 81       	ldd	r25, Z+1	; 0x01
    1dca:	98 7f       	andi	r25, 0xF8	; 248
    1dcc:	87 70       	andi	r24, 0x07	; 7
    1dce:	89 2b       	or	r24, r25
    1dd0:	81 83       	std	Z+1, r24	; 0x01
    1dd2:	80 e0       	ldi	r24, 0x00	; 0
    1dd4:	90 e0       	ldi	r25, 0x00	; 0
    1dd6:	df 91       	pop	r29
    1dd8:	cf 91       	pop	r28
    1dda:	08 95       	ret

00001ddc <_Z8spammer0PvPi>:
    1ddc:	2f 92       	push	r2
    1dde:	3f 92       	push	r3
    1de0:	4f 92       	push	r4
    1de2:	5f 92       	push	r5
    1de4:	6f 92       	push	r6
    1de6:	7f 92       	push	r7
    1de8:	8f 92       	push	r8
    1dea:	9f 92       	push	r9
    1dec:	af 92       	push	r10
    1dee:	bf 92       	push	r11
    1df0:	cf 92       	push	r12
    1df2:	df 92       	push	r13
    1df4:	ef 92       	push	r14
    1df6:	ff 92       	push	r15
    1df8:	0f 93       	push	r16
    1dfa:	1f 93       	push	r17
    1dfc:	cf 93       	push	r28
    1dfe:	df 93       	push	r29
    1e00:	cd b7       	in	r28, 0x3d	; 61
    1e02:	de b7       	in	r29, 0x3e	; 62
    1e04:	ae 97       	sbiw	r28, 0x2e	; 46
    1e06:	0f b6       	in	r0, 0x3f	; 63
    1e08:	f8 94       	cli
    1e0a:	de bf       	out	0x3e, r29	; 62
    1e0c:	0f be       	out	0x3f, r0	; 63
    1e0e:	cd bf       	out	0x3d, r28	; 61
    1e10:	80 90 be 0a 	lds	r8, 0x0ABE	; 0x800abe <i>
    1e14:	90 90 bf 0a 	lds	r9, 0x0ABF	; 0x800abf <i+0x1>
    1e18:	a0 90 c0 0a 	lds	r10, 0x0AC0	; 0x800ac0 <i+0x2>
    1e1c:	b0 90 c1 0a 	lds	r11, 0x0AC1	; 0x800ac1 <i+0x3>
    1e20:	d5 01       	movw	r26, r10
    1e22:	c4 01       	movw	r24, r8
    1e24:	01 96       	adiw	r24, 0x01	; 1
    1e26:	a1 1d       	adc	r26, r1
    1e28:	b1 1d       	adc	r27, r1
    1e2a:	80 93 be 0a 	sts	0x0ABE, r24	; 0x800abe <i>
    1e2e:	90 93 bf 0a 	sts	0x0ABF, r25	; 0x800abf <i+0x1>
    1e32:	a0 93 c0 0a 	sts	0x0AC0, r26	; 0x800ac0 <i+0x2>
    1e36:	b0 93 c1 0a 	sts	0x0AC1, r27	; 0x800ac1 <i+0x3>
    1e3a:	75 01       	movw	r14, r10
    1e3c:	64 01       	movw	r12, r8
    1e3e:	ff 0c       	add	r15, r15
    1e40:	cc 08       	sbc	r12, r12
    1e42:	dc 2c       	mov	r13, r12
    1e44:	76 01       	movw	r14, r12
    1e46:	94 01       	movw	r18, r8
    1e48:	a5 01       	movw	r20, r10
    1e4a:	6c 2d       	mov	r22, r12
    1e4c:	7c 2d       	mov	r23, r12
    1e4e:	8c 2d       	mov	r24, r12
    1e50:	9c 2d       	mov	r25, r12
    1e52:	a0 e0       	ldi	r26, 0x00	; 0
    1e54:	0e 94 da 20 	call	0x41b4	; 0x41b4 <__cmpdi2_s8>
    1e58:	84 f4       	brge	.+32     	; 0x1e7a <_Z8spammer0PvPi+0x9e>
    1e5a:	8d e2       	ldi	r24, 0x2D	; 45
    1e5c:	89 83       	std	Y+1, r24	; 0x01
    1e5e:	8c 2d       	mov	r24, r12
    1e60:	0e 94 be 20 	call	0x417c	; 0x417c <__negdi2>
    1e64:	32 2e       	mov	r3, r18
    1e66:	43 2e       	mov	r4, r19
    1e68:	54 2e       	mov	r5, r20
    1e6a:	85 2e       	mov	r8, r21
    1e6c:	6b a7       	std	Y+43, r22	; 0x2b
    1e6e:	7c a7       	std	Y+44, r23	; 0x2c
    1e70:	28 2e       	mov	r2, r24
    1e72:	99 2e       	mov	r9, r25
    1e74:	ce 01       	movw	r24, r28
    1e76:	02 96       	adiw	r24, 0x02	; 2
    1e78:	0b c0       	rjmp	.+22     	; 0x1e90 <_Z8spammer0PvPi+0xb4>
    1e7a:	19 82       	std	Y+1, r1	; 0x01
    1e7c:	38 2c       	mov	r3, r8
    1e7e:	49 2c       	mov	r4, r9
    1e80:	5a 2c       	mov	r5, r10
    1e82:	8b 2c       	mov	r8, r11
    1e84:	cb a6       	std	Y+43, r12	; 0x2b
    1e86:	cc a6       	std	Y+44, r12	; 0x2c
    1e88:	2c 2c       	mov	r2, r12
    1e8a:	9c 2c       	mov	r9, r12
    1e8c:	ce 01       	movw	r24, r28
    1e8e:	01 96       	adiw	r24, 0x01	; 1
    1e90:	9a a7       	std	Y+42, r25	; 0x2a
    1e92:	89 a7       	std	Y+41, r24	; 0x29
    1e94:	9e a7       	std	Y+46, r25	; 0x2e
    1e96:	8d a7       	std	Y+45, r24	; 0x2d
    1e98:	6d a4       	ldd	r6, Y+45	; 0x2d
    1e9a:	7e a4       	ldd	r7, Y+46	; 0x2e
    1e9c:	8a e0       	ldi	r24, 0x0A	; 10
    1e9e:	a8 2e       	mov	r10, r24
    1ea0:	b1 2c       	mov	r11, r1
    1ea2:	c1 2c       	mov	r12, r1
    1ea4:	d1 2c       	mov	r13, r1
    1ea6:	e1 2c       	mov	r14, r1
    1ea8:	f1 2c       	mov	r15, r1
    1eaa:	00 e0       	ldi	r16, 0x00	; 0
    1eac:	10 e0       	ldi	r17, 0x00	; 0
    1eae:	23 2d       	mov	r18, r3
    1eb0:	34 2d       	mov	r19, r4
    1eb2:	45 2d       	mov	r20, r5
    1eb4:	58 2d       	mov	r21, r8
    1eb6:	6b a5       	ldd	r22, Y+43	; 0x2b
    1eb8:	7c a5       	ldd	r23, Y+44	; 0x2c
    1eba:	82 2d       	mov	r24, r2
    1ebc:	99 2d       	mov	r25, r9
    1ebe:	0e 94 5f 20 	call	0x40be	; 0x40be <__umoddi3>
    1ec2:	20 5d       	subi	r18, 0xD0	; 208
    1ec4:	f3 01       	movw	r30, r6
    1ec6:	20 83       	st	Z, r18
    1ec8:	c3 01       	movw	r24, r6
    1eca:	01 96       	adiw	r24, 0x01	; 1
    1ecc:	9e a7       	std	Y+46, r25	; 0x2e
    1ece:	8d a7       	std	Y+45, r24	; 0x2d
    1ed0:	23 2d       	mov	r18, r3
    1ed2:	34 2d       	mov	r19, r4
    1ed4:	45 2d       	mov	r20, r5
    1ed6:	58 2d       	mov	r21, r8
    1ed8:	6b a5       	ldd	r22, Y+43	; 0x2b
    1eda:	7c a5       	ldd	r23, Y+44	; 0x2c
    1edc:	82 2d       	mov	r24, r2
    1ede:	99 2d       	mov	r25, r9
    1ee0:	0e 94 61 20 	call	0x40c2	; 0x40c2 <__udivdi3>
    1ee4:	32 2e       	mov	r3, r18
    1ee6:	43 2e       	mov	r4, r19
    1ee8:	54 2e       	mov	r5, r20
    1eea:	85 2e       	mov	r8, r21
    1eec:	6b a7       	std	Y+43, r22	; 0x2b
    1eee:	7c a7       	std	Y+44, r23	; 0x2c
    1ef0:	28 2e       	mov	r2, r24
    1ef2:	99 2e       	mov	r9, r25
    1ef4:	a0 e0       	ldi	r26, 0x00	; 0
    1ef6:	0e 94 da 20 	call	0x41b4	; 0x41b4 <__cmpdi2_s8>
    1efa:	71 f6       	brne	.-100    	; 0x1e98 <_Z8spammer0PvPi+0xbc>
    1efc:	f3 01       	movw	r30, r6
    1efe:	11 82       	std	Z+1, r1	; 0x01
    1f00:	89 a5       	ldd	r24, Y+41	; 0x29
    1f02:	9a a5       	ldd	r25, Y+42	; 0x2a
    1f04:	86 15       	cp	r24, r6
    1f06:	97 05       	cpc	r25, r7
    1f08:	80 f4       	brcc	.+32     	; 0x1f2a <_Z8spammer0PvPi+0x14e>
    1f0a:	e9 a5       	ldd	r30, Y+41	; 0x29
    1f0c:	fa a5       	ldd	r31, Y+42	; 0x2a
    1f0e:	80 81       	ld	r24, Z
    1f10:	f3 01       	movw	r30, r6
    1f12:	90 81       	ld	r25, Z
    1f14:	e9 a5       	ldd	r30, Y+41	; 0x29
    1f16:	fa a5       	ldd	r31, Y+42	; 0x2a
    1f18:	91 93       	st	Z+, r25
    1f1a:	fa a7       	std	Y+42, r31	; 0x2a
    1f1c:	e9 a7       	std	Y+41, r30	; 0x29
    1f1e:	f3 01       	movw	r30, r6
    1f20:	80 83       	st	Z, r24
    1f22:	f1 e0       	ldi	r31, 0x01	; 1
    1f24:	6f 1a       	sub	r6, r31
    1f26:	71 08       	sbc	r7, r1
    1f28:	eb cf       	rjmp	.-42     	; 0x1f00 <_Z8spammer0PvPi+0x124>
    1f2a:	80 91 bc 0a 	lds	r24, 0x0ABC	; 0x800abc <raddr_len>
    1f2e:	de 01       	movw	r26, r28
    1f30:	11 96       	adiw	r26, 0x01	; 1
    1f32:	fd 01       	movw	r30, r26
    1f34:	01 90       	ld	r0, Z+
    1f36:	00 20       	and	r0, r0
    1f38:	e9 f7       	brne	.-6      	; 0x1f34 <_Z8spammer0PvPi+0x158>
    1f3a:	31 97       	sbiw	r30, 0x01	; 1
    1f3c:	ea 1b       	sub	r30, r26
    1f3e:	fb 0b       	sbc	r31, r27
    1f40:	91 e0       	ldi	r25, 0x01	; 1
    1f42:	9f a3       	std	Y+39, r25	; 0x27
    1f44:	97 e0       	ldi	r25, 0x07	; 7
    1f46:	98 a7       	std	Y+40, r25	; 0x28
    1f48:	af 01       	movw	r20, r30
    1f4a:	55 27       	eor	r21, r21
    1f4c:	5e a3       	std	Y+38, r21	; 0x26
    1f4e:	4d a3       	std	Y+37, r20	; 0x25
    1f50:	be 01       	movw	r22, r28
    1f52:	6b 5e       	subi	r22, 0xEB	; 235
    1f54:	7f 4f       	sbci	r23, 0xFF	; 255
    1f56:	90 e1       	ldi	r25, 0x10	; 16
    1f58:	fb 01       	movw	r30, r22
    1f5a:	11 92       	st	Z+, r1
    1f5c:	9a 95       	dec	r25
    1f5e:	e9 f7       	brne	.-6      	; 0x1f5a <_Z8spammer0PvPi+0x17e>
    1f60:	22 e0       	ldi	r18, 0x02	; 2
    1f62:	30 e0       	ldi	r19, 0x00	; 0
    1f64:	38 8f       	std	Y+24, r19	; 0x18
    1f66:	2f 8b       	std	Y+23, r18	; 0x17
    1f68:	3c 8f       	std	Y+28, r19	; 0x1c
    1f6a:	2b 8f       	std	Y+27, r18	; 0x1b
    1f6c:	9e 01       	movw	r18, r28
    1f6e:	29 5d       	subi	r18, 0xD9	; 217
    1f70:	3f 4f       	sbci	r19, 0xFF	; 255
    1f72:	3e 8b       	std	Y+22, r19	; 0x16
    1f74:	2d 8b       	std	Y+21, r18	; 0x15
    1f76:	22 50       	subi	r18, 0x02	; 2
    1f78:	31 09       	sbc	r19, r1
    1f7a:	3a 8f       	std	Y+26, r19	; 0x1a
    1f7c:	29 8f       	std	Y+25, r18	; 0x19
    1f7e:	2f ec       	ldi	r18, 0xCF	; 207
    1f80:	33 e0       	ldi	r19, 0x03	; 3
    1f82:	3e 8f       	std	Y+30, r19	; 0x1e
    1f84:	2d 8f       	std	Y+29, r18	; 0x1d
    1f86:	27 e0       	ldi	r18, 0x07	; 7
    1f88:	30 e0       	ldi	r19, 0x00	; 0
    1f8a:	38 a3       	std	Y+32, r19	; 0x20
    1f8c:	2f 8f       	std	Y+31, r18	; 0x1f
    1f8e:	ba a3       	std	Y+34, r27	; 0x22
    1f90:	a9 a3       	std	Y+33, r26	; 0x21
    1f92:	5c a3       	std	Y+36, r21	; 0x24
    1f94:	4b a3       	std	Y+35, r20	; 0x23
    1f96:	44 e0       	ldi	r20, 0x04	; 4
    1f98:	50 e0       	ldi	r21, 0x00	; 0
    1f9a:	0e 94 13 0c 	call	0x1826	; 0x1826 <_ZN4crow6send_vEPKvhPK5iovecjhhj.constprop.79>
    1f9e:	88 ee       	ldi	r24, 0xE8	; 232
    1fa0:	93 e0       	ldi	r25, 0x03	; 3
    1fa2:	0e 94 f2 16 	call	0x2de4	; 0x2de4 <msleep>
    1fa6:	ae 96       	adiw	r28, 0x2e	; 46
    1fa8:	0f b6       	in	r0, 0x3f	; 63
    1faa:	f8 94       	cli
    1fac:	de bf       	out	0x3e, r29	; 62
    1fae:	0f be       	out	0x3f, r0	; 63
    1fb0:	cd bf       	out	0x3d, r28	; 61
    1fb2:	df 91       	pop	r29
    1fb4:	cf 91       	pop	r28
    1fb6:	1f 91       	pop	r17
    1fb8:	0f 91       	pop	r16
    1fba:	ff 90       	pop	r15
    1fbc:	ef 90       	pop	r14
    1fbe:	df 90       	pop	r13
    1fc0:	cf 90       	pop	r12
    1fc2:	bf 90       	pop	r11
    1fc4:	af 90       	pop	r10
    1fc6:	9f 90       	pop	r9
    1fc8:	8f 90       	pop	r8
    1fca:	7f 90       	pop	r7
    1fcc:	6f 90       	pop	r6
    1fce:	5f 90       	pop	r5
    1fd0:	4f 90       	pop	r4
    1fd2:	3f 90       	pop	r3
    1fd4:	2f 90       	pop	r2
    1fd6:	08 95       	ret

00001fd8 <_Z7updaterPv>:
    1fd8:	cf 93       	push	r28
    1fda:	df 93       	push	r29
    1fdc:	00 d0       	rcall	.+0      	; 0x1fde <_Z7updaterPv+0x6>
    1fde:	cd b7       	in	r28, 0x3d	; 61
    1fe0:	de b7       	in	r29, 0x3e	; 62
    1fe2:	78 94       	sei
    1fe4:	88 e4       	ldi	r24, 0x48	; 72
    1fe6:	80 93 b8 00 	sts	0x00B8, r24	; 0x8000b8 <__TEXT_REGION_LENGTH__+0x7e00b8>
    1fea:	10 92 b9 00 	sts	0x00B9, r1	; 0x8000b9 <__TEXT_REGION_LENGTH__+0x7e00b9>
    1fee:	80 e7       	ldi	r24, 0x70	; 112
    1ff0:	93 e0       	ldi	r25, 0x03	; 3
    1ff2:	90 93 b7 08 	sts	0x08B7, r25	; 0x8008b7 <irqtable+0x8b>
    1ff6:	80 93 b6 08 	sts	0x08B6, r24	; 0x8008b6 <irqtable+0x8a>
    1ffa:	86 e6       	ldi	r24, 0x66	; 102
    1ffc:	9a e0       	ldi	r25, 0x0A	; 10
    1ffe:	90 93 b9 08 	sts	0x08B9, r25	; 0x8008b9 <irqtable+0x8d>
    2002:	80 93 b8 08 	sts	0x08B8, r24	; 0x8008b8 <irqtable+0x8c>
    2006:	20 91 bc 00 	lds	r18, 0x00BC	; 0x8000bc <__TEXT_REGION_LENGTH__+0x7e00bc>
    200a:	25 60       	ori	r18, 0x05	; 5
    200c:	20 93 bc 00 	sts	0x00BC, r18	; 0x8000bc <__TEXT_REGION_LENGTH__+0x7e00bc>
    2010:	90 93 27 0a 	sts	0x0A27, r25	; 0x800a27 <mshield+0x1>
    2014:	80 93 26 0a 	sts	0x0A26, r24	; 0x800a26 <mshield>
    2018:	90 93 64 0a 	sts	0x0A64, r25	; 0x800a64 <mshield+0x3e>
    201c:	80 93 63 0a 	sts	0x0A63, r24	; 0x800a63 <mshield+0x3d>
    2020:	60 e0       	ldi	r22, 0x00	; 0
    2022:	80 e0       	ldi	r24, 0x00	; 0
    2024:	0e 94 32 0d 	call	0x1a64	; 0x1a64 <_ZN26Adafruit_MS_PWMServoDriver6write8Ehh.constprop.54>
    2028:	80 e4       	ldi	r24, 0x40	; 64
    202a:	96 e0       	ldi	r25, 0x06	; 6
    202c:	90 93 2a 0a 	sts	0x0A2A, r25	; 0x800a2a <mshield+0x4>
    2030:	80 93 29 0a 	sts	0x0A29, r24	; 0x800a29 <mshield+0x3>
    2034:	19 82       	std	Y+1, r1	; 0x01
    2036:	c0 90 63 0a 	lds	r12, 0x0A63	; 0x800a63 <mshield+0x3d>
    203a:	d0 90 64 0a 	lds	r13, 0x0A64	; 0x800a64 <mshield+0x3e>
    203e:	d6 01       	movw	r26, r12
    2040:	ed 91       	ld	r30, X+
    2042:	fc 91       	ld	r31, X
    2044:	02 80       	ldd	r0, Z+2	; 0x02
    2046:	f3 81       	ldd	r31, Z+3	; 0x03
    2048:	e0 2d       	mov	r30, r0
    204a:	ee 24       	eor	r14, r14
    204c:	e3 94       	inc	r14
    204e:	f1 2c       	mov	r15, r1
    2050:	8e 01       	movw	r16, r28
    2052:	0e 5f       	subi	r16, 0xFE	; 254
    2054:	1f 4f       	sbci	r17, 0xFF	; 255
    2056:	21 e0       	ldi	r18, 0x01	; 1
    2058:	30 e0       	ldi	r19, 0x00	; 0
    205a:	ae 01       	movw	r20, r28
    205c:	4f 5f       	subi	r20, 0xFF	; 255
    205e:	5f 4f       	sbci	r21, 0xFF	; 255
    2060:	60 91 65 0a 	lds	r22, 0x0A65	; 0x800a65 <mshield+0x3f>
    2064:	c6 01       	movw	r24, r12
    2066:	09 95       	icall
    2068:	c6 01       	movw	r24, r12
    206a:	03 96       	adiw	r24, 0x03	; 3
    206c:	0e 94 7f 0c 	call	0x18fe	; 0x18fe <wait_current_schedee.constprop.71>
    2070:	d6 01       	movw	r26, r12
    2072:	ed 91       	ld	r30, X+
    2074:	fc 91       	ld	r31, X
    2076:	04 80       	ldd	r0, Z+4	; 0x04
    2078:	f5 81       	ldd	r31, Z+5	; 0x05
    207a:	e0 2d       	mov	r30, r0
    207c:	c6 01       	movw	r24, r12
    207e:	09 95       	icall
    2080:	1a 81       	ldd	r17, Y+2	; 0x02
    2082:	61 2f       	mov	r22, r17
    2084:	6f 76       	andi	r22, 0x6F	; 111
    2086:	60 61       	ori	r22, 0x10	; 16
    2088:	80 e0       	ldi	r24, 0x00	; 0
    208a:	0e 94 32 0d 	call	0x1a64	; 0x1a64 <_ZN26Adafruit_MS_PWMServoDriver6write8Ehh.constprop.54>
    208e:	63 e0       	ldi	r22, 0x03	; 3
    2090:	8e ef       	ldi	r24, 0xFE	; 254
    2092:	0e 94 32 0d 	call	0x1a64	; 0x1a64 <_ZN26Adafruit_MS_PWMServoDriver6write8Ehh.constprop.54>
    2096:	61 2f       	mov	r22, r17
    2098:	80 e0       	ldi	r24, 0x00	; 0
    209a:	0e 94 32 0d 	call	0x1a64	; 0x1a64 <_ZN26Adafruit_MS_PWMServoDriver6write8Ehh.constprop.54>
    209e:	85 e0       	ldi	r24, 0x05	; 5
    20a0:	90 e0       	ldi	r25, 0x00	; 0
    20a2:	0e 94 f2 16 	call	0x2de4	; 0x2de4 <msleep>
    20a6:	61 2f       	mov	r22, r17
    20a8:	61 6a       	ori	r22, 0xA1	; 161
    20aa:	80 e0       	ldi	r24, 0x00	; 0
    20ac:	0e 94 32 0d 	call	0x1a64	; 0x1a64 <_ZN26Adafruit_MS_PWMServoDriver6write8Ehh.constprop.54>
    20b0:	10 e0       	ldi	r17, 0x00	; 0
    20b2:	20 e0       	ldi	r18, 0x00	; 0
    20b4:	30 e0       	ldi	r19, 0x00	; 0
    20b6:	40 e0       	ldi	r20, 0x00	; 0
    20b8:	50 e0       	ldi	r21, 0x00	; 0
    20ba:	61 2f       	mov	r22, r17
    20bc:	83 e6       	ldi	r24, 0x63	; 99
    20be:	9a e0       	ldi	r25, 0x0A	; 10
    20c0:	0e 94 f7 18 	call	0x31ee	; 0x31ee <_ZN26Adafruit_MS_PWMServoDriver6setPWMEhjj>
    20c4:	1f 5f       	subi	r17, 0xFF	; 255
    20c6:	10 31       	cpi	r17, 0x10	; 16
    20c8:	a1 f7       	brne	.-24     	; 0x20b2 <_Z7updaterPv+0xda>
    20ca:	80 91 30 0a 	lds	r24, 0x0A30	; 0x800a30 <mshield+0xa>
    20ce:	81 11       	cpse	r24, r1
    20d0:	11 c0       	rjmp	.+34     	; 0x20f4 <_Z7updaterPv+0x11c>
    20d2:	10 92 30 0a 	sts	0x0A30, r1	; 0x800a30 <mshield+0xa>
    20d6:	86 e2       	ldi	r24, 0x26	; 38
    20d8:	9a e0       	ldi	r25, 0x0A	; 10
    20da:	90 93 2f 0a 	sts	0x0A2F, r25	; 0x800a2f <mshield+0x9>
    20de:	80 93 2e 0a 	sts	0x0A2E, r24	; 0x800a2e <mshield+0x8>
    20e2:	88 e0       	ldi	r24, 0x08	; 8
    20e4:	80 93 2b 0a 	sts	0x0A2B, r24	; 0x800a2b <mshield+0x5>
    20e8:	8a e0       	ldi	r24, 0x0A	; 10
    20ea:	80 93 2c 0a 	sts	0x0A2C, r24	; 0x800a2c <mshield+0x6>
    20ee:	89 e0       	ldi	r24, 0x09	; 9
    20f0:	80 93 2d 0a 	sts	0x0A2D, r24	; 0x800a2d <mshield+0x7>
    20f4:	8b e2       	ldi	r24, 0x2B	; 43
    20f6:	9a e0       	ldi	r25, 0x0A	; 10
    20f8:	90 93 59 09 	sts	0x0959, r25	; 0x800959 <motors+0xf>
    20fc:	80 93 58 09 	sts	0x0958, r24	; 0x800958 <motors+0xe>
    2100:	80 91 36 0a 	lds	r24, 0x0A36	; 0x800a36 <mshield+0x10>
    2104:	81 11       	cpse	r24, r1
    2106:	12 c0       	rjmp	.+36     	; 0x212c <_Z7updaterPv+0x154>
    2108:	81 e0       	ldi	r24, 0x01	; 1
    210a:	80 93 36 0a 	sts	0x0A36, r24	; 0x800a36 <mshield+0x10>
    210e:	86 e2       	ldi	r24, 0x26	; 38
    2110:	9a e0       	ldi	r25, 0x0A	; 10
    2112:	90 93 35 0a 	sts	0x0A35, r25	; 0x800a35 <mshield+0xf>
    2116:	80 93 34 0a 	sts	0x0A34, r24	; 0x800a34 <mshield+0xe>
    211a:	8d e0       	ldi	r24, 0x0D	; 13
    211c:	80 93 31 0a 	sts	0x0A31, r24	; 0x800a31 <mshield+0xb>
    2120:	8b e0       	ldi	r24, 0x0B	; 11
    2122:	80 93 32 0a 	sts	0x0A32, r24	; 0x800a32 <mshield+0xc>
    2126:	8c e0       	ldi	r24, 0x0C	; 12
    2128:	80 93 33 0a 	sts	0x0A33, r24	; 0x800a33 <mshield+0xd>
    212c:	81 e3       	ldi	r24, 0x31	; 49
    212e:	9a e0       	ldi	r25, 0x0A	; 10
    2130:	90 93 5f 09 	sts	0x095F, r25	; 0x80095f <motors+0x15>
    2134:	80 93 5e 09 	sts	0x095E, r24	; 0x80095e <motors+0x14>
    2138:	80 91 3c 0a 	lds	r24, 0x0A3C	; 0x800a3c <mshield+0x16>
    213c:	81 11       	cpse	r24, r1
    213e:	11 c0       	rjmp	.+34     	; 0x2162 <_Z7updaterPv+0x18a>
    2140:	82 e0       	ldi	r24, 0x02	; 2
    2142:	80 93 3c 0a 	sts	0x0A3C, r24	; 0x800a3c <mshield+0x16>
    2146:	26 e2       	ldi	r18, 0x26	; 38
    2148:	3a e0       	ldi	r19, 0x0A	; 10
    214a:	30 93 3b 0a 	sts	0x0A3B, r19	; 0x800a3b <mshield+0x15>
    214e:	20 93 3a 0a 	sts	0x0A3A, r18	; 0x800a3a <mshield+0x14>
    2152:	80 93 37 0a 	sts	0x0A37, r24	; 0x800a37 <mshield+0x11>
    2156:	84 e0       	ldi	r24, 0x04	; 4
    2158:	80 93 38 0a 	sts	0x0A38, r24	; 0x800a38 <mshield+0x12>
    215c:	83 e0       	ldi	r24, 0x03	; 3
    215e:	80 93 39 0a 	sts	0x0A39, r24	; 0x800a39 <mshield+0x13>
    2162:	87 e3       	ldi	r24, 0x37	; 55
    2164:	9a e0       	ldi	r25, 0x0A	; 10
    2166:	90 93 53 09 	sts	0x0953, r25	; 0x800953 <motors+0x9>
    216a:	80 93 52 09 	sts	0x0952, r24	; 0x800952 <motors+0x8>
    216e:	80 91 42 0a 	lds	r24, 0x0A42	; 0x800a42 <mshield+0x1c>
    2172:	81 11       	cpse	r24, r1
    2174:	12 c0       	rjmp	.+36     	; 0x219a <_Z7updaterPv+0x1c2>
    2176:	83 e0       	ldi	r24, 0x03	; 3
    2178:	80 93 42 0a 	sts	0x0A42, r24	; 0x800a42 <mshield+0x1c>
    217c:	86 e2       	ldi	r24, 0x26	; 38
    217e:	9a e0       	ldi	r25, 0x0A	; 10
    2180:	90 93 41 0a 	sts	0x0A41, r25	; 0x800a41 <mshield+0x1b>
    2184:	80 93 40 0a 	sts	0x0A40, r24	; 0x800a40 <mshield+0x1a>
    2188:	87 e0       	ldi	r24, 0x07	; 7
    218a:	80 93 3d 0a 	sts	0x0A3D, r24	; 0x800a3d <mshield+0x17>
    218e:	85 e0       	ldi	r24, 0x05	; 5
    2190:	80 93 3e 0a 	sts	0x0A3E, r24	; 0x800a3e <mshield+0x18>
    2194:	86 e0       	ldi	r24, 0x06	; 6
    2196:	80 93 3f 0a 	sts	0x0A3F, r24	; 0x800a3f <mshield+0x19>
    219a:	8d e3       	ldi	r24, 0x3D	; 61
    219c:	9a e0       	ldi	r25, 0x0A	; 10
    219e:	90 93 4d 09 	sts	0x094D, r25	; 0x80094d <motors+0x3>
    21a2:	80 93 4c 09 	sts	0x094C, r24	; 0x80094c <motors+0x2>
    21a6:	80 91 bb 0a 	lds	r24, 0x0ABB	; 0x800abb <en>
    21aa:	88 23       	and	r24, r24
    21ac:	89 f0       	breq	.+34     	; 0x21d0 <_Z7updaterPv+0x1f8>
    21ae:	20 91 b7 0a 	lds	r18, 0x0AB7	; 0x800ab7 <rpower>
    21b2:	30 91 b8 0a 	lds	r19, 0x0AB8	; 0x800ab8 <rpower+0x1>
    21b6:	40 91 b9 0a 	lds	r20, 0x0AB9	; 0x800ab9 <rpower+0x2>
    21ba:	50 91 ba 0a 	lds	r21, 0x0ABA	; 0x800aba <rpower+0x3>
    21be:	60 91 b3 0a 	lds	r22, 0x0AB3	; 0x800ab3 <lpower>
    21c2:	70 91 b4 0a 	lds	r23, 0x0AB4	; 0x800ab4 <lpower+0x1>
    21c6:	80 91 b5 0a 	lds	r24, 0x0AB5	; 0x800ab5 <lpower+0x2>
    21ca:	90 91 b6 0a 	lds	r25, 0x0AB6	; 0x800ab6 <lpower+0x3>
    21ce:	05 c0       	rjmp	.+10     	; 0x21da <_Z7updaterPv+0x202>
    21d0:	20 e0       	ldi	r18, 0x00	; 0
    21d2:	30 e0       	ldi	r19, 0x00	; 0
    21d4:	a9 01       	movw	r20, r18
    21d6:	ca 01       	movw	r24, r20
    21d8:	b9 01       	movw	r22, r18
    21da:	0e 94 ea 05 	call	0xbd4	; 0xbd4 <_Z10motors_runff>
    21de:	8a e0       	ldi	r24, 0x0A	; 10
    21e0:	90 e0       	ldi	r25, 0x00	; 0
    21e2:	0e 94 f2 16 	call	0x2de4	; 0x2de4 <msleep>
    21e6:	df cf       	rjmp	.-66     	; 0x21a6 <_Z7updaterPv+0x1ce>

000021e8 <_ZN5genos3avr8pwmservo19standart_timer_modeEv.isra.10.lto_priv.138>:
    21e8:	dc 01       	movw	r26, r24
    21ea:	12 96       	adiw	r26, 0x02	; 2
    21ec:	ed 91       	ld	r30, X+
    21ee:	fc 91       	ld	r31, X
    21f0:	13 97       	sbiw	r26, 0x03	; 3
    21f2:	82 ee       	ldi	r24, 0xE2	; 226
    21f4:	94 e0       	ldi	r25, 0x04	; 4
    21f6:	97 83       	std	Z+7, r25	; 0x07
    21f8:	86 83       	std	Z+6, r24	; 0x06
    21fa:	90 81       	ld	r25, Z
    21fc:	9c 7f       	andi	r25, 0xFC	; 252
    21fe:	92 60       	ori	r25, 0x02	; 2
    2200:	90 83       	st	Z, r25
    2202:	12 96       	adiw	r26, 0x02	; 2
    2204:	ed 91       	ld	r30, X+
    2206:	fc 91       	ld	r31, X
    2208:	13 97       	sbiw	r26, 0x03	; 3
    220a:	81 81       	ldd	r24, Z+1	; 0x01
    220c:	88 61       	ori	r24, 0x18	; 24
    220e:	81 83       	std	Z+1, r24	; 0x01
    2210:	ed 91       	ld	r30, X+
    2212:	fc 91       	ld	r31, X
    2214:	11 97       	sbiw	r26, 0x01	; 1
    2216:	01 90       	ld	r0, Z+
    2218:	f0 81       	ld	r31, Z
    221a:	e0 2d       	mov	r30, r0
    221c:	60 e0       	ldi	r22, 0x00	; 0
    221e:	71 e0       	ldi	r23, 0x01	; 1
    2220:	cd 01       	movw	r24, r26
    2222:	09 95       	icall
    2224:	80 e0       	ldi	r24, 0x00	; 0
    2226:	90 e0       	ldi	r25, 0x00	; 0
    2228:	08 95       	ret

0000222a <_ZN5genos3avr15pwmservo_writerIjE3setEf>:
    222a:	8f 92       	push	r8
    222c:	9f 92       	push	r9
    222e:	af 92       	push	r10
    2230:	bf 92       	push	r11
    2232:	cf 92       	push	r12
    2234:	df 92       	push	r13
    2236:	ef 92       	push	r14
    2238:	ff 92       	push	r15
    223a:	0f 93       	push	r16
    223c:	1f 93       	push	r17
    223e:	cf 93       	push	r28
    2240:	df 93       	push	r29
    2242:	ec 01       	movw	r28, r24
    2244:	6a 01       	movw	r12, r20
    2246:	7b 01       	movw	r14, r22
    2248:	08 81       	ld	r16, Y
    224a:	19 81       	ldd	r17, Y+1	; 0x01
    224c:	6a 81       	ldd	r22, Y+2	; 0x02
    224e:	7b 81       	ldd	r23, Y+3	; 0x03
    2250:	80 e0       	ldi	r24, 0x00	; 0
    2252:	90 e0       	ldi	r25, 0x00	; 0
    2254:	0e 94 df 1e 	call	0x3dbe	; 0x3dbe <__floatunsisf>
    2258:	4b 01       	movw	r8, r22
    225a:	5c 01       	movw	r10, r24
    225c:	a7 01       	movw	r20, r14
    225e:	96 01       	movw	r18, r12
    2260:	60 e0       	ldi	r22, 0x00	; 0
    2262:	70 e0       	ldi	r23, 0x00	; 0
    2264:	80 e8       	ldi	r24, 0x80	; 128
    2266:	9f e3       	ldi	r25, 0x3F	; 63
    2268:	0e 94 c5 1d 	call	0x3b8a	; 0x3b8a <__subsf3>
    226c:	9b 01       	movw	r18, r22
    226e:	ac 01       	movw	r20, r24
    2270:	c5 01       	movw	r24, r10
    2272:	b4 01       	movw	r22, r8
    2274:	0e 94 96 1f 	call	0x3f2c	; 0x3f2c <__mulsf3>
    2278:	4b 01       	movw	r8, r22
    227a:	5c 01       	movw	r10, r24
    227c:	6c 81       	ldd	r22, Y+4	; 0x04
    227e:	7d 81       	ldd	r23, Y+5	; 0x05
    2280:	80 e0       	ldi	r24, 0x00	; 0
    2282:	90 e0       	ldi	r25, 0x00	; 0
    2284:	0e 94 df 1e 	call	0x3dbe	; 0x3dbe <__floatunsisf>
    2288:	a7 01       	movw	r20, r14
    228a:	96 01       	movw	r18, r12
    228c:	0e 94 96 1f 	call	0x3f2c	; 0x3f2c <__mulsf3>
    2290:	9b 01       	movw	r18, r22
    2292:	ac 01       	movw	r20, r24
    2294:	c5 01       	movw	r24, r10
    2296:	b4 01       	movw	r22, r8
    2298:	0e 94 c6 1d 	call	0x3b8c	; 0x3b8c <__addsf3>
    229c:	0e 94 b0 1e 	call	0x3d60	; 0x3d60 <__fixunssfsi>
    22a0:	f8 01       	movw	r30, r16
    22a2:	71 83       	std	Z+1, r23	; 0x01
    22a4:	60 83       	st	Z, r22
    22a6:	df 91       	pop	r29
    22a8:	cf 91       	pop	r28
    22aa:	1f 91       	pop	r17
    22ac:	0f 91       	pop	r16
    22ae:	ff 90       	pop	r15
    22b0:	ef 90       	pop	r14
    22b2:	df 90       	pop	r13
    22b4:	cf 90       	pop	r12
    22b6:	bf 90       	pop	r11
    22b8:	af 90       	pop	r10
    22ba:	9f 90       	pop	r9
    22bc:	8f 90       	pop	r8
    22be:	08 95       	ret

000022c0 <_ZN4crow15allocate_packetEj>:
    22c0:	cf 93       	push	r28
    22c2:	df 93       	push	r29
    22c4:	83 ea       	ldi	r24, 0xA3	; 163
    22c6:	91 e0       	ldi	r25, 0x01	; 1
    22c8:	0e 94 a5 19 	call	0x334a	; 0x334a <debug_print>
    22cc:	8c ed       	ldi	r24, 0xDC	; 220
    22ce:	93 e0       	ldi	r25, 0x03	; 3
    22d0:	0e 94 a5 19 	call	0x334a	; 0x334a <debug_print>
    22d4:	0e 94 0b 18 	call	0x3016	; 0x3016 <debug_print_newline.lto_priv.100.lto_priv.109>
    22d8:	0e 94 49 19 	call	0x3292	; 0x3292 <system_lock>
    22dc:	e0 91 e2 0a 	lds	r30, 0x0AE2	; 0x800ae2 <_crow_packet_pool>
    22e0:	f0 91 e3 0a 	lds	r31, 0x0AE3	; 0x800ae3 <_crow_packet_pool+0x1>
    22e4:	8a e0       	ldi	r24, 0x0A	; 10
    22e6:	e2 3e       	cpi	r30, 0xE2	; 226
    22e8:	f8 07       	cpc	r31, r24
    22ea:	49 f0       	breq	.+18     	; 0x22fe <_ZN4crow15allocate_packetEj+0x3e>
    22ec:	80 81       	ld	r24, Z
    22ee:	91 81       	ldd	r25, Z+1	; 0x01
    22f0:	90 93 e3 0a 	sts	0x0AE3, r25	; 0x800ae3 <_crow_packet_pool+0x1>
    22f4:	80 93 e2 0a 	sts	0x0AE2, r24	; 0x800ae2 <_crow_packet_pool>
    22f8:	de 2f       	mov	r29, r30
    22fa:	cf 2f       	mov	r28, r31
    22fc:	02 c0       	rjmp	.+4      	; 0x2302 <_ZN4crow15allocate_packetEj+0x42>
    22fe:	d0 e0       	ldi	r29, 0x00	; 0
    2300:	c0 e0       	ldi	r28, 0x00	; 0
    2302:	0e 94 36 19 	call	0x326c	; 0x326c <system_unlock>
    2306:	8d 2f       	mov	r24, r29
    2308:	9c 2f       	mov	r25, r28
    230a:	df 91       	pop	r29
    230c:	cf 91       	pop	r28
    230e:	08 95       	ret

00002310 <__schedule__>:
    2310:	85 e0       	ldi	r24, 0x05	; 5
    2312:	d8 2e       	mov	r13, r24
    2314:	04 ed       	ldi	r16, 0xD4	; 212
    2316:	1a e0       	ldi	r17, 0x0A	; 10
    2318:	94 e0       	ldi	r25, 0x04	; 4
    231a:	c9 2e       	mov	r12, r25
    231c:	87 ed       	ldi	r24, 0xD7	; 215
    231e:	93 e0       	ldi	r25, 0x03	; 3
    2320:	0e 94 a5 19 	call	0x334a	; 0x334a <debug_print>
    2324:	0e 94 0b 18 	call	0x3016	; 0x3016 <debug_print_newline.lto_priv.100.lto_priv.109>
    2328:	c0 91 09 09 	lds	r28, 0x0909	; 0x800909 <crow_gateways>
    232c:	d0 91 0a 09 	lds	r29, 0x090A	; 0x80090a <crow_gateways+0x1>
    2330:	29 e0       	ldi	r18, 0x09	; 9
    2332:	c9 30       	cpi	r28, 0x09	; 9
    2334:	d2 07       	cpc	r29, r18
    2336:	09 f4       	brne	.+2      	; 0x233a <__schedule__+0x2a>
    2338:	59 c0       	rjmp	.+178    	; 0x23ec <__schedule__+0xdc>
    233a:	de 01       	movw	r26, r28
    233c:	fe 91       	ld	r31, -X
    233e:	ee 91       	ld	r30, -X
    2340:	cd 01       	movw	r24, r26
    2342:	02 80       	ldd	r0, Z+2	; 0x02
    2344:	f3 81       	ldd	r31, Z+3	; 0x03
    2346:	e0 2d       	mov	r30, r0
    2348:	09 95       	icall
    234a:	09 90       	ld	r0, Y+
    234c:	d8 81       	ld	r29, Y
    234e:	c0 2d       	mov	r28, r0
    2350:	ef cf       	rjmp	.-34     	; 0x2330 <__schedule__+0x20>
    2352:	ce 01       	movw	r24, r28
    2354:	0e 94 a6 16 	call	0x2d4c	; 0x2d4c <dlist_del_init.lto_priv.113.lto_priv.130>
    2358:	0e 94 36 19 	call	0x326c	; 0x326c <system_unlock>
    235c:	8b 89       	ldd	r24, Y+19	; 0x13
    235e:	9a 89       	ldd	r25, Y+18	; 0x12
    2360:	e8 2f       	mov	r30, r24
    2362:	f0 e0       	ldi	r31, 0x00	; 0
    2364:	89 13       	cpse	r24, r25
    2366:	58 c0       	rjmp	.+176    	; 0x2418 <__schedule__+0x108>
    2368:	7e 01       	movw	r14, r28
    236a:	29 e1       	ldi	r18, 0x19	; 25
    236c:	e2 0e       	add	r14, r18
    236e:	f1 1c       	adc	r15, r1
    2370:	ee 0d       	add	r30, r14
    2372:	ff 1d       	adc	r31, r15
    2374:	d7 01       	movw	r26, r14
    2376:	ae 17       	cp	r26, r30
    2378:	bf 07       	cpc	r27, r31
    237a:	09 f0       	breq	.+2      	; 0x237e <__schedule__+0x6e>
    237c:	43 c0       	rjmp	.+134    	; 0x2404 <__schedule__+0xf4>
    237e:	8f 85       	ldd	r24, Y+15	; 0x0f
    2380:	80 fd       	sbrc	r24, 0
    2382:	c9 c1       	rjmp	.+914    	; 0x2716 <__schedule__+0x406>
    2384:	88 85       	ldd	r24, Y+8	; 0x08
    2386:	99 85       	ldd	r25, Y+9	; 0x09
    2388:	89 2b       	or	r24, r25
    238a:	09 f4       	brne	.+2      	; 0x238e <__schedule__+0x7e>
    238c:	36 c2       	rjmp	.+1132   	; 0x27fa <__schedule__+0x4ea>
    238e:	88 8d       	ldd	r24, Y+24	; 0x18
    2390:	81 50       	subi	r24, 0x01	; 1
    2392:	82 30       	cpi	r24, 0x02	; 2
    2394:	18 f4       	brcc	.+6      	; 0x239c <__schedule__+0x8c>
    2396:	ce 01       	movw	r24, r28
    2398:	0e 94 72 19 	call	0x32e4	; 0x32e4 <_ZL13crow_send_ackPN4crow6packetE.lto_priv.132>
    239c:	88 8d       	ldd	r24, Y+24	; 0x18
    239e:	82 30       	cpi	r24, 0x02	; 2
    23a0:	09 f0       	breq	.+2      	; 0x23a4 <__schedule__+0x94>
    23a2:	2b c2       	rjmp	.+1110   	; 0x27fa <__schedule__+0x4ea>
    23a4:	a0 90 0d 01 	lds	r10, 0x010D	; 0x80010d <crow_incoming>
    23a8:	b0 90 0e 01 	lds	r11, 0x010E	; 0x80010e <crow_incoming+0x1>
    23ac:	fd e0       	ldi	r31, 0x0D	; 13
    23ae:	af 16       	cp	r10, r31
    23b0:	f1 e0       	ldi	r31, 0x01	; 1
    23b2:	bf 06       	cpc	r11, r31
    23b4:	09 f0       	breq	.+2      	; 0x23b8 <__schedule__+0xa8>
    23b6:	09 c2       	rjmp	.+1042   	; 0x27ca <__schedule__+0x4ba>
    23b8:	0e 94 49 19 	call	0x3292	; 0x3292 <system_lock>
    23bc:	0e 94 5a 16 	call	0x2cb4	; 0x2cb4 <millis>
    23c0:	7b 87       	std	Y+11, r23	; 0x0b
    23c2:	6a 87       	std	Y+10, r22	; 0x0a
    23c4:	6d e0       	ldi	r22, 0x0D	; 13
    23c6:	71 e0       	ldi	r23, 0x01	; 1
    23c8:	ce 01       	movw	r24, r28
    23ca:	0e 94 9f 17 	call	0x2f3e	; 0x2f3e <dlist_move_tail.lto_priv.121.lto_priv.126>
    23ce:	0e 94 36 19 	call	0x326c	; 0x326c <system_unlock>
    23d2:	8f 85       	ldd	r24, Y+15	; 0x0f
    23d4:	82 fd       	sbrc	r24, 2
    23d6:	1b c2       	rjmp	.+1078   	; 0x280e <__schedule__+0x4fe>
    23d8:	e0 91 c2 0a 	lds	r30, 0x0AC2	; 0x800ac2 <_ZN4crow21user_incoming_handlerE>
    23dc:	f0 91 c3 0a 	lds	r31, 0x0AC3	; 0x800ac3 <_ZN4crow21user_incoming_handlerE+0x1>
    23e0:	30 97       	sbiw	r30, 0x00	; 0
    23e2:	e1 f1       	breq	.+120    	; 0x245c <__schedule__+0x14c>
    23e4:	ce 01       	movw	r24, r28
    23e6:	09 95       	icall
    23e8:	0e 94 36 19 	call	0x326c	; 0x326c <system_unlock>
    23ec:	0e 94 49 19 	call	0x3292	; 0x3292 <system_lock>
    23f0:	c0 91 21 01 	lds	r28, 0x0121	; 0x800121 <crow_travelled>
    23f4:	d0 91 22 01 	lds	r29, 0x0122	; 0x800122 <crow_travelled+0x1>
    23f8:	b1 e0       	ldi	r27, 0x01	; 1
    23fa:	c1 32       	cpi	r28, 0x21	; 33
    23fc:	db 07       	cpc	r29, r27
    23fe:	09 f0       	breq	.+2      	; 0x2402 <__schedule__+0xf2>
    2400:	a8 cf       	rjmp	.-176    	; 0x2352 <__schedule__+0x42>
    2402:	48 c0       	rjmp	.+144    	; 0x2494 <__schedule__+0x184>
    2404:	31 97       	sbiw	r30, 0x01	; 1
    2406:	ae 17       	cp	r26, r30
    2408:	bf 07       	cpc	r27, r31
    240a:	09 f4       	brne	.+2      	; 0x240e <__schedule__+0xfe>
    240c:	b8 cf       	rjmp	.-144    	; 0x237e <__schedule__+0x6e>
    240e:	80 81       	ld	r24, Z
    2410:	9c 91       	ld	r25, X
    2412:	90 83       	st	Z, r25
    2414:	8d 93       	st	X+, r24
    2416:	af cf       	rjmp	.-162    	; 0x2376 <__schedule__+0x66>
    2418:	ec 0f       	add	r30, r28
    241a:	fd 1f       	adc	r31, r29
    241c:	21 8d       	ldd	r18, Z+25	; 0x19
    241e:	e0 91 09 09 	lds	r30, 0x0909	; 0x800909 <crow_gateways>
    2422:	f0 91 0a 09 	lds	r31, 0x090A	; 0x80090a <crow_gateways+0x1>
    2426:	89 e0       	ldi	r24, 0x09	; 9
    2428:	e9 30       	cpi	r30, 0x09	; 9
    242a:	f8 07       	cpc	r31, r24
    242c:	09 f4       	brne	.+2      	; 0x2430 <__schedule__+0x120>
    242e:	f3 c1       	rjmp	.+998    	; 0x2816 <__schedule__+0x506>
    2430:	cf 01       	movw	r24, r30
    2432:	02 97       	sbiw	r24, 0x02	; 2
    2434:	dc 01       	movw	r26, r24
    2436:	16 96       	adiw	r26, 0x06	; 6
    2438:	3c 91       	ld	r19, X
    243a:	23 13       	cpse	r18, r19
    243c:	0b c0       	rjmp	.+22     	; 0x2454 <__schedule__+0x144>
    243e:	00 97       	sbiw	r24, 0x00	; 0
    2440:	09 f4       	brne	.+2      	; 0x2444 <__schedule__+0x134>
    2442:	e9 c1       	rjmp	.+978    	; 0x2816 <__schedule__+0x506>
    2444:	dc 01       	movw	r26, r24
    2446:	ed 91       	ld	r30, X+
    2448:	fc 91       	ld	r31, X
    244a:	01 90       	ld	r0, Z+
    244c:	f0 81       	ld	r31, Z
    244e:	e0 2d       	mov	r30, r0
    2450:	be 01       	movw	r22, r28
    2452:	1e c0       	rjmp	.+60     	; 0x2490 <__schedule__+0x180>
    2454:	01 90       	ld	r0, Z+
    2456:	f0 81       	ld	r31, Z
    2458:	e0 2d       	mov	r30, r0
    245a:	e5 cf       	rjmp	.-54     	; 0x2426 <__schedule__+0x116>
    245c:	a0 91 09 01 	lds	r26, 0x0109	; 0x800109 <_ZN4crow9protocolsE>
    2460:	b0 91 0a 01 	lds	r27, 0x010A	; 0x80010a <_ZN4crow9protocolsE+0x1>
    2464:	12 97       	sbiw	r26, 0x02	; 2
    2466:	86 95       	lsr	r24
    2468:	86 95       	lsr	r24
    246a:	86 95       	lsr	r24
    246c:	e1 e0       	ldi	r30, 0x01	; 1
    246e:	a7 30       	cpi	r26, 0x07	; 7
    2470:	be 07       	cpc	r27, r30
    2472:	09 f4       	brne	.+2      	; 0x2476 <__schedule__+0x166>
    2474:	cc c1       	rjmp	.+920    	; 0x280e <__schedule__+0x4fe>
    2476:	16 96       	adiw	r26, 0x06	; 6
    2478:	9c 91       	ld	r25, X
    247a:	16 97       	sbiw	r26, 0x06	; 6
    247c:	98 13       	cpse	r25, r24
    247e:	c1 c1       	rjmp	.+898    	; 0x2802 <__schedule__+0x4f2>
    2480:	ed 91       	ld	r30, X+
    2482:	fc 91       	ld	r31, X
    2484:	11 97       	sbiw	r26, 0x01	; 1
    2486:	01 90       	ld	r0, Z+
    2488:	f0 81       	ld	r31, Z
    248a:	e0 2d       	mov	r30, r0
    248c:	be 01       	movw	r22, r28
    248e:	cd 01       	movw	r24, r26
    2490:	09 95       	icall
    2492:	aa cf       	rjmp	.-172    	; 0x23e8 <__schedule__+0xd8>
    2494:	0e 94 36 19 	call	0x326c	; 0x326c <system_unlock>
    2498:	0e 94 5a 16 	call	0x2cb4	; 0x2cb4 <millis>
    249c:	5b 01       	movw	r10, r22
    249e:	0e 94 49 19 	call	0x3292	; 0x3292 <system_lock>
    24a2:	80 91 25 01 	lds	r24, 0x0125	; 0x800125 <crow_outters>
    24a6:	90 91 26 01 	lds	r25, 0x0126	; 0x800126 <crow_outters+0x1>
    24aa:	85 52       	subi	r24, 0x25	; 37
    24ac:	91 40       	sbci	r25, 0x01	; 1
    24ae:	81 f4       	brne	.+32     	; 0x24d0 <__schedule__+0x1c0>
    24b0:	0e 94 36 19 	call	0x326c	; 0x326c <system_unlock>
    24b4:	0e 94 5a 16 	call	0x2cb4	; 0x2cb4 <millis>
    24b8:	eb 01       	movw	r28, r22
    24ba:	0e 94 49 19 	call	0x3292	; 0x3292 <system_lock>
    24be:	80 91 0d 01 	lds	r24, 0x010D	; 0x80010d <crow_incoming>
    24c2:	90 91 0e 01 	lds	r25, 0x010E	; 0x80010e <crow_incoming+0x1>
    24c6:	8d 50       	subi	r24, 0x0D	; 13
    24c8:	91 40       	sbci	r25, 0x01	; 1
    24ca:	09 f0       	breq	.+2      	; 0x24ce <__schedule__+0x1be>
    24cc:	4e c0       	rjmp	.+156    	; 0x256a <__schedule__+0x25a>
    24ce:	5b c0       	rjmp	.+182    	; 0x2586 <__schedule__+0x276>
    24d0:	0e 94 36 19 	call	0x326c	; 0x326c <system_unlock>
    24d4:	0e 94 49 19 	call	0x3292	; 0x3292 <system_lock>
    24d8:	c0 91 25 01 	lds	r28, 0x0125	; 0x800125 <crow_outters>
    24dc:	d0 91 26 01 	lds	r29, 0x0126	; 0x800126 <crow_outters+0x1>
    24e0:	e8 80       	ld	r14, Y
    24e2:	f9 80       	ldd	r15, Y+1	; 0x01
    24e4:	f1 e0       	ldi	r31, 0x01	; 1
    24e6:	c5 32       	cpi	r28, 0x25	; 37
    24e8:	df 07       	cpc	r29, r31
    24ea:	11 f3       	breq	.-60     	; 0x24b0 <__schedule__+0x1a0>
    24ec:	8a 85       	ldd	r24, Y+10	; 0x0a
    24ee:	9b 85       	ldd	r25, Y+11	; 0x0b
    24f0:	95 01       	movw	r18, r10
    24f2:	28 1b       	sub	r18, r24
    24f4:	39 0b       	sbc	r19, r25
    24f6:	8c 89       	ldd	r24, Y+20	; 0x14
    24f8:	9d 89       	ldd	r25, Y+21	; 0x15
    24fa:	82 17       	cp	r24, r18
    24fc:	93 07       	cpc	r25, r19
    24fe:	98 f5       	brcc	.+102    	; 0x2566 <__schedule__+0x256>
    2500:	ce 01       	movw	r24, r28
    2502:	0e 94 a6 16 	call	0x2d4c	; 0x2d4c <dlist_del_init.lto_priv.113.lto_priv.130>
    2506:	8c 85       	ldd	r24, Y+12	; 0x0c
    2508:	8f 5f       	subi	r24, 0xFF	; 255
    250a:	8c 87       	std	Y+12, r24	; 0x0c
    250c:	85 30       	cpi	r24, 0x05	; 5
    250e:	41 f5       	brne	.+80     	; 0x2560 <__schedule__+0x250>
    2510:	ce 01       	movw	r24, r28
    2512:	0e 94 90 1d 	call	0x3b20	; 0x3b20 <_ZL18crow_tower_releasePN4crow6packetE.lto_priv.134>
    2516:	a0 91 09 01 	lds	r26, 0x0109	; 0x800109 <_ZN4crow9protocolsE>
    251a:	b0 91 0a 01 	lds	r27, 0x010A	; 0x80010a <_ZN4crow9protocolsE+0x1>
    251e:	12 97       	sbiw	r26, 0x02	; 2
    2520:	21 e0       	ldi	r18, 0x01	; 1
    2522:	a7 30       	cpi	r26, 0x07	; 7
    2524:	b2 07       	cpc	r27, r18
    2526:	c1 f0       	breq	.+48     	; 0x2558 <__schedule__+0x248>
    2528:	8f 85       	ldd	r24, Y+15	; 0x0f
    252a:	86 95       	lsr	r24
    252c:	86 95       	lsr	r24
    252e:	86 95       	lsr	r24
    2530:	16 96       	adiw	r26, 0x06	; 6
    2532:	9c 91       	ld	r25, X
    2534:	16 97       	sbiw	r26, 0x06	; 6
    2536:	98 13       	cpse	r25, r24
    2538:	0a c0       	rjmp	.+20     	; 0x254e <__schedule__+0x23e>
    253a:	ed 91       	ld	r30, X+
    253c:	fc 91       	ld	r31, X
    253e:	11 97       	sbiw	r26, 0x01	; 1
    2540:	02 80       	ldd	r0, Z+2	; 0x02
    2542:	f3 81       	ldd	r31, Z+3	; 0x03
    2544:	e0 2d       	mov	r30, r0
    2546:	be 01       	movw	r22, r28
    2548:	cd 01       	movw	r24, r26
    254a:	09 95       	icall
    254c:	0c c0       	rjmp	.+24     	; 0x2566 <__schedule__+0x256>
    254e:	12 96       	adiw	r26, 0x02	; 2
    2550:	0d 90       	ld	r0, X+
    2552:	bc 91       	ld	r27, X
    2554:	a0 2d       	mov	r26, r0
    2556:	e3 cf       	rjmp	.-58     	; 0x251e <__schedule__+0x20e>
    2558:	ce 01       	movw	r24, r28
    255a:	0e 94 a5 1d 	call	0x3b4a	; 0x3b4a <_ZN4crow7releaseEPNS_6packetE>
    255e:	03 c0       	rjmp	.+6      	; 0x2566 <__schedule__+0x256>
    2560:	ce 01       	movw	r24, r28
    2562:	0e 94 5d 19 	call	0x32ba	; 0x32ba <_ZN4crow6travelEPNS_6packetE>
    2566:	e7 01       	movw	r28, r14
    2568:	bb cf       	rjmp	.-138    	; 0x24e0 <__schedule__+0x1d0>
    256a:	0e 94 36 19 	call	0x326c	; 0x326c <system_unlock>
    256e:	0e 94 49 19 	call	0x3292	; 0x3292 <system_lock>
    2572:	e0 91 0d 01 	lds	r30, 0x010D	; 0x80010d <crow_incoming>
    2576:	f0 91 0e 01 	lds	r31, 0x010E	; 0x80010e <crow_incoming+0x1>
    257a:	e0 80       	ld	r14, Z
    257c:	f1 80       	ldd	r15, Z+1	; 0x01
    257e:	81 e0       	ldi	r24, 0x01	; 1
    2580:	ed 30       	cpi	r30, 0x0D	; 13
    2582:	f8 07       	cpc	r31, r24
    2584:	79 f4       	brne	.+30     	; 0x25a4 <__schedule__+0x294>
    2586:	0e 94 36 19 	call	0x326c	; 0x326c <system_unlock>
    258a:	0e 94 49 19 	call	0x3292	; 0x3292 <system_lock>
    258e:	80 90 dd 0a 	lds	r8, 0x0ADD	; 0x800add <__jiffies>
    2592:	90 90 de 0a 	lds	r9, 0x0ADE	; 0x800ade <__jiffies+0x1>
    2596:	a0 90 df 0a 	lds	r10, 0x0ADF	; 0x800adf <__jiffies+0x2>
    259a:	b0 90 e0 0a 	lds	r11, 0x0AE0	; 0x800ae0 <__jiffies+0x3>
    259e:	0e 94 36 19 	call	0x326c	; 0x326c <system_unlock>
    25a2:	3d c0       	rjmp	.+122    	; 0x261e <__schedule__+0x30e>
    25a4:	82 85       	ldd	r24, Z+10	; 0x0a
    25a6:	93 85       	ldd	r25, Z+11	; 0x0b
    25a8:	9e 01       	movw	r18, r28
    25aa:	28 1b       	sub	r18, r24
    25ac:	39 0b       	sbc	r19, r25
    25ae:	84 89       	ldd	r24, Z+20	; 0x14
    25b0:	95 89       	ldd	r25, Z+21	; 0x15
    25b2:	82 17       	cp	r24, r18
    25b4:	93 07       	cpc	r25, r19
    25b6:	70 f4       	brcc	.+28     	; 0x25d4 <__schedule__+0x2c4>
    25b8:	84 85       	ldd	r24, Z+12	; 0x0c
    25ba:	8f 5f       	subi	r24, 0xFF	; 255
    25bc:	84 87       	std	Z+12, r24	; 0x0c
    25be:	85 30       	cpi	r24, 0x05	; 5
    25c0:	21 f4       	brne	.+8      	; 0x25ca <__schedule__+0x2ba>
    25c2:	cf 01       	movw	r24, r30
    25c4:	0e 94 8b 1b 	call	0x3716	; 0x3716 <_ZL12crow_utilizePN4crow6packetE.lto_priv.133>
    25c8:	05 c0       	rjmp	.+10     	; 0x25d4 <__schedule__+0x2c4>
    25ca:	d3 87       	std	Z+11, r29	; 0x0b
    25cc:	c2 87       	std	Z+10, r28	; 0x0a
    25ce:	cf 01       	movw	r24, r30
    25d0:	0e 94 72 19 	call	0x32e4	; 0x32e4 <_ZL13crow_send_ackPN4crow6packetE.lto_priv.132>
    25d4:	f7 01       	movw	r30, r14
    25d6:	d1 cf       	rjmp	.-94     	; 0x257a <__schedule__+0x26a>
    25d8:	0e 94 36 19 	call	0x326c	; 0x326c <system_unlock>
    25dc:	8d 81       	ldd	r24, Y+5	; 0x05
    25de:	9e 81       	ldd	r25, Y+6	; 0x06
    25e0:	af 81       	ldd	r26, Y+7	; 0x07
    25e2:	b8 85       	ldd	r27, Y+8	; 0x08
    25e4:	b5 01       	movw	r22, r10
    25e6:	a4 01       	movw	r20, r8
    25e8:	48 1b       	sub	r20, r24
    25ea:	59 0b       	sbc	r21, r25
    25ec:	6a 0b       	sbc	r22, r26
    25ee:	7b 0b       	sbc	r23, r27
    25f0:	89 85       	ldd	r24, Y+9	; 0x09
    25f2:	9a 85       	ldd	r25, Y+10	; 0x0a
    25f4:	ab 85       	ldd	r26, Y+11	; 0x0b
    25f6:	bc 85       	ldd	r27, Y+12	; 0x0c
    25f8:	48 17       	cp	r20, r24
    25fa:	59 07       	cpc	r21, r25
    25fc:	6a 07       	cpc	r22, r26
    25fe:	7b 07       	cpc	r23, r27
    2600:	f4 f0       	brlt	.+60     	; 0x263e <__schedule__+0x32e>
    2602:	8c 81       	ldd	r24, Y+4	; 0x04
    2604:	83 30       	cpi	r24, 0x03	; 3
    2606:	b1 f0       	breq	.+44     	; 0x2634 <__schedule__+0x324>
    2608:	84 30       	cpi	r24, 0x04	; 4
    260a:	49 f4       	brne	.+18     	; 0x261e <__schedule__+0x30e>
    260c:	ce 01       	movw	r24, r28
    260e:	0e 94 a6 16 	call	0x2d4c	; 0x2d4c <dlist_del_init.lto_priv.113.lto_priv.130>
    2612:	ed 85       	ldd	r30, Y+13	; 0x0d
    2614:	fe 85       	ldd	r31, Y+14	; 0x0e
    2616:	be 01       	movw	r22, r28
    2618:	8f 85       	ldd	r24, Y+15	; 0x0f
    261a:	98 89       	ldd	r25, Y+16	; 0x10
    261c:	09 95       	icall
    261e:	0e 94 49 19 	call	0x3292	; 0x3292 <system_lock>
    2622:	c0 91 15 01 	lds	r28, 0x0115	; 0x800115 <ktimer_list>
    2626:	d0 91 16 01 	lds	r29, 0x0116	; 0x800116 <ktimer_list+0x1>
    262a:	91 e0       	ldi	r25, 0x01	; 1
    262c:	c5 31       	cpi	r28, 0x15	; 21
    262e:	d9 07       	cpc	r29, r25
    2630:	99 f6       	brne	.-90     	; 0x25d8 <__schedule__+0x2c8>
    2632:	05 c0       	rjmp	.+10     	; 0x263e <__schedule__+0x32e>
    2634:	ce 01       	movw	r24, r28
    2636:	04 97       	sbiw	r24, 0x04	; 4
    2638:	0e 94 df 17 	call	0x2fbe	; 0x2fbe <schedee_run>
    263c:	f0 cf       	rjmp	.-32     	; 0x261e <__schedule__+0x30e>
    263e:	0e 94 36 19 	call	0x326c	; 0x326c <system_unlock>
    2642:	8f b7       	in	r24, 0x3f	; 63
    2644:	f8 94       	cli
    2646:	80 91 19 01 	lds	r24, 0x0119	; 0x800119 <finallist>
    264a:	90 91 1a 01 	lds	r25, 0x011A	; 0x80011a <finallist+0x1>
    264e:	a1 e0       	ldi	r26, 0x01	; 1
    2650:	89 31       	cpi	r24, 0x19	; 25
    2652:	9a 07       	cpc	r25, r26
    2654:	c1 f0       	breq	.+48     	; 0x2686 <__schedule__+0x376>
    2656:	ec 01       	movw	r28, r24
    2658:	24 97       	sbiw	r28, 0x04	; 4
    265a:	0e 94 a6 16 	call	0x2d4c	; 0x2d4c <dlist_del_init.lto_priv.113.lto_priv.130>
    265e:	78 94       	sei
    2660:	8a 81       	ldd	r24, Y+2	; 0x02
    2662:	9b 81       	ldd	r25, Y+3	; 0x03
    2664:	00 97       	sbiw	r24, 0x00	; 0
    2666:	31 f0       	breq	.+12     	; 0x2674 <__schedule__+0x364>
    2668:	fc 01       	movw	r30, r24
    266a:	22 89       	ldd	r18, Z+18	; 0x12
    266c:	26 30       	cpi	r18, 0x06	; 6
    266e:	11 f4       	brne	.+4      	; 0x2674 <__schedule__+0x364>
    2670:	0e 94 df 17 	call	0x2fbe	; 0x2fbe <schedee_run>
    2674:	da 8a       	std	Y+18, r13	; 0x12
    2676:	e8 81       	ld	r30, Y
    2678:	f9 81       	ldd	r31, Y+1	; 0x01
    267a:	04 80       	ldd	r0, Z+4	; 0x04
    267c:	f5 81       	ldd	r31, Z+5	; 0x05
    267e:	e0 2d       	mov	r30, r0
    2680:	ce 01       	movw	r24, r28
    2682:	09 95       	icall
    2684:	de cf       	rjmp	.-68     	; 0x2642 <__schedule__+0x332>
    2686:	78 94       	sei
    2688:	8f b7       	in	r24, 0x3f	; 63
    268a:	f8 94       	cli
    268c:	80 91 11 01 	lds	r24, 0x0111	; 0x800111 <unstoplist>
    2690:	90 91 12 01 	lds	r25, 0x0112	; 0x800112 <unstoplist+0x1>
    2694:	f1 e0       	ldi	r31, 0x01	; 1
    2696:	81 31       	cpi	r24, 0x11	; 17
    2698:	9f 07       	cpc	r25, r31
    269a:	61 f0       	breq	.+24     	; 0x26b4 <__schedule__+0x3a4>
    269c:	dc 01       	movw	r26, r24
    269e:	1d 96       	adiw	r26, 0x0d	; 13
    26a0:	6c 91       	ld	r22, X
    26a2:	b4 e0       	ldi	r27, 0x04	; 4
    26a4:	6b 9f       	mul	r22, r27
    26a6:	b0 01       	movw	r22, r0
    26a8:	11 24       	eor	r1, r1
    26aa:	6c 53       	subi	r22, 0x3C	; 60
    26ac:	75 4f       	sbci	r23, 0xF5	; 245
    26ae:	0e 94 9f 17 	call	0x2f3e	; 0x2f3e <dlist_move_tail.lto_priv.121.lto_priv.126>
    26b2:	ec cf       	rjmp	.-40     	; 0x268c <__schedule__+0x37c>
    26b4:	78 94       	sei
    26b6:	64 ec       	ldi	r22, 0xC4	; 196
    26b8:	7a e0       	ldi	r23, 0x0A	; 10
    26ba:	fb 01       	movw	r30, r22
    26bc:	e0 80       	ld	r14, Z
    26be:	f1 80       	ldd	r15, Z+1	; 0x01
    26c0:	6e 15       	cp	r22, r14
    26c2:	7f 05       	cpc	r23, r15
    26c4:	11 f1       	breq	.+68     	; 0x270a <__schedule__+0x3fa>
    26c6:	e7 01       	movw	r28, r14
    26c8:	24 97       	sbiw	r28, 0x04	; 4
    26ca:	8b 89       	ldd	r24, Y+19	; 0x13
    26cc:	85 ff       	sbrs	r24, 5
    26ce:	0b c0       	rjmp	.+22     	; 0x26e6 <__schedule__+0x3d6>
    26d0:	0e 94 49 19 	call	0x3292	; 0x3292 <system_lock>
    26d4:	ca 8a       	std	Y+18, r12	; 0x12
    26d6:	69 e1       	ldi	r22, 0x19	; 25
    26d8:	71 e0       	ldi	r23, 0x01	; 1
    26da:	c7 01       	movw	r24, r14
    26dc:	0e 94 9f 17 	call	0x2f3e	; 0x2f3e <dlist_move_tail.lto_priv.121.lto_priv.126>
    26e0:	0e 94 36 19 	call	0x326c	; 0x326c <system_unlock>
    26e4:	1b ce       	rjmp	.-970    	; 0x231c <__schedule__+0xc>
    26e6:	c7 01       	movw	r24, r14
    26e8:	0e 94 9f 17 	call	0x2f3e	; 0x2f3e <dlist_move_tail.lto_priv.121.lto_priv.126>
    26ec:	d0 93 1b 09 	sts	0x091B, r29	; 0x80091b <__current_schedee+0x1>
    26f0:	c0 93 1a 09 	sts	0x091A, r28	; 0x80091a <__current_schedee>
    26f4:	8b 89       	ldd	r24, Y+19	; 0x13
    26f6:	81 60       	ori	r24, 0x01	; 1
    26f8:	8b 8b       	std	Y+19, r24	; 0x13
    26fa:	e8 81       	ld	r30, Y
    26fc:	f9 81       	ldd	r31, Y+1	; 0x01
    26fe:	01 90       	ld	r0, Z+
    2700:	f0 81       	ld	r31, Z
    2702:	e0 2d       	mov	r30, r0
    2704:	ce 01       	movw	r24, r28
    2706:	09 95       	icall
    2708:	09 ce       	rjmp	.-1006   	; 0x231c <__schedule__+0xc>
    270a:	6c 5f       	subi	r22, 0xFC	; 252
    270c:	7f 4f       	sbci	r23, 0xFF	; 255
    270e:	06 17       	cp	r16, r22
    2710:	17 07       	cpc	r17, r23
    2712:	99 f6       	brne	.-90     	; 0x26ba <__schedule__+0x3aa>
    2714:	03 ce       	rjmp	.-1018   	; 0x231c <__schedule__+0xc>
    2716:	86 95       	lsr	r24
    2718:	86 95       	lsr	r24
    271a:	86 95       	lsr	r24
    271c:	81 30       	cpi	r24, 0x01	; 1
    271e:	69 f0       	breq	.+26     	; 0x273a <__schedule__+0x42a>
    2720:	40 f0       	brcs	.+16     	; 0x2732 <__schedule__+0x422>
    2722:	82 30       	cpi	r24, 0x02	; 2
    2724:	09 f0       	breq	.+2      	; 0x2728 <__schedule__+0x418>
    2726:	77 c0       	rjmp	.+238    	; 0x2816 <__schedule__+0x506>
    2728:	a0 90 0d 01 	lds	r10, 0x010D	; 0x80010d <crow_incoming>
    272c:	b0 90 0e 01 	lds	r11, 0x010E	; 0x80010e <crow_incoming+0x1>
    2730:	36 c0       	rjmp	.+108    	; 0x279e <__schedule__+0x48e>
    2732:	ce 01       	movw	r24, r28
    2734:	0e 94 55 1d 	call	0x3aaa	; 0x3aaa <_ZL19utilize_from_outersPN4crow6packetE.lto_priv.135>
    2738:	6e c0       	rjmp	.+220    	; 0x2816 <__schedule__+0x506>
    273a:	ce 01       	movw	r24, r28
    273c:	0e 94 55 1d 	call	0x3aaa	; 0x3aaa <_ZL19utilize_from_outersPN4crow6packetE.lto_priv.135>
    2740:	60 e0       	ldi	r22, 0x00	; 0
    2742:	70 e0       	ldi	r23, 0x00	; 0
    2744:	8a 89       	ldd	r24, Y+18	; 0x12
    2746:	0e 94 d7 0b 	call	0x17ae	; 0x17ae <_ZN4crow13create_packetEPNS_7gatewayEhj.constprop.80>
    274a:	5c 01       	movw	r10, r24
    274c:	dc 01       	movw	r26, r24
    274e:	1f 96       	adiw	r26, 0x0f	; 15
    2750:	8c 91       	ld	r24, X
    2752:	1f 97       	sbiw	r26, 0x0f	; 15
    2754:	87 70       	andi	r24, 0x07	; 7
    2756:	80 61       	ori	r24, 0x10	; 16
    2758:	81 60       	ori	r24, 0x01	; 1
    275a:	1f 96       	adiw	r26, 0x0f	; 15
    275c:	8c 93       	st	X, r24
    275e:	1f 97       	sbiw	r26, 0x0f	; 15
    2760:	58 96       	adiw	r26, 0x18	; 24
    2762:	1c 92       	st	X, r1
    2764:	58 97       	sbiw	r26, 0x18	; 24
    2766:	8e 89       	ldd	r24, Y+22	; 0x16
    2768:	9f 89       	ldd	r25, Y+23	; 0x17
    276a:	57 96       	adiw	r26, 0x17	; 23
    276c:	9c 93       	st	X, r25
    276e:	8e 93       	st	-X, r24
    2770:	56 97       	sbiw	r26, 0x16	; 22
    2772:	4a 89       	ldd	r20, Y+18	; 0x12
    2774:	50 e0       	ldi	r21, 0x00	; 0
    2776:	b7 01       	movw	r22, r14
    2778:	c5 01       	movw	r24, r10
    277a:	49 96       	adiw	r24, 0x19	; 25
    277c:	0e 94 1c 0e 	call	0x1c38	; 0x1c38 <memcpy>
    2780:	c5 01       	movw	r24, r10
    2782:	0e 94 5d 19 	call	0x32ba	; 0x32ba <_ZN4crow6travelEPNS_6packetE>
    2786:	47 c0       	rjmp	.+142    	; 0x2816 <__schedule__+0x506>
    2788:	f5 01       	movw	r30, r10
    278a:	26 89       	ldd	r18, Z+22	; 0x16
    278c:	37 89       	ldd	r19, Z+23	; 0x17
    278e:	8e 89       	ldd	r24, Y+22	; 0x16
    2790:	9f 89       	ldd	r25, Y+23	; 0x17
    2792:	28 17       	cp	r18, r24
    2794:	39 07       	cpc	r19, r25
    2796:	49 f0       	breq	.+18     	; 0x27aa <__schedule__+0x49a>
    2798:	d5 01       	movw	r26, r10
    279a:	ad 90       	ld	r10, X+
    279c:	bc 90       	ld	r11, X
    279e:	bd e0       	ldi	r27, 0x0D	; 13
    27a0:	ab 16       	cp	r10, r27
    27a2:	b1 e0       	ldi	r27, 0x01	; 1
    27a4:	bb 06       	cpc	r11, r27
    27a6:	81 f7       	brne	.-32     	; 0x2788 <__schedule__+0x478>
    27a8:	36 c0       	rjmp	.+108    	; 0x2816 <__schedule__+0x506>
    27aa:	4a 89       	ldd	r20, Y+18	; 0x12
    27ac:	82 89       	ldd	r24, Z+18	; 0x12
    27ae:	48 13       	cpse	r20, r24
    27b0:	f3 cf       	rjmp	.-26     	; 0x2798 <__schedule__+0x488>
    27b2:	50 e0       	ldi	r21, 0x00	; 0
    27b4:	b7 01       	movw	r22, r14
    27b6:	c5 01       	movw	r24, r10
    27b8:	49 96       	adiw	r24, 0x19	; 25
    27ba:	0e 94 d7 0d 	call	0x1bae	; 0x1bae <memcmp>
    27be:	89 2b       	or	r24, r25
    27c0:	59 f7       	brne	.-42     	; 0x2798 <__schedule__+0x488>
    27c2:	c5 01       	movw	r24, r10
    27c4:	0e 94 90 1d 	call	0x3b20	; 0x3b20 <_ZL18crow_tower_releasePN4crow6packetE.lto_priv.134>
    27c8:	26 c0       	rjmp	.+76     	; 0x2816 <__schedule__+0x506>
    27ca:	d5 01       	movw	r26, r10
    27cc:	56 96       	adiw	r26, 0x16	; 22
    27ce:	2d 91       	ld	r18, X+
    27d0:	3c 91       	ld	r19, X
    27d2:	57 97       	sbiw	r26, 0x17	; 23
    27d4:	8e 89       	ldd	r24, Y+22	; 0x16
    27d6:	9f 89       	ldd	r25, Y+23	; 0x17
    27d8:	28 17       	cp	r18, r24
    27da:	39 07       	cpc	r19, r25
    27dc:	01 f5       	brne	.+64     	; 0x281e <__schedule__+0x50e>
    27de:	52 96       	adiw	r26, 0x12	; 18
    27e0:	4c 91       	ld	r20, X
    27e2:	8a 89       	ldd	r24, Y+18	; 0x12
    27e4:	48 13       	cpse	r20, r24
    27e6:	1b c0       	rjmp	.+54     	; 0x281e <__schedule__+0x50e>
    27e8:	50 e0       	ldi	r21, 0x00	; 0
    27ea:	b7 01       	movw	r22, r14
    27ec:	c5 01       	movw	r24, r10
    27ee:	49 96       	adiw	r24, 0x19	; 25
    27f0:	0e 94 d7 0d 	call	0x1bae	; 0x1bae <memcmp>
    27f4:	89 2b       	or	r24, r25
    27f6:	99 f4       	brne	.+38     	; 0x281e <__schedule__+0x50e>
    27f8:	0e c0       	rjmp	.+28     	; 0x2816 <__schedule__+0x506>
    27fa:	ce 01       	movw	r24, r28
    27fc:	0e 94 90 1d 	call	0x3b20	; 0x3b20 <_ZL18crow_tower_releasePN4crow6packetE.lto_priv.134>
    2800:	e8 cd       	rjmp	.-1072   	; 0x23d2 <__schedule__+0xc2>
    2802:	12 96       	adiw	r26, 0x02	; 2
    2804:	0d 90       	ld	r0, X+
    2806:	bc 91       	ld	r27, X
    2808:	a0 2d       	mov	r26, r0
    280a:	12 97       	sbiw	r26, 0x02	; 2
    280c:	2f ce       	rjmp	.-930    	; 0x246c <__schedule__+0x15c>
    280e:	ce 01       	movw	r24, r28
    2810:	0e 94 a5 1d 	call	0x3b4a	; 0x3b4a <_ZN4crow7releaseEPNS_6packetE>
    2814:	e9 cd       	rjmp	.-1070   	; 0x23e8 <__schedule__+0xd8>
    2816:	ce 01       	movw	r24, r28
    2818:	0e 94 8b 1b 	call	0x3716	; 0x3716 <_ZL12crow_utilizePN4crow6packetE.lto_priv.133>
    281c:	e5 cd       	rjmp	.-1078   	; 0x23e8 <__schedule__+0xd8>
    281e:	f5 01       	movw	r30, r10
    2820:	a0 80       	ld	r10, Z
    2822:	b1 80       	ldd	r11, Z+1	; 0x01
    2824:	c3 cd       	rjmp	.-1146   	; 0x23ac <__schedule__+0x9c>

00002826 <_ZN5genos3avr5timerIjP12timer16_regsE7value16Ev>:
    2826:	dc 01       	movw	r26, r24
    2828:	12 96       	adiw	r26, 0x02	; 2
    282a:	ed 91       	ld	r30, X+
    282c:	fc 91       	ld	r31, X
    282e:	13 97       	sbiw	r26, 0x03	; 3
    2830:	84 81       	ldd	r24, Z+4	; 0x04
    2832:	95 81       	ldd	r25, Z+5	; 0x05
    2834:	08 95       	ret

00002836 <_ZN5genos3avr5timerIjP12timer16_regsE4typeEv>:
    2836:	80 e1       	ldi	r24, 0x10	; 16
    2838:	08 95       	ret

0000283a <_ZN5genos3avr5timerIjP12timer16_regsE15set_ovf_handlerEPFvPvES5_>:
    283a:	dc 01       	movw	r26, r24
    283c:	14 96       	adiw	r26, 0x04	; 4
    283e:	ec 91       	ld	r30, X
    2840:	b6 e0       	ldi	r27, 0x06	; 6
    2842:	eb 9f       	mul	r30, r27
    2844:	f0 01       	movw	r30, r0
    2846:	11 24       	eor	r1, r1
    2848:	e4 5d       	subi	r30, 0xD4	; 212
    284a:	f7 4f       	sbci	r31, 0xF7	; 247
    284c:	71 83       	std	Z+1, r23	; 0x01
    284e:	60 83       	st	Z, r22
    2850:	53 83       	std	Z+3, r21	; 0x03
    2852:	42 83       	std	Z+2, r20	; 0x02
    2854:	08 95       	ret

00002856 <_ZN5genos3avr5timerIjP12timer16_regsE11set_divcodeEh>:
    2856:	dc 01       	movw	r26, r24
    2858:	12 96       	adiw	r26, 0x02	; 2
    285a:	ed 91       	ld	r30, X+
    285c:	fc 91       	ld	r31, X
    285e:	13 97       	sbiw	r26, 0x03	; 3
    2860:	81 81       	ldd	r24, Z+1	; 0x01
    2862:	88 7f       	andi	r24, 0xF8	; 248
    2864:	67 70       	andi	r22, 0x07	; 7
    2866:	68 2b       	or	r22, r24
    2868:	61 83       	std	Z+1, r22	; 0x01
    286a:	80 e0       	ldi	r24, 0x00	; 0
    286c:	90 e0       	ldi	r25, 0x00	; 0
    286e:	08 95       	ret

00002870 <_ZL11_rx_handlerPv>:
    2870:	dc 01       	movw	r26, r24
    2872:	12 96       	adiw	r26, 0x02	; 2
    2874:	ed 91       	ld	r30, X+
    2876:	fc 91       	ld	r31, X
    2878:	13 97       	sbiw	r26, 0x03	; 3
    287a:	30 97       	sbiw	r30, 0x00	; 0
    287c:	39 f0       	breq	.+14     	; 0x288c <_ZL11_rx_handlerPv+0x1c>
    287e:	60 e0       	ldi	r22, 0x00	; 0
    2880:	70 e0       	ldi	r23, 0x00	; 0
    2882:	14 96       	adiw	r26, 0x04	; 4
    2884:	8d 91       	ld	r24, X+
    2886:	9c 91       	ld	r25, X
    2888:	15 97       	sbiw	r26, 0x05	; 5
    288a:	09 94       	ijmp
    288c:	08 95       	ret

0000288e <_ZL12_dre_handlerPv>:
    288e:	dc 01       	movw	r26, r24
    2890:	12 96       	adiw	r26, 0x02	; 2
    2892:	ed 91       	ld	r30, X+
    2894:	fc 91       	ld	r31, X
    2896:	13 97       	sbiw	r26, 0x03	; 3
    2898:	30 97       	sbiw	r30, 0x00	; 0
    289a:	39 f0       	breq	.+14     	; 0x28aa <_ZL12_dre_handlerPv+0x1c>
    289c:	61 e0       	ldi	r22, 0x01	; 1
    289e:	70 e0       	ldi	r23, 0x00	; 0
    28a0:	14 96       	adiw	r26, 0x04	; 4
    28a2:	8d 91       	ld	r24, X+
    28a4:	9c 91       	ld	r25, X
    28a6:	15 97       	sbiw	r26, 0x05	; 5
    28a8:	09 94       	ijmp
    28aa:	08 95       	ret

000028ac <_ZL11_tx_handlerPv>:
    28ac:	dc 01       	movw	r26, r24
    28ae:	12 96       	adiw	r26, 0x02	; 2
    28b0:	ed 91       	ld	r30, X+
    28b2:	fc 91       	ld	r31, X
    28b4:	13 97       	sbiw	r26, 0x03	; 3
    28b6:	30 97       	sbiw	r30, 0x00	; 0
    28b8:	39 f0       	breq	.+14     	; 0x28c8 <_ZL11_tx_handlerPv+0x1c>
    28ba:	62 e0       	ldi	r22, 0x02	; 2
    28bc:	70 e0       	ldi	r23, 0x00	; 0
    28be:	14 96       	adiw	r26, 0x04	; 4
    28c0:	8d 91       	ld	r24, X+
    28c2:	9c 91       	ld	r25, X
    28c4:	15 97       	sbiw	r26, 0x05	; 5
    28c6:	09 94       	ijmp
    28c8:	08 95       	ret

000028ca <_ZN16avr_usart_device5setupElchh>:
    28ca:	0f 93       	push	r16
    28cc:	1f 93       	push	r17
    28ce:	cf 93       	push	r28
    28d0:	df 93       	push	r29
    28d2:	ec 01       	movw	r28, r24
    28d4:	9a 01       	movw	r18, r20
    28d6:	ab 01       	movw	r20, r22
    28d8:	ee 81       	ldd	r30, Y+6	; 0x06
    28da:	ff 81       	ldd	r31, Y+7	; 0x07
    28dc:	81 81       	ldd	r24, Z+1	; 0x01
    28de:	88 60       	ori	r24, 0x08	; 8
    28e0:	81 83       	std	Z+1, r24	; 0x01
    28e2:	ee 81       	ldd	r30, Y+6	; 0x06
    28e4:	ff 81       	ldd	r31, Y+7	; 0x07
    28e6:	81 81       	ldd	r24, Z+1	; 0x01
    28e8:	80 61       	ori	r24, 0x10	; 16
    28ea:	81 83       	std	Z+1, r24	; 0x01
    28ec:	0e 81       	ldd	r16, Y+6	; 0x06
    28ee:	1f 81       	ldd	r17, Y+7	; 0x07
    28f0:	f8 01       	movw	r30, r16
    28f2:	80 81       	ld	r24, Z
    28f4:	82 60       	ori	r24, 0x02	; 2
    28f6:	80 83       	st	Z, r24
    28f8:	60 e0       	ldi	r22, 0x00	; 0
    28fa:	79 e0       	ldi	r23, 0x09	; 9
    28fc:	8d e3       	ldi	r24, 0x3D	; 61
    28fe:	90 e0       	ldi	r25, 0x00	; 0
    2900:	0e 94 35 20 	call	0x406a	; 0x406a <__divmodsi4>
    2904:	ca 01       	movw	r24, r20
    2906:	b9 01       	movw	r22, r18
    2908:	61 50       	subi	r22, 0x01	; 1
    290a:	71 09       	sbc	r23, r1
    290c:	81 09       	sbc	r24, r1
    290e:	91 09       	sbc	r25, r1
    2910:	22 e0       	ldi	r18, 0x02	; 2
    2912:	30 e0       	ldi	r19, 0x00	; 0
    2914:	40 e0       	ldi	r20, 0x00	; 0
    2916:	50 e0       	ldi	r21, 0x00	; 0
    2918:	0e 94 35 20 	call	0x406a	; 0x406a <__divmodsi4>
    291c:	83 2f       	mov	r24, r19
    291e:	99 27       	eor	r25, r25
    2920:	f8 01       	movw	r30, r16
    2922:	85 83       	std	Z+5, r24	; 0x05
    2924:	24 83       	std	Z+4, r18	; 0x04
    2926:	88 85       	ldd	r24, Y+8	; 0x08
    2928:	90 e0       	ldi	r25, 0x00	; 0
    292a:	26 e0       	ldi	r18, 0x06	; 6
    292c:	28 9f       	mul	r18, r24
    292e:	f0 01       	movw	r30, r0
    2930:	29 9f       	mul	r18, r25
    2932:	f0 0d       	add	r31, r0
    2934:	11 24       	eor	r1, r1
    2936:	e4 5d       	subi	r30, 0xD4	; 212
    2938:	f7 4f       	sbci	r31, 0xF7	; 247
    293a:	48 e3       	ldi	r20, 0x38	; 56
    293c:	54 e1       	ldi	r21, 0x14	; 20
    293e:	51 83       	std	Z+1, r21	; 0x01
    2940:	40 83       	st	Z, r20
    2942:	d3 83       	std	Z+3, r29	; 0x03
    2944:	c2 83       	std	Z+2, r28	; 0x02
    2946:	ac 01       	movw	r20, r24
    2948:	4f 5f       	subi	r20, 0xFF	; 255
    294a:	5f 4f       	sbci	r21, 0xFF	; 255
    294c:	24 9f       	mul	r18, r20
    294e:	f0 01       	movw	r30, r0
    2950:	25 9f       	mul	r18, r21
    2952:	f0 0d       	add	r31, r0
    2954:	11 24       	eor	r1, r1
    2956:	e4 5d       	subi	r30, 0xD4	; 212
    2958:	f7 4f       	sbci	r31, 0xF7	; 247
    295a:	47 e4       	ldi	r20, 0x47	; 71
    295c:	54 e1       	ldi	r21, 0x14	; 20
    295e:	51 83       	std	Z+1, r21	; 0x01
    2960:	40 83       	st	Z, r20
    2962:	d3 83       	std	Z+3, r29	; 0x03
    2964:	c2 83       	std	Z+2, r28	; 0x02
    2966:	02 96       	adiw	r24, 0x02	; 2
    2968:	28 9f       	mul	r18, r24
    296a:	f0 01       	movw	r30, r0
    296c:	29 9f       	mul	r18, r25
    296e:	f0 0d       	add	r31, r0
    2970:	11 24       	eor	r1, r1
    2972:	e4 5d       	subi	r30, 0xD4	; 212
    2974:	f7 4f       	sbci	r31, 0xF7	; 247
    2976:	86 e5       	ldi	r24, 0x56	; 86
    2978:	94 e1       	ldi	r25, 0x14	; 20
    297a:	91 83       	std	Z+1, r25	; 0x01
    297c:	80 83       	st	Z, r24
    297e:	d3 83       	std	Z+3, r29	; 0x03
    2980:	c2 83       	std	Z+2, r28	; 0x02
    2982:	ee 81       	ldd	r30, Y+6	; 0x06
    2984:	ff 81       	ldd	r31, Y+7	; 0x07
    2986:	81 81       	ldd	r24, Z+1	; 0x01
    2988:	80 68       	ori	r24, 0x80	; 128
    298a:	81 83       	std	Z+1, r24	; 0x01
    298c:	80 e0       	ldi	r24, 0x00	; 0
    298e:	90 e0       	ldi	r25, 0x00	; 0
    2990:	df 91       	pop	r29
    2992:	cf 91       	pop	r28
    2994:	1f 91       	pop	r17
    2996:	0f 91       	pop	r16
    2998:	08 95       	ret

0000299a <_ZN16avr_usart_device5hasrxEv>:
    299a:	dc 01       	movw	r26, r24
    299c:	16 96       	adiw	r26, 0x06	; 6
    299e:	ed 91       	ld	r30, X+
    29a0:	fc 91       	ld	r31, X
    29a2:	17 97       	sbiw	r26, 0x07	; 7
    29a4:	80 81       	ld	r24, Z
    29a6:	80 72       	andi	r24, 0x20	; 32
    29a8:	90 e0       	ldi	r25, 0x00	; 0
    29aa:	08 95       	ret

000029ac <_ZN16avr_usart_device5cantxEv>:
    29ac:	dc 01       	movw	r26, r24
    29ae:	16 96       	adiw	r26, 0x06	; 6
    29b0:	ed 91       	ld	r30, X+
    29b2:	fc 91       	ld	r31, X
    29b4:	17 97       	sbiw	r26, 0x07	; 7
    29b6:	80 81       	ld	r24, Z
    29b8:	80 78       	andi	r24, 0x80	; 128
    29ba:	90 e0       	ldi	r25, 0x00	; 0
    29bc:	08 95       	ret

000029be <_ZN16avr_usart_device8sendbyteEi>:
    29be:	dc 01       	movw	r26, r24
    29c0:	16 96       	adiw	r26, 0x06	; 6
    29c2:	ed 91       	ld	r30, X+
    29c4:	fc 91       	ld	r31, X
    29c6:	17 97       	sbiw	r26, 0x07	; 7
    29c8:	66 83       	std	Z+6, r22	; 0x06
    29ca:	81 e0       	ldi	r24, 0x01	; 1
    29cc:	90 e0       	ldi	r25, 0x00	; 0
    29ce:	08 95       	ret

000029d0 <_ZN16avr_usart_device8recvbyteEv>:
    29d0:	dc 01       	movw	r26, r24
    29d2:	16 96       	adiw	r26, 0x06	; 6
    29d4:	ed 91       	ld	r30, X+
    29d6:	fc 91       	ld	r31, X
    29d8:	17 97       	sbiw	r26, 0x07	; 7
    29da:	86 81       	ldd	r24, Z+6	; 0x06
    29dc:	90 e0       	ldi	r25, 0x00	; 0
    29de:	08 95       	ret

000029e0 <_ZN16avr_usart_device7ctrirqsEh>:
    29e0:	fc 01       	movw	r30, r24
    29e2:	62 30       	cpi	r22, 0x02	; 2
    29e4:	b1 f0       	breq	.+44     	; 0x2a12 <_ZN16avr_usart_device7ctrirqsEh+0x32>
    29e6:	50 f4       	brcc	.+20     	; 0x29fc <_ZN16avr_usart_device7ctrirqsEh+0x1c>
    29e8:	66 23       	and	r22, r22
    29ea:	f9 f0       	breq	.+62     	; 0x2a2a <_ZN16avr_usart_device7ctrirqsEh+0x4a>
    29ec:	61 30       	cpi	r22, 0x01	; 1
    29ee:	61 f5       	brne	.+88     	; 0x2a48 <_ZN16avr_usart_device7ctrirqsEh+0x68>
    29f0:	06 80       	ldd	r0, Z+6	; 0x06
    29f2:	f7 81       	ldd	r31, Z+7	; 0x07
    29f4:	e0 2d       	mov	r30, r0
    29f6:	81 81       	ldd	r24, Z+1	; 0x01
    29f8:	8f 77       	andi	r24, 0x7F	; 127
    29fa:	22 c0       	rjmp	.+68     	; 0x2a40 <_ZN16avr_usart_device7ctrirqsEh+0x60>
    29fc:	64 30       	cpi	r22, 0x04	; 4
    29fe:	d9 f0       	breq	.+54     	; 0x2a36 <_ZN16avr_usart_device7ctrirqsEh+0x56>
    2a00:	70 f0       	brcs	.+28     	; 0x2a1e <_ZN16avr_usart_device7ctrirqsEh+0x3e>
    2a02:	65 30       	cpi	r22, 0x05	; 5
    2a04:	09 f5       	brne	.+66     	; 0x2a48 <_ZN16avr_usart_device7ctrirqsEh+0x68>
    2a06:	06 80       	ldd	r0, Z+6	; 0x06
    2a08:	f7 81       	ldd	r31, Z+7	; 0x07
    2a0a:	e0 2d       	mov	r30, r0
    2a0c:	81 81       	ldd	r24, Z+1	; 0x01
    2a0e:	8f 7b       	andi	r24, 0xBF	; 191
    2a10:	17 c0       	rjmp	.+46     	; 0x2a40 <_ZN16avr_usart_device7ctrirqsEh+0x60>
    2a12:	06 80       	ldd	r0, Z+6	; 0x06
    2a14:	f7 81       	ldd	r31, Z+7	; 0x07
    2a16:	e0 2d       	mov	r30, r0
    2a18:	81 81       	ldd	r24, Z+1	; 0x01
    2a1a:	80 62       	ori	r24, 0x20	; 32
    2a1c:	11 c0       	rjmp	.+34     	; 0x2a40 <_ZN16avr_usart_device7ctrirqsEh+0x60>
    2a1e:	06 80       	ldd	r0, Z+6	; 0x06
    2a20:	f7 81       	ldd	r31, Z+7	; 0x07
    2a22:	e0 2d       	mov	r30, r0
    2a24:	81 81       	ldd	r24, Z+1	; 0x01
    2a26:	8f 7d       	andi	r24, 0xDF	; 223
    2a28:	0b c0       	rjmp	.+22     	; 0x2a40 <_ZN16avr_usart_device7ctrirqsEh+0x60>
    2a2a:	06 80       	ldd	r0, Z+6	; 0x06
    2a2c:	f7 81       	ldd	r31, Z+7	; 0x07
    2a2e:	e0 2d       	mov	r30, r0
    2a30:	81 81       	ldd	r24, Z+1	; 0x01
    2a32:	80 68       	ori	r24, 0x80	; 128
    2a34:	05 c0       	rjmp	.+10     	; 0x2a40 <_ZN16avr_usart_device7ctrirqsEh+0x60>
    2a36:	06 80       	ldd	r0, Z+6	; 0x06
    2a38:	f7 81       	ldd	r31, Z+7	; 0x07
    2a3a:	e0 2d       	mov	r30, r0
    2a3c:	81 81       	ldd	r24, Z+1	; 0x01
    2a3e:	80 64       	ori	r24, 0x40	; 64
    2a40:	81 83       	std	Z+1, r24	; 0x01
    2a42:	80 e0       	ldi	r24, 0x00	; 0
    2a44:	90 e0       	ldi	r25, 0x00	; 0
    2a46:	08 95       	ret
    2a48:	8f ef       	ldi	r24, 0xFF	; 255
    2a4a:	9f ef       	ldi	r25, 0xFF	; 255
    2a4c:	08 95       	ret

00002a4e <_ZN16avr_usart_device6enableEi>:
    2a4e:	cf 93       	push	r28
    2a50:	df 93       	push	r29
    2a52:	cd b7       	in	r28, 0x3d	; 61
    2a54:	de b7       	in	r29, 0x3e	; 62
    2a56:	28 97       	sbiw	r28, 0x08	; 8
    2a58:	0f b6       	in	r0, 0x3f	; 63
    2a5a:	f8 94       	cli
    2a5c:	de bf       	out	0x3e, r29	; 62
    2a5e:	0f be       	out	0x3f, r0	; 63
    2a60:	cd bf       	out	0x3d, r28	; 61
    2a62:	fc 01       	movw	r30, r24
    2a64:	a6 81       	ldd	r26, Z+6	; 0x06
    2a66:	b7 81       	ldd	r27, Z+7	; 0x07
    2a68:	11 96       	adiw	r26, 0x01	; 1
    2a6a:	9c 91       	ld	r25, X
    2a6c:	11 97       	sbiw	r26, 0x01	; 1
    2a6e:	61 15       	cp	r22, r1
    2a70:	71 05       	cpc	r23, r1
    2a72:	11 f0       	breq	.+4      	; 0x2a78 <_ZN16avr_usart_device6enableEi+0x2a>
    2a74:	90 61       	ori	r25, 0x10	; 16
    2a76:	01 c0       	rjmp	.+2      	; 0x2a7a <_ZN16avr_usart_device6enableEi+0x2c>
    2a78:	9f 7e       	andi	r25, 0xEF	; 239
    2a7a:	11 96       	adiw	r26, 0x01	; 1
    2a7c:	9c 93       	st	X, r25
    2a7e:	a6 81       	ldd	r26, Z+6	; 0x06
    2a80:	b7 81       	ldd	r27, Z+7	; 0x07
    2a82:	11 96       	adiw	r26, 0x01	; 1
    2a84:	9c 91       	ld	r25, X
    2a86:	11 97       	sbiw	r26, 0x01	; 1
    2a88:	61 15       	cp	r22, r1
    2a8a:	71 05       	cpc	r23, r1
    2a8c:	11 f0       	breq	.+4      	; 0x2a92 <_ZN16avr_usart_device6enableEi+0x44>
    2a8e:	98 60       	ori	r25, 0x08	; 8
    2a90:	01 c0       	rjmp	.+2      	; 0x2a94 <_ZN16avr_usart_device6enableEi+0x46>
    2a92:	97 7f       	andi	r25, 0xF7	; 247
    2a94:	11 96       	adiw	r26, 0x01	; 1
    2a96:	9c 93       	st	X, r25
    2a98:	a6 81       	ldd	r26, Z+6	; 0x06
    2a9a:	b7 81       	ldd	r27, Z+7	; 0x07
    2a9c:	11 96       	adiw	r26, 0x01	; 1
    2a9e:	8c 91       	ld	r24, X
    2aa0:	11 97       	sbiw	r26, 0x01	; 1
    2aa2:	8f 7b       	andi	r24, 0xBF	; 191
    2aa4:	11 96       	adiw	r26, 0x01	; 1
    2aa6:	8c 93       	st	X, r24
    2aa8:	a6 81       	ldd	r26, Z+6	; 0x06
    2aaa:	b7 81       	ldd	r27, Z+7	; 0x07
    2aac:	11 96       	adiw	r26, 0x01	; 1
    2aae:	8c 91       	ld	r24, X
    2ab0:	11 97       	sbiw	r26, 0x01	; 1
    2ab2:	8f 7d       	andi	r24, 0xDF	; 223
    2ab4:	11 96       	adiw	r26, 0x01	; 1
    2ab6:	8c 93       	st	X, r24
    2ab8:	06 80       	ldd	r0, Z+6	; 0x06
    2aba:	f7 81       	ldd	r31, Z+7	; 0x07
    2abc:	e0 2d       	mov	r30, r0
    2abe:	81 81       	ldd	r24, Z+1	; 0x01
    2ac0:	67 2b       	or	r22, r23
    2ac2:	11 f0       	breq	.+4      	; 0x2ac8 <_ZN16avr_usart_device6enableEi+0x7a>
    2ac4:	80 68       	ori	r24, 0x80	; 128
    2ac6:	01 c0       	rjmp	.+2      	; 0x2aca <_ZN16avr_usart_device6enableEi+0x7c>
    2ac8:	8f 77       	andi	r24, 0x7F	; 127
    2aca:	81 83       	std	Z+1, r24	; 0x01
    2acc:	80 e1       	ldi	r24, 0x10	; 16
    2ace:	89 83       	std	Y+1, r24	; 0x01
    2ad0:	87 e2       	ldi	r24, 0x27	; 39
    2ad2:	8a 83       	std	Y+2, r24	; 0x02
    2ad4:	1b 82       	std	Y+3, r1	; 0x03
    2ad6:	1c 82       	std	Y+4, r1	; 0x04
    2ad8:	1d 82       	std	Y+5, r1	; 0x05
    2ada:	1e 82       	std	Y+6, r1	; 0x06
    2adc:	1f 82       	std	Y+7, r1	; 0x07
    2ade:	18 86       	std	Y+8, r1	; 0x08
    2ae0:	29 81       	ldd	r18, Y+1	; 0x01
    2ae2:	3a 81       	ldd	r19, Y+2	; 0x02
    2ae4:	4b 81       	ldd	r20, Y+3	; 0x03
    2ae6:	5c 81       	ldd	r21, Y+4	; 0x04
    2ae8:	6d 81       	ldd	r22, Y+5	; 0x05
    2aea:	7e 81       	ldd	r23, Y+6	; 0x06
    2aec:	8f 81       	ldd	r24, Y+7	; 0x07
    2aee:	98 85       	ldd	r25, Y+8	; 0x08
    2af0:	af ef       	ldi	r26, 0xFF	; 255
    2af2:	0e 94 ce 20 	call	0x419c	; 0x419c <__adddi3_s8>
    2af6:	29 83       	std	Y+1, r18	; 0x01
    2af8:	3a 83       	std	Y+2, r19	; 0x02
    2afa:	4b 83       	std	Y+3, r20	; 0x03
    2afc:	5c 83       	std	Y+4, r21	; 0x04
    2afe:	6d 83       	std	Y+5, r22	; 0x05
    2b00:	7e 83       	std	Y+6, r23	; 0x06
    2b02:	8f 83       	std	Y+7, r24	; 0x07
    2b04:	98 87       	std	Y+8, r25	; 0x08
    2b06:	a0 e0       	ldi	r26, 0x00	; 0
    2b08:	0e 94 da 20 	call	0x41b4	; 0x41b4 <__cmpdi2_s8>
    2b0c:	49 f7       	brne	.-46     	; 0x2ae0 <_ZN16avr_usart_device6enableEi+0x92>
    2b0e:	80 e0       	ldi	r24, 0x00	; 0
    2b10:	90 e0       	ldi	r25, 0x00	; 0
    2b12:	28 96       	adiw	r28, 0x08	; 8
    2b14:	0f b6       	in	r0, 0x3f	; 63
    2b16:	f8 94       	cli
    2b18:	de bf       	out	0x3e, r29	; 62
    2b1a:	0f be       	out	0x3f, r0	; 63
    2b1c:	cd bf       	out	0x3d, r28	; 61
    2b1e:	df 91       	pop	r29
    2b20:	cf 91       	pop	r28
    2b22:	08 95       	ret

00002b24 <system_tick>:
    2b24:	80 91 dd 0a 	lds	r24, 0x0ADD	; 0x800add <__jiffies>
    2b28:	90 91 de 0a 	lds	r25, 0x0ADE	; 0x800ade <__jiffies+0x1>
    2b2c:	a0 91 df 0a 	lds	r26, 0x0ADF	; 0x800adf <__jiffies+0x2>
    2b30:	b0 91 e0 0a 	lds	r27, 0x0AE0	; 0x800ae0 <__jiffies+0x3>
    2b34:	01 96       	adiw	r24, 0x01	; 1
    2b36:	a1 1d       	adc	r26, r1
    2b38:	b1 1d       	adc	r27, r1
    2b3a:	80 93 dd 0a 	sts	0x0ADD, r24	; 0x800add <__jiffies>
    2b3e:	90 93 de 0a 	sts	0x0ADE, r25	; 0x800ade <__jiffies+0x1>
    2b42:	a0 93 df 0a 	sts	0x0ADF, r26	; 0x800adf <__jiffies+0x2>
    2b46:	b0 93 e0 0a 	sts	0x0AE0, r27	; 0x800ae0 <__jiffies+0x3>
    2b4a:	08 95       	ret

00002b4c <usart0_diag_putchar>:
    2b4c:	9f b7       	in	r25, 0x3f	; 63
    2b4e:	f8 94       	cli
    2b50:	80 91 c0 00 	lds	r24, 0x00C0	; 0x8000c0 <__TEXT_REGION_LENGTH__+0x7e00c0>
    2b54:	80 64       	ori	r24, 0x40	; 64
    2b56:	80 93 c0 00 	sts	0x00C0, r24	; 0x8000c0 <__TEXT_REGION_LENGTH__+0x7e00c0>
    2b5a:	80 91 c0 00 	lds	r24, 0x00C0	; 0x8000c0 <__TEXT_REGION_LENGTH__+0x7e00c0>
    2b5e:	85 ff       	sbrs	r24, 5
    2b60:	fc cf       	rjmp	.-8      	; 0x2b5a <usart0_diag_putchar+0xe>
    2b62:	60 93 c6 00 	sts	0x00C6, r22	; 0x8000c6 <__TEXT_REGION_LENGTH__+0x7e00c6>
    2b66:	80 91 c0 00 	lds	r24, 0x00C0	; 0x8000c0 <__TEXT_REGION_LENGTH__+0x7e00c0>
    2b6a:	86 ff       	sbrs	r24, 6
    2b6c:	fc cf       	rjmp	.-8      	; 0x2b66 <usart0_diag_putchar+0x1a>
    2b6e:	9f bf       	out	0x3f, r25	; 63
    2b70:	80 e0       	ldi	r24, 0x00	; 0
    2b72:	90 e0       	ldi	r25, 0x00	; 0
    2b74:	08 95       	ret

00002b76 <__errno_location>:
    2b76:	80 91 1a 09 	lds	r24, 0x091A	; 0x80091a <__current_schedee>
    2b7a:	90 91 1b 09 	lds	r25, 0x091B	; 0x80091b <__current_schedee+0x1>
    2b7e:	00 97       	sbiw	r24, 0x00	; 0
    2b80:	11 f0       	breq	.+4      	; 0x2b86 <__errno_location+0x10>
    2b82:	44 96       	adiw	r24, 0x14	; 20
    2b84:	08 95       	ret
    2b86:	8a ed       	ldi	r24, 0xDA	; 218
    2b88:	9a e0       	ldi	r25, 0x0A	; 10
    2b8a:	08 95       	ret

00002b8c <_ZN5genos7resmngr5mkdirEPKc>:
    2b8c:	8f e5       	ldi	r24, 0x5F	; 95
    2b8e:	90 e0       	ldi	r25, 0x00	; 0
    2b90:	08 95       	ret

00002b92 <_ZN5genos15named_node_list7iterateEPcjPNS_7openresE>:
    2b92:	80 e0       	ldi	r24, 0x00	; 0
    2b94:	90 e0       	ldi	r25, 0x00	; 0
    2b96:	08 95       	ret

00002b98 <_ZN5genos9directory6mknodeEPKcPNS_7openresE>:
    2b98:	8f e5       	ldi	r24, 0x5F	; 95
    2b9a:	90 e0       	ldi	r25, 0x00	; 0
    2b9c:	08 95       	ret

00002b9e <_ZN5genos8resource7releaseEv>:
    2b9e:	8f e5       	ldi	r24, 0x5F	; 95
    2ba0:	90 e0       	ldi	r25, 0x00	; 0
    2ba2:	08 95       	ret

00002ba4 <_ZN5genos13autom_schedee7executeEv>:
    2ba4:	bc 01       	movw	r22, r24
    2ba6:	68 5d       	subi	r22, 0xD8	; 216
    2ba8:	7f 4f       	sbci	r23, 0xFF	; 255
    2baa:	dc 01       	movw	r26, r24
    2bac:	9a 96       	adiw	r26, 0x2a	; 42
    2bae:	ed 91       	ld	r30, X+
    2bb0:	fc 91       	ld	r31, X
    2bb2:	9b 97       	sbiw	r26, 0x2b	; 43
    2bb4:	9c 96       	adiw	r26, 0x2c	; 44
    2bb6:	8d 91       	ld	r24, X+
    2bb8:	9c 91       	ld	r25, X
    2bba:	9d 97       	sbiw	r26, 0x2d	; 45
    2bbc:	09 94       	ijmp

00002bbe <_ZN5genos14device_manager4openEPKcPNS_7openresE>:
    2bbe:	af 92       	push	r10
    2bc0:	bf 92       	push	r11
    2bc2:	cf 92       	push	r12
    2bc4:	df 92       	push	r13
    2bc6:	ef 92       	push	r14
    2bc8:	ff 92       	push	r15
    2bca:	0f 93       	push	r16
    2bcc:	1f 93       	push	r17
    2bce:	cf 93       	push	r28
    2bd0:	df 93       	push	r29
    2bd2:	5a 01       	movw	r10, r20
    2bd4:	6b 01       	movw	r12, r22
    2bd6:	2f ef       	ldi	r18, 0xFF	; 255
    2bd8:	c2 1a       	sub	r12, r18
    2bda:	d2 0a       	sbc	r13, r18
    2bdc:	dc 01       	movw	r26, r24
    2bde:	1a 96       	adiw	r26, 0x0a	; 10
    2be0:	cd 91       	ld	r28, X+
    2be2:	dc 91       	ld	r29, X
    2be4:	1b 97       	sbiw	r26, 0x0b	; 11
    2be6:	8c 01       	movw	r16, r24
    2be8:	06 5f       	subi	r16, 0xF6	; 246
    2bea:	1f 4f       	sbci	r17, 0xFF	; 255
    2bec:	c0 17       	cp	r28, r16
    2bee:	d1 07       	cpc	r29, r17
    2bf0:	31 f1       	breq	.+76     	; 0x2c3e <_ZN5genos14device_manager4openEPKcPNS_7openresE+0x80>
    2bf2:	7e 01       	movw	r14, r28
    2bf4:	b2 e0       	ldi	r27, 0x02	; 2
    2bf6:	eb 1a       	sub	r14, r27
    2bf8:	f1 08       	sbc	r15, r1
    2bfa:	b6 01       	movw	r22, r12
    2bfc:	f7 01       	movw	r30, r14
    2bfe:	86 81       	ldd	r24, Z+6	; 0x06
    2c00:	97 81       	ldd	r25, Z+7	; 0x07
    2c02:	0e 94 0b 0e 	call	0x1c16	; 0x1c16 <strcmp>
    2c06:	89 2b       	or	r24, r25
    2c08:	b1 f4       	brne	.+44     	; 0x2c36 <_ZN5genos14device_manager4openEPKcPNS_7openresE+0x78>
    2c0a:	d5 01       	movw	r26, r10
    2c0c:	ed 92       	st	X+, r14
    2c0e:	fc 92       	st	X, r15
    2c10:	d7 01       	movw	r26, r14
    2c12:	ed 91       	ld	r30, X+
    2c14:	fc 91       	ld	r31, X
    2c16:	02 80       	ldd	r0, Z+2	; 0x02
    2c18:	f3 81       	ldd	r31, Z+3	; 0x03
    2c1a:	e0 2d       	mov	r30, r0
    2c1c:	b5 01       	movw	r22, r10
    2c1e:	c7 01       	movw	r24, r14
    2c20:	df 91       	pop	r29
    2c22:	cf 91       	pop	r28
    2c24:	1f 91       	pop	r17
    2c26:	0f 91       	pop	r16
    2c28:	ff 90       	pop	r15
    2c2a:	ef 90       	pop	r14
    2c2c:	df 90       	pop	r13
    2c2e:	cf 90       	pop	r12
    2c30:	bf 90       	pop	r11
    2c32:	af 90       	pop	r10
    2c34:	09 94       	ijmp
    2c36:	09 90       	ld	r0, Y+
    2c38:	d8 81       	ld	r29, Y
    2c3a:	c0 2d       	mov	r28, r0
    2c3c:	d7 cf       	rjmp	.-82     	; 0x2bec <_ZN5genos14device_manager4openEPKcPNS_7openresE+0x2e>
    2c3e:	0e 94 bb 15 	call	0x2b76	; 0x2b76 <__errno_location>
    2c42:	2e ef       	ldi	r18, 0xFE	; 254
    2c44:	3f ef       	ldi	r19, 0xFF	; 255
    2c46:	fc 01       	movw	r30, r24
    2c48:	31 83       	std	Z+1, r19	; 0x01
    2c4a:	20 83       	st	Z, r18
    2c4c:	8e ef       	ldi	r24, 0xFE	; 254
    2c4e:	9f ef       	ldi	r25, 0xFF	; 255
    2c50:	df 91       	pop	r29
    2c52:	cf 91       	pop	r28
    2c54:	1f 91       	pop	r17
    2c56:	0f 91       	pop	r16
    2c58:	ff 90       	pop	r15
    2c5a:	ef 90       	pop	r14
    2c5c:	df 90       	pop	r13
    2c5e:	cf 90       	pop	r12
    2c60:	bf 90       	pop	r11
    2c62:	af 90       	pop	r10
    2c64:	08 95       	ret

00002c66 <_ZN5genos11coopschedee8displaceEv>:
    2c66:	fc 01       	movw	r30, r24
    2c68:	23 89       	ldd	r18, Z+19	; 0x13
    2c6a:	2e 7f       	andi	r18, 0xFE	; 254
    2c6c:	23 8b       	std	Z+19, r18	; 0x13
    2c6e:	88 96       	adiw	r24, 0x28	; 40
    2c70:	0e 94 d7 01 	call	0x3ae	; 0x3ae <context_save_and_displace>
    2c74:	80 e0       	ldi	r24, 0x00	; 0
    2c76:	90 e0       	ldi	r25, 0x00	; 0
    2c78:	08 95       	ret

00002c7a <_ZN5genos11coopschedee7executeEv>:
    2c7a:	88 96       	adiw	r24, 0x28	; 40
    2c7c:	0c 94 a4 01 	jmp	0x348	; 0x348 <context_load>

00002c80 <_ZN5genos3avrL15tc_divider_codeEj.lto_priv.104.lto_priv.110>:
    2c80:	88 30       	cpi	r24, 0x08	; 8
    2c82:	91 05       	cpc	r25, r1
    2c84:	79 f0       	breq	.+30     	; 0x2ca4 <_ZN5genos3avrL15tc_divider_codeEj.lto_priv.104.lto_priv.110+0x24>
    2c86:	30 f4       	brcc	.+12     	; 0x2c94 <_ZN5genos3avrL15tc_divider_codeEj.lto_priv.104.lto_priv.110+0x14>
    2c88:	00 97       	sbiw	r24, 0x00	; 0
    2c8a:	91 f0       	breq	.+36     	; 0x2cb0 <_ZN5genos3avrL15tc_divider_codeEj.lto_priv.104.lto_priv.110+0x30>
    2c8c:	01 97       	sbiw	r24, 0x01	; 1
    2c8e:	71 f4       	brne	.+28     	; 0x2cac <_ZN5genos3avrL15tc_divider_codeEj.lto_priv.104.lto_priv.110+0x2c>
    2c90:	81 e0       	ldi	r24, 0x01	; 1
    2c92:	08 95       	ret
    2c94:	80 34       	cpi	r24, 0x40	; 64
    2c96:	91 05       	cpc	r25, r1
    2c98:	39 f0       	breq	.+14     	; 0x2ca8 <_ZN5genos3avrL15tc_divider_codeEj.lto_priv.104.lto_priv.110+0x28>
    2c9a:	81 15       	cp	r24, r1
    2c9c:	91 40       	sbci	r25, 0x01	; 1
    2c9e:	31 f4       	brne	.+12     	; 0x2cac <_ZN5genos3avrL15tc_divider_codeEj.lto_priv.104.lto_priv.110+0x2c>
    2ca0:	84 e0       	ldi	r24, 0x04	; 4
    2ca2:	08 95       	ret
    2ca4:	82 e0       	ldi	r24, 0x02	; 2
    2ca6:	08 95       	ret
    2ca8:	83 e0       	ldi	r24, 0x03	; 3
    2caa:	08 95       	ret
    2cac:	8f ef       	ldi	r24, 0xFF	; 255
    2cae:	08 95       	ret
    2cb0:	80 e0       	ldi	r24, 0x00	; 0
    2cb2:	08 95       	ret

00002cb4 <millis>:
    2cb4:	cf 92       	push	r12
    2cb6:	df 92       	push	r13
    2cb8:	ef 92       	push	r14
    2cba:	ff 92       	push	r15
    2cbc:	0e 94 49 19 	call	0x3292	; 0x3292 <system_lock>
    2cc0:	c0 90 dd 0a 	lds	r12, 0x0ADD	; 0x800add <__jiffies>
    2cc4:	d0 90 de 0a 	lds	r13, 0x0ADE	; 0x800ade <__jiffies+0x1>
    2cc8:	e0 90 df 0a 	lds	r14, 0x0ADF	; 0x800adf <__jiffies+0x2>
    2ccc:	f0 90 e0 0a 	lds	r15, 0x0AE0	; 0x800ae0 <__jiffies+0x3>
    2cd0:	0e 94 36 19 	call	0x326c	; 0x326c <system_unlock>
    2cd4:	60 91 1d 01 	lds	r22, 0x011D	; 0x80011d <jiffies_to_millis>
    2cd8:	70 91 1e 01 	lds	r23, 0x011E	; 0x80011e <jiffies_to_millis+0x1>
    2cdc:	80 91 1f 01 	lds	r24, 0x011F	; 0x80011f <jiffies_to_millis+0x2>
    2ce0:	90 91 20 01 	lds	r25, 0x0120	; 0x800120 <jiffies_to_millis+0x3>
    2ce4:	a7 01       	movw	r20, r14
    2ce6:	96 01       	movw	r18, r12
    2ce8:	0e 94 03 20 	call	0x4006	; 0x4006 <__mulsi3>
    2cec:	67 2f       	mov	r22, r23
    2cee:	78 2f       	mov	r23, r24
    2cf0:	89 2f       	mov	r24, r25
    2cf2:	99 27       	eor	r25, r25
    2cf4:	ff 90       	pop	r15
    2cf6:	ef 90       	pop	r14
    2cf8:	df 90       	pop	r13
    2cfa:	cf 90       	pop	r12
    2cfc:	08 95       	ret

00002cfe <delay>:
    2cfe:	cf 92       	push	r12
    2d00:	df 92       	push	r13
    2d02:	ef 92       	push	r14
    2d04:	ff 92       	push	r15
    2d06:	6b 01       	movw	r12, r22
    2d08:	7c 01       	movw	r14, r24
    2d0a:	0e 94 5a 16 	call	0x2cb4	; 0x2cb4 <millis>
    2d0e:	0e 94 e1 1e 	call	0x3dc2	; 0x3dc2 <__floatsisf>
    2d12:	a7 01       	movw	r20, r14
    2d14:	96 01       	movw	r18, r12
    2d16:	0e 94 c6 1d 	call	0x3b8c	; 0x3b8c <__addsf3>
    2d1a:	0e 94 a9 1e 	call	0x3d52	; 0x3d52 <__fixsfsi>
    2d1e:	6b 01       	movw	r12, r22
    2d20:	7c 01       	movw	r14, r24
    2d22:	0e 94 5a 16 	call	0x2cb4	; 0x2cb4 <millis>
    2d26:	a7 01       	movw	r20, r14
    2d28:	96 01       	movw	r18, r12
    2d2a:	26 1b       	sub	r18, r22
    2d2c:	37 0b       	sbc	r19, r23
    2d2e:	48 0b       	sbc	r20, r24
    2d30:	59 0b       	sbc	r21, r25
    2d32:	12 16       	cp	r1, r18
    2d34:	13 06       	cpc	r1, r19
    2d36:	14 06       	cpc	r1, r20
    2d38:	15 06       	cpc	r1, r21
    2d3a:	9c f3       	brlt	.-26     	; 0x2d22 <delay+0x24>
    2d3c:	ff 90       	pop	r15
    2d3e:	ef 90       	pop	r14
    2d40:	df 90       	pop	r13
    2d42:	cf 90       	pop	r12
    2d44:	08 95       	ret

00002d46 <_ZN5genos4node7gettypeEv>:
    2d46:	81 e0       	ldi	r24, 0x01	; 1
    2d48:	90 e0       	ldi	r25, 0x00	; 0
    2d4a:	08 95       	ret

00002d4c <dlist_del_init.lto_priv.113.lto_priv.130>:
    2d4c:	cf 93       	push	r28
    2d4e:	df 93       	push	r29
    2d50:	fc 01       	movw	r30, r24
    2d52:	c0 81       	ld	r28, Z
    2d54:	d1 81       	ldd	r29, Z+1	; 0x01
    2d56:	a2 81       	ldd	r26, Z+2	; 0x02
    2d58:	b3 81       	ldd	r27, Z+3	; 0x03
    2d5a:	bb 83       	std	Y+3, r27	; 0x03
    2d5c:	aa 83       	std	Y+2, r26	; 0x02
    2d5e:	cd 93       	st	X+, r28
    2d60:	dc 93       	st	X, r29
    2d62:	93 83       	std	Z+3, r25	; 0x03
    2d64:	82 83       	std	Z+2, r24	; 0x02
    2d66:	91 83       	std	Z+1, r25	; 0x01
    2d68:	80 83       	st	Z, r24
    2d6a:	df 91       	pop	r29
    2d6c:	cf 91       	pop	r28
    2d6e:	08 95       	ret

00002d70 <dlist_del.lto_priv.93.lto_priv.107>:
    2d70:	cf 93       	push	r28
    2d72:	df 93       	push	r29
    2d74:	fc 01       	movw	r30, r24
    2d76:	c0 81       	ld	r28, Z
    2d78:	d1 81       	ldd	r29, Z+1	; 0x01
    2d7a:	a2 81       	ldd	r26, Z+2	; 0x02
    2d7c:	b3 81       	ldd	r27, Z+3	; 0x03
    2d7e:	bb 83       	std	Y+3, r27	; 0x03
    2d80:	aa 83       	std	Y+2, r26	; 0x02
    2d82:	cd 93       	st	X+, r28
    2d84:	dc 93       	st	X, r29
    2d86:	80 e0       	ldi	r24, 0x00	; 0
    2d88:	91 e0       	ldi	r25, 0x01	; 1
    2d8a:	91 83       	std	Z+1, r25	; 0x01
    2d8c:	80 83       	st	Z, r24
    2d8e:	80 e0       	ldi	r24, 0x00	; 0
    2d90:	92 e0       	ldi	r25, 0x02	; 2
    2d92:	93 83       	std	Z+3, r25	; 0x03
    2d94:	82 83       	std	Z+2, r24	; 0x02
    2d96:	df 91       	pop	r29
    2d98:	cf 91       	pop	r28
    2d9a:	08 95       	ret

00002d9c <__context_displace_vector__>:
    2d9c:	8f ef       	ldi	r24, 0xFF	; 255
    2d9e:	98 e0       	ldi	r25, 0x08	; 8
    2da0:	9e bf       	out	0x3e, r25	; 62
    2da2:	8d bf       	out	0x3d, r24	; 61
    2da4:	78 94       	sei
    2da6:	10 92 d9 0a 	sts	0x0AD9, r1	; 0x800ad9 <_ZL5count.lto_priv.124+0x1>
    2daa:	10 92 d8 0a 	sts	0x0AD8, r1	; 0x800ad8 <_ZL5count.lto_priv.124>
    2dae:	0e 94 88 11 	call	0x2310	; 0x2310 <__schedule__>

00002db2 <_ZN5genos18autom_schedee_base8displaceEv>:
    2db2:	fc 01       	movw	r30, r24
    2db4:	23 89       	ldd	r18, Z+19	; 0x13
    2db6:	2e 7f       	andi	r18, 0xFE	; 254
    2db8:	23 8b       	std	Z+19, r18	; 0x13
    2dba:	0e 94 ce 16 	call	0x2d9c	; 0x2d9c <__context_displace_vector__>

00002dbe <__displace__>:
    2dbe:	80 91 1a 09 	lds	r24, 0x091A	; 0x80091a <__current_schedee>
    2dc2:	90 91 1b 09 	lds	r25, 0x091B	; 0x80091b <__current_schedee+0x1>
    2dc6:	dc 01       	movw	r26, r24
    2dc8:	53 96       	adiw	r26, 0x13	; 19
    2dca:	2c 91       	ld	r18, X
    2dcc:	53 97       	sbiw	r26, 0x13	; 19
    2dce:	21 ff       	sbrs	r18, 1
    2dd0:	06 c0       	rjmp	.+12     	; 0x2dde <__displace__+0x20>
    2dd2:	ed 91       	ld	r30, X+
    2dd4:	fc 91       	ld	r31, X
    2dd6:	02 80       	ldd	r0, Z+2	; 0x02
    2dd8:	f3 81       	ldd	r31, Z+3	; 0x03
    2dda:	e0 2d       	mov	r30, r0
    2ddc:	09 94       	ijmp
    2dde:	8f ef       	ldi	r24, 0xFF	; 255
    2de0:	9f ef       	ldi	r25, 0xFF	; 255
    2de2:	08 95       	ret

00002de4 <msleep>:
    2de4:	4f 92       	push	r4
    2de6:	5f 92       	push	r5
    2de8:	6f 92       	push	r6
    2dea:	7f 92       	push	r7
    2dec:	bf 92       	push	r11
    2dee:	cf 92       	push	r12
    2df0:	df 92       	push	r13
    2df2:	ef 92       	push	r14
    2df4:	ff 92       	push	r15
    2df6:	0f 93       	push	r16
    2df8:	1f 93       	push	r17
    2dfa:	cf 93       	push	r28
    2dfc:	df 93       	push	r29
    2dfe:	c0 91 1a 09 	lds	r28, 0x091A	; 0x80091a <__current_schedee>
    2e02:	d0 91 1b 09 	lds	r29, 0x091B	; 0x80091b <__current_schedee+0x1>
    2e06:	6c 01       	movw	r12, r24
    2e08:	e1 2c       	mov	r14, r1
    2e0a:	f1 2c       	mov	r15, r1
    2e0c:	20 97       	sbiw	r28, 0x00	; 0
    2e0e:	09 f4       	brne	.+2      	; 0x2e12 <msleep+0x2e>
    2e10:	80 c0       	rjmp	.+256    	; 0x2f12 <msleep+0x12e>
    2e12:	8b 89       	ldd	r24, Y+19	; 0x13
    2e14:	81 ff       	sbrs	r24, 1
    2e16:	7d c0       	rjmp	.+250    	; 0x2f12 <msleep+0x12e>
    2e18:	0e 94 49 19 	call	0x3292	; 0x3292 <system_lock>
    2e1c:	8e 01       	movw	r16, r28
    2e1e:	0c 5f       	subi	r16, 0xFC	; 252
    2e20:	1f 4f       	sbci	r17, 0xFF	; 255
    2e22:	c8 01       	movw	r24, r16
    2e24:	0e 94 a6 16 	call	0x2d4c	; 0x2d4c <dlist_del_init.lto_priv.113.lto_priv.130>
    2e28:	0e 94 36 19 	call	0x326c	; 0x326c <system_unlock>
    2e2c:	83 e0       	ldi	r24, 0x03	; 3
    2e2e:	b8 2e       	mov	r11, r24
    2e30:	b8 86       	std	Y+8, r11	; 0x08
    2e32:	82 e0       	ldi	r24, 0x02	; 2
    2e34:	8a 8b       	std	Y+18, r24	; 0x12
    2e36:	9e 2d       	mov	r25, r14
    2e38:	8d 2d       	mov	r24, r13
    2e3a:	7c 2d       	mov	r23, r12
    2e3c:	66 27       	eor	r22, r22
    2e3e:	20 91 1d 01 	lds	r18, 0x011D	; 0x80011d <jiffies_to_millis>
    2e42:	30 91 1e 01 	lds	r19, 0x011E	; 0x80011e <jiffies_to_millis+0x1>
    2e46:	40 91 1f 01 	lds	r20, 0x011F	; 0x80011f <jiffies_to_millis+0x2>
    2e4a:	50 91 20 01 	lds	r21, 0x0120	; 0x800120 <jiffies_to_millis+0x3>
    2e4e:	0e 94 13 20 	call	0x4026	; 0x4026 <__udivmodsi4>
    2e52:	69 01       	movw	r12, r18
    2e54:	7a 01       	movw	r14, r20
    2e56:	0e 94 49 19 	call	0x3292	; 0x3292 <system_lock>
    2e5a:	40 90 dd 0a 	lds	r4, 0x0ADD	; 0x800add <__jiffies>
    2e5e:	50 90 de 0a 	lds	r5, 0x0ADE	; 0x800ade <__jiffies+0x1>
    2e62:	60 90 df 0a 	lds	r6, 0x0ADF	; 0x800adf <__jiffies+0x2>
    2e66:	70 90 e0 0a 	lds	r7, 0x0AE0	; 0x800ae0 <__jiffies+0x3>
    2e6a:	0e 94 36 19 	call	0x326c	; 0x326c <system_unlock>
    2e6e:	b8 86       	std	Y+8, r11	; 0x08
    2e70:	1f 83       	std	Y+7, r17	; 0x07
    2e72:	0e 83       	std	Y+6, r16	; 0x06
    2e74:	1d 83       	std	Y+5, r17	; 0x05
    2e76:	0c 83       	std	Y+4, r16	; 0x04
    2e78:	49 86       	std	Y+9, r4	; 0x09
    2e7a:	5a 86       	std	Y+10, r5	; 0x0a
    2e7c:	6b 86       	std	Y+11, r6	; 0x0b
    2e7e:	7c 86       	std	Y+12, r7	; 0x0c
    2e80:	cd 86       	std	Y+13, r12	; 0x0d
    2e82:	de 86       	std	Y+14, r13	; 0x0e
    2e84:	ef 86       	std	Y+15, r14	; 0x0f
    2e86:	f8 8a       	std	Y+16, r15	; 0x10
    2e88:	c4 0c       	add	r12, r4
    2e8a:	d5 1c       	adc	r13, r5
    2e8c:	e6 1c       	adc	r14, r6
    2e8e:	f7 1c       	adc	r15, r7
    2e90:	0e 94 49 19 	call	0x3292	; 0x3292 <system_lock>
    2e94:	e0 91 15 01 	lds	r30, 0x0115	; 0x800115 <ktimer_list>
    2e98:	f0 91 16 01 	lds	r31, 0x0116	; 0x800116 <ktimer_list+0x1>
    2e9c:	21 e0       	ldi	r18, 0x01	; 1
    2e9e:	e5 31       	cpi	r30, 0x15	; 21
    2ea0:	f2 07       	cpc	r31, r18
    2ea2:	d1 f0       	breq	.+52     	; 0x2ed8 <msleep+0xf4>
    2ea4:	45 81       	ldd	r20, Z+5	; 0x05
    2ea6:	56 81       	ldd	r21, Z+6	; 0x06
    2ea8:	67 81       	ldd	r22, Z+7	; 0x07
    2eaa:	70 85       	ldd	r23, Z+8	; 0x08
    2eac:	81 85       	ldd	r24, Z+9	; 0x09
    2eae:	92 85       	ldd	r25, Z+10	; 0x0a
    2eb0:	a3 85       	ldd	r26, Z+11	; 0x0b
    2eb2:	b4 85       	ldd	r27, Z+12	; 0x0c
    2eb4:	84 0f       	add	r24, r20
    2eb6:	95 1f       	adc	r25, r21
    2eb8:	a6 1f       	adc	r26, r22
    2eba:	b7 1f       	adc	r27, r23
    2ebc:	a7 01       	movw	r20, r14
    2ebe:	96 01       	movw	r18, r12
    2ec0:	28 1b       	sub	r18, r24
    2ec2:	39 0b       	sbc	r19, r25
    2ec4:	4a 0b       	sbc	r20, r26
    2ec6:	5b 0b       	sbc	r21, r27
    2ec8:	57 fd       	sbrc	r21, 7
    2eca:	04 c0       	rjmp	.+8      	; 0x2ed4 <msleep+0xf0>
    2ecc:	01 90       	ld	r0, Z+
    2ece:	f0 81       	ld	r31, Z
    2ed0:	e0 2d       	mov	r30, r0
    2ed2:	e4 cf       	rjmp	.-56     	; 0x2e9c <msleep+0xb8>
    2ed4:	30 97       	sbiw	r30, 0x00	; 0
    2ed6:	11 f4       	brne	.+4      	; 0x2edc <msleep+0xf8>
    2ed8:	e5 e1       	ldi	r30, 0x15	; 21
    2eda:	f1 e0       	ldi	r31, 0x01	; 1
    2edc:	a2 81       	ldd	r26, Z+2	; 0x02
    2ede:	b3 81       	ldd	r27, Z+3	; 0x03
    2ee0:	bf 83       	std	Y+7, r27	; 0x07
    2ee2:	ae 83       	std	Y+6, r26	; 0x06
    2ee4:	fd 83       	std	Y+5, r31	; 0x05
    2ee6:	ec 83       	std	Y+4, r30	; 0x04
    2ee8:	13 83       	std	Z+3, r17	; 0x03
    2eea:	02 83       	std	Z+2, r16	; 0x02
    2eec:	0d 93       	st	X+, r16
    2eee:	1c 93       	st	X, r17
    2ef0:	0e 94 36 19 	call	0x326c	; 0x326c <system_unlock>
    2ef4:	df 91       	pop	r29
    2ef6:	cf 91       	pop	r28
    2ef8:	1f 91       	pop	r17
    2efa:	0f 91       	pop	r16
    2efc:	ff 90       	pop	r15
    2efe:	ef 90       	pop	r14
    2f00:	df 90       	pop	r13
    2f02:	cf 90       	pop	r12
    2f04:	bf 90       	pop	r11
    2f06:	7f 90       	pop	r7
    2f08:	6f 90       	pop	r6
    2f0a:	5f 90       	pop	r5
    2f0c:	4f 90       	pop	r4
    2f0e:	0c 94 df 16 	jmp	0x2dbe	; 0x2dbe <__displace__>
    2f12:	c7 01       	movw	r24, r14
    2f14:	b6 01       	movw	r22, r12
    2f16:	0e 94 df 1e 	call	0x3dbe	; 0x3dbe <__floatunsisf>
    2f1a:	0e 94 7f 16 	call	0x2cfe	; 0x2cfe <delay>
    2f1e:	80 e0       	ldi	r24, 0x00	; 0
    2f20:	90 e0       	ldi	r25, 0x00	; 0
    2f22:	df 91       	pop	r29
    2f24:	cf 91       	pop	r28
    2f26:	1f 91       	pop	r17
    2f28:	0f 91       	pop	r16
    2f2a:	ff 90       	pop	r15
    2f2c:	ef 90       	pop	r14
    2f2e:	df 90       	pop	r13
    2f30:	cf 90       	pop	r12
    2f32:	bf 90       	pop	r11
    2f34:	7f 90       	pop	r7
    2f36:	6f 90       	pop	r6
    2f38:	5f 90       	pop	r5
    2f3a:	4f 90       	pop	r4
    2f3c:	08 95       	ret

00002f3e <dlist_move_tail.lto_priv.121.lto_priv.126>:
    2f3e:	cf 93       	push	r28
    2f40:	df 93       	push	r29
    2f42:	fc 01       	movw	r30, r24
    2f44:	c0 81       	ld	r28, Z
    2f46:	d1 81       	ldd	r29, Z+1	; 0x01
    2f48:	a2 81       	ldd	r26, Z+2	; 0x02
    2f4a:	b3 81       	ldd	r27, Z+3	; 0x03
    2f4c:	bb 83       	std	Y+3, r27	; 0x03
    2f4e:	aa 83       	std	Y+2, r26	; 0x02
    2f50:	cd 93       	st	X+, r28
    2f52:	dc 93       	st	X, r29
    2f54:	eb 01       	movw	r28, r22
    2f56:	aa 81       	ldd	r26, Y+2	; 0x02
    2f58:	bb 81       	ldd	r27, Y+3	; 0x03
    2f5a:	b3 83       	std	Z+3, r27	; 0x03
    2f5c:	a2 83       	std	Z+2, r26	; 0x02
    2f5e:	71 83       	std	Z+1, r23	; 0x01
    2f60:	60 83       	st	Z, r22
    2f62:	9b 83       	std	Y+3, r25	; 0x03
    2f64:	8a 83       	std	Y+2, r24	; 0x02
    2f66:	8d 93       	st	X+, r24
    2f68:	9c 93       	st	X, r25
    2f6a:	df 91       	pop	r29
    2f6c:	cf 91       	pop	r28
    2f6e:	08 95       	ret

00002f70 <_ZN5genos11coopschedee7starterEPv>:
    2f70:	cf 93       	push	r28
    2f72:	df 93       	push	r29
    2f74:	ec 01       	movw	r28, r24
    2f76:	dc 01       	movw	r26, r24
    2f78:	a1 5b       	subi	r26, 0xB1	; 177
    2f7a:	bf 4f       	sbci	r27, 0xFF	; 255
    2f7c:	fc 01       	movw	r30, r24
    2f7e:	e3 5b       	subi	r30, 0xB3	; 179
    2f80:	ff 4f       	sbci	r31, 0xFF	; 255
    2f82:	01 90       	ld	r0, Z+
    2f84:	f0 81       	ld	r31, Z
    2f86:	e0 2d       	mov	r30, r0
    2f88:	8d 91       	ld	r24, X+
    2f8a:	9c 91       	ld	r25, X
    2f8c:	09 95       	icall
    2f8e:	cb 5a       	subi	r28, 0xAB	; 171
    2f90:	df 4f       	sbci	r29, 0xFF	; 255
    2f92:	99 83       	std	Y+1, r25	; 0x01
    2f94:	88 83       	st	Y, r24
    2f96:	c0 91 1a 09 	lds	r28, 0x091A	; 0x80091a <__current_schedee>
    2f9a:	d0 91 1b 09 	lds	r29, 0x091B	; 0x80091b <__current_schedee+0x1>
    2f9e:	0e 94 49 19 	call	0x3292	; 0x3292 <system_lock>
    2fa2:	84 e0       	ldi	r24, 0x04	; 4
    2fa4:	8a 8b       	std	Y+18, r24	; 0x12
    2fa6:	69 e1       	ldi	r22, 0x19	; 25
    2fa8:	71 e0       	ldi	r23, 0x01	; 1
    2faa:	ce 01       	movw	r24, r28
    2fac:	04 96       	adiw	r24, 0x04	; 4
    2fae:	0e 94 9f 17 	call	0x2f3e	; 0x2f3e <dlist_move_tail.lto_priv.121.lto_priv.126>
    2fb2:	0e 94 36 19 	call	0x326c	; 0x326c <system_unlock>
    2fb6:	df 91       	pop	r29
    2fb8:	cf 91       	pop	r28
    2fba:	0c 94 df 16 	jmp	0x2dbe	; 0x2dbe <__displace__>

00002fbe <schedee_run>:
    2fbe:	cf 93       	push	r28
    2fc0:	df 93       	push	r29
    2fc2:	ec 01       	movw	r28, r24
    2fc4:	0e 94 49 19 	call	0x3292	; 0x3292 <system_lock>
    2fc8:	1a 8a       	std	Y+18, r1	; 0x12
    2fca:	18 86       	std	Y+8, r1	; 0x08
    2fcc:	61 e1       	ldi	r22, 0x11	; 17
    2fce:	71 e0       	ldi	r23, 0x01	; 1
    2fd0:	ce 01       	movw	r24, r28
    2fd2:	04 96       	adiw	r24, 0x04	; 4
    2fd4:	0e 94 9f 17 	call	0x2f3e	; 0x2f3e <dlist_move_tail.lto_priv.121.lto_priv.126>
    2fd8:	df 91       	pop	r29
    2fda:	cf 91       	pop	r28
    2fdc:	0c 94 36 19 	jmp	0x326c	; 0x326c <system_unlock>

00002fe0 <diag_write>:
    2fe0:	ab 01       	movw	r20, r22
    2fe2:	e0 91 d6 0a 	lds	r30, 0x0AD6	; 0x800ad6 <current_diag_ops>
    2fe6:	f0 91 d7 0a 	lds	r31, 0x0AD7	; 0x800ad7 <current_diag_ops+0x1>
    2fea:	04 80       	ldd	r0, Z+4	; 0x04
    2fec:	f5 81       	ldd	r31, Z+5	; 0x05
    2fee:	e0 2d       	mov	r30, r0
    2ff0:	bc 01       	movw	r22, r24
    2ff2:	80 91 d4 0a 	lds	r24, 0x0AD4	; 0x800ad4 <current_diag_priv>
    2ff6:	90 91 d5 0a 	lds	r25, 0x0AD5	; 0x800ad5 <current_diag_priv+0x1>
    2ffa:	09 94       	ijmp

00002ffc <diag_putc>:
    2ffc:	e0 91 d6 0a 	lds	r30, 0x0AD6	; 0x800ad6 <current_diag_ops>
    3000:	f0 91 d7 0a 	lds	r31, 0x0AD7	; 0x800ad7 <current_diag_ops+0x1>
    3004:	01 90       	ld	r0, Z+
    3006:	f0 81       	ld	r31, Z
    3008:	e0 2d       	mov	r30, r0
    300a:	68 2f       	mov	r22, r24
    300c:	80 91 d4 0a 	lds	r24, 0x0AD4	; 0x800ad4 <current_diag_priv>
    3010:	90 91 d5 0a 	lds	r25, 0x0AD5	; 0x800ad5 <current_diag_priv+0x1>
    3014:	09 94       	ijmp

00003016 <debug_print_newline.lto_priv.100.lto_priv.109>:
    3016:	8d e0       	ldi	r24, 0x0D	; 13
    3018:	0e 94 fe 17 	call	0x2ffc	; 0x2ffc <diag_putc>
    301c:	8a e0       	ldi	r24, 0x0A	; 10
    301e:	0c 94 fe 17 	jmp	0x2ffc	; 0x2ffc <diag_putc>

00003022 <irqtable_stub>:
    3022:	ec 01       	movw	r28, r24
    3024:	8f b7       	in	r24, 0x3f	; 63
    3026:	f8 94       	cli
    3028:	88 e0       	ldi	r24, 0x08	; 8
    302a:	94 e0       	ldi	r25, 0x04	; 4
    302c:	0e 94 a5 19 	call	0x334a	; 0x334a <debug_print>
    3030:	9e 01       	movw	r18, r28
    3032:	40 e0       	ldi	r20, 0x00	; 0
    3034:	50 e0       	ldi	r21, 0x00	; 0
    3036:	60 e0       	ldi	r22, 0x00	; 0
    3038:	70 e0       	ldi	r23, 0x00	; 0
    303a:	80 e0       	ldi	r24, 0x00	; 0
    303c:	90 e0       	ldi	r25, 0x00	; 0
    303e:	0e 94 bd 19 	call	0x337a	; 0x337a <debug_printdec_uint64>
    3042:	0e 94 0b 18 	call	0x3016	; 0x3016 <debug_print_newline.lto_priv.100.lto_priv.109>
    3046:	ff cf       	rjmp	.-2      	; 0x3046 <irqtable_stub+0x24>

00003048 <debug_print_location.lto_priv.118.lto_priv.125>:
    3048:	af 92       	push	r10
    304a:	bf 92       	push	r11
    304c:	cf 92       	push	r12
    304e:	df 92       	push	r13
    3050:	ef 92       	push	r14
    3052:	ff 92       	push	r15
    3054:	0f 93       	push	r16
    3056:	1f 93       	push	r17
    3058:	cf 93       	push	r28
    305a:	df 93       	push	r29
    305c:	00 d0       	rcall	.+0      	; 0x305e <debug_print_location.lto_priv.118.lto_priv.125+0x16>
    305e:	00 d0       	rcall	.+0      	; 0x3060 <debug_print_location.lto_priv.118.lto_priv.125+0x18>
    3060:	00 d0       	rcall	.+0      	; 0x3062 <debug_print_location.lto_priv.118.lto_priv.125+0x1a>
    3062:	cd b7       	in	r28, 0x3d	; 61
    3064:	de b7       	in	r29, 0x3e	; 62
    3066:	49 83       	std	Y+1, r20	; 0x01
    3068:	5a 83       	std	Y+2, r21	; 0x02
    306a:	6b 83       	std	Y+3, r22	; 0x03
    306c:	7c 83       	std	Y+4, r23	; 0x04
    306e:	8d 83       	std	Y+5, r24	; 0x05
    3070:	9e 83       	std	Y+6, r25	; 0x06
    3072:	82 e1       	ldi	r24, 0x12	; 18
    3074:	94 e0       	ldi	r25, 0x04	; 4
    3076:	0e 94 a5 19 	call	0x334a	; 0x334a <debug_print>
    307a:	8b 81       	ldd	r24, Y+3	; 0x03
    307c:	9c 81       	ldd	r25, Y+4	; 0x04
    307e:	0e 94 a5 19 	call	0x334a	; 0x334a <debug_print>
    3082:	0e 94 0b 18 	call	0x3016	; 0x3016 <debug_print_newline.lto_priv.100.lto_priv.109>
    3086:	89 e1       	ldi	r24, 0x19	; 25
    3088:	94 e0       	ldi	r25, 0x04	; 4
    308a:	0e 94 a5 19 	call	0x334a	; 0x334a <debug_print>
    308e:	8d 81       	ldd	r24, Y+5	; 0x05
    3090:	9e 81       	ldd	r25, Y+6	; 0x06
    3092:	0e 94 a5 19 	call	0x334a	; 0x334a <debug_print>
    3096:	0e 94 0b 18 	call	0x3016	; 0x3016 <debug_print_newline.lto_priv.100.lto_priv.109>
    309a:	80 e2       	ldi	r24, 0x20	; 32
    309c:	94 e0       	ldi	r25, 0x04	; 4
    309e:	0e 94 a5 19 	call	0x334a	; 0x334a <debug_print>
    30a2:	0a 81       	ldd	r16, Y+2	; 0x02
    30a4:	e9 81       	ldd	r30, Y+1	; 0x01
    30a6:	ce 2e       	mov	r12, r30
    30a8:	10 2f       	mov	r17, r16
    30aa:	11 0f       	add	r17, r17
    30ac:	11 0b       	sbc	r17, r17
    30ae:	d1 2e       	mov	r13, r17
    30b0:	e1 2e       	mov	r14, r17
    30b2:	f1 2e       	mov	r15, r17
    30b4:	a1 2e       	mov	r10, r17
    30b6:	b1 2e       	mov	r11, r17
    30b8:	2e 2f       	mov	r18, r30
    30ba:	30 2f       	mov	r19, r16
    30bc:	41 2f       	mov	r20, r17
    30be:	51 2f       	mov	r21, r17
    30c0:	61 2f       	mov	r22, r17
    30c2:	71 2f       	mov	r23, r17
    30c4:	81 2f       	mov	r24, r17
    30c6:	91 2f       	mov	r25, r17
    30c8:	a0 e0       	ldi	r26, 0x00	; 0
    30ca:	0e 94 da 20 	call	0x41b4	; 0x41b4 <__cmpdi2_s8>
    30ce:	5c f4       	brge	.+22     	; 0x30e6 <debug_print_location.lto_priv.118.lto_priv.125+0x9e>
    30d0:	0e 94 be 20 	call	0x417c	; 0x417c <__negdi2>
    30d4:	c2 2e       	mov	r12, r18
    30d6:	03 2f       	mov	r16, r19
    30d8:	14 2f       	mov	r17, r20
    30da:	d5 2e       	mov	r13, r21
    30dc:	7b 01       	movw	r14, r22
    30de:	5c 01       	movw	r10, r24
    30e0:	8d e2       	ldi	r24, 0x2D	; 45
    30e2:	0e 94 fe 17 	call	0x2ffc	; 0x2ffc <diag_putc>
    30e6:	2c 2d       	mov	r18, r12
    30e8:	30 2f       	mov	r19, r16
    30ea:	41 2f       	mov	r20, r17
    30ec:	5d 2d       	mov	r21, r13
    30ee:	b7 01       	movw	r22, r14
    30f0:	c5 01       	movw	r24, r10
    30f2:	0e 94 bd 19 	call	0x337a	; 0x337a <debug_printdec_uint64>
    30f6:	26 96       	adiw	r28, 0x06	; 6
    30f8:	0f b6       	in	r0, 0x3f	; 63
    30fa:	f8 94       	cli
    30fc:	de bf       	out	0x3e, r29	; 62
    30fe:	0f be       	out	0x3f, r0	; 63
    3100:	cd bf       	out	0x3d, r28	; 61
    3102:	df 91       	pop	r29
    3104:	cf 91       	pop	r28
    3106:	1f 91       	pop	r17
    3108:	0f 91       	pop	r16
    310a:	ff 90       	pop	r15
    310c:	ef 90       	pop	r14
    310e:	df 90       	pop	r13
    3110:	cf 90       	pop	r12
    3112:	bf 90       	pop	r11
    3114:	af 90       	pop	r10
    3116:	0c 94 0b 18 	jmp	0x3016	; 0x3016 <debug_print_newline.lto_priv.100.lto_priv.109>

0000311a <_ZN5genos11coopschedee8finalizeEv>:
    311a:	cf 93       	push	r28
    311c:	df 93       	push	r29
    311e:	00 d0       	rcall	.+0      	; 0x3120 <_ZN5genos11coopschedee8finalizeEv+0x6>
    3120:	00 d0       	rcall	.+0      	; 0x3122 <_ZN5genos11coopschedee8finalizeEv+0x8>
    3122:	00 d0       	rcall	.+0      	; 0x3124 <_ZN5genos11coopschedee8finalizeEv+0xa>
    3124:	cd b7       	in	r28, 0x3d	; 61
    3126:	de b7       	in	r29, 0x3e	; 62
    3128:	fc 01       	movw	r30, r24
    312a:	83 89       	ldd	r24, Z+19	; 0x13
    312c:	84 ff       	sbrs	r24, 4
    312e:	04 c0       	rjmp	.+8      	; 0x3138 <_ZN5genos11coopschedee8finalizeEv+0x1e>
    3130:	86 e0       	ldi	r24, 0x06	; 6
    3132:	e5 e3       	ldi	r30, 0x35	; 53
    3134:	f1 e0       	ldi	r31, 0x01	; 1
    3136:	05 c0       	rjmp	.+10     	; 0x3142 <_ZN5genos11coopschedee8finalizeEv+0x28>
    3138:	83 ff       	sbrs	r24, 3
    313a:	13 c0       	rjmp	.+38     	; 0x3162 <_ZN5genos11coopschedee8finalizeEv+0x48>
    313c:	86 e0       	ldi	r24, 0x06	; 6
    313e:	eb e3       	ldi	r30, 0x3B	; 59
    3140:	f1 e0       	ldi	r31, 0x01	; 1
    3142:	de 01       	movw	r26, r28
    3144:	11 96       	adiw	r26, 0x01	; 1
    3146:	01 90       	ld	r0, Z+
    3148:	0d 92       	st	X+, r0
    314a:	8a 95       	dec	r24
    314c:	e1 f7       	brne	.-8      	; 0x3146 <_ZN5genos11coopschedee8finalizeEv+0x2c>
    314e:	49 81       	ldd	r20, Y+1	; 0x01
    3150:	5a 81       	ldd	r21, Y+2	; 0x02
    3152:	6b 81       	ldd	r22, Y+3	; 0x03
    3154:	7c 81       	ldd	r23, Y+4	; 0x04
    3156:	8d 81       	ldd	r24, Y+5	; 0x05
    3158:	9e 81       	ldd	r25, Y+6	; 0x06
    315a:	0e 94 24 18 	call	0x3048	; 0x3048 <debug_print_location.lto_priv.118.lto_priv.125>
    315e:	0e 94 98 0e 	call	0x1d30	; 0x1d30 <abort>
    3162:	26 96       	adiw	r28, 0x06	; 6
    3164:	0f b6       	in	r0, 0x3f	; 63
    3166:	f8 94       	cli
    3168:	de bf       	out	0x3e, r29	; 62
    316a:	0f be       	out	0x3f, r0	; 63
    316c:	cd bf       	out	0x3d, r28	; 61
    316e:	df 91       	pop	r29
    3170:	cf 91       	pop	r28
    3172:	08 95       	ret

00003174 <_ZN5genos13autom_schedee8finalizeEv>:
    3174:	cf 93       	push	r28
    3176:	df 93       	push	r29
    3178:	00 d0       	rcall	.+0      	; 0x317a <_ZN5genos13autom_schedee8finalizeEv+0x6>
    317a:	00 d0       	rcall	.+0      	; 0x317c <_ZN5genos13autom_schedee8finalizeEv+0x8>
    317c:	00 d0       	rcall	.+0      	; 0x317e <_ZN5genos13autom_schedee8finalizeEv+0xa>
    317e:	cd b7       	in	r28, 0x3d	; 61
    3180:	de b7       	in	r29, 0x3e	; 62
    3182:	fc 01       	movw	r30, r24
    3184:	83 89       	ldd	r24, Z+19	; 0x13
    3186:	83 ff       	sbrs	r24, 3
    3188:	13 c0       	rjmp	.+38     	; 0x31b0 <_ZN5genos13autom_schedee8finalizeEv+0x3c>
    318a:	86 e0       	ldi	r24, 0x06	; 6
    318c:	e1 e4       	ldi	r30, 0x41	; 65
    318e:	f1 e0       	ldi	r31, 0x01	; 1
    3190:	de 01       	movw	r26, r28
    3192:	11 96       	adiw	r26, 0x01	; 1
    3194:	01 90       	ld	r0, Z+
    3196:	0d 92       	st	X+, r0
    3198:	8a 95       	dec	r24
    319a:	e1 f7       	brne	.-8      	; 0x3194 <_ZN5genos13autom_schedee8finalizeEv+0x20>
    319c:	49 81       	ldd	r20, Y+1	; 0x01
    319e:	5a 81       	ldd	r21, Y+2	; 0x02
    31a0:	6b 81       	ldd	r22, Y+3	; 0x03
    31a2:	7c 81       	ldd	r23, Y+4	; 0x04
    31a4:	8d 81       	ldd	r24, Y+5	; 0x05
    31a6:	9e 81       	ldd	r25, Y+6	; 0x06
    31a8:	0e 94 24 18 	call	0x3048	; 0x3048 <debug_print_location.lto_priv.118.lto_priv.125>
    31ac:	0e 94 98 0e 	call	0x1d30	; 0x1d30 <abort>
    31b0:	26 96       	adiw	r28, 0x06	; 6
    31b2:	0f b6       	in	r0, 0x3f	; 63
    31b4:	f8 94       	cli
    31b6:	de bf       	out	0x3e, r29	; 62
    31b8:	0f be       	out	0x3f, r0	; 63
    31ba:	cd bf       	out	0x3d, r28	; 61
    31bc:	df 91       	pop	r29
    31be:	cf 91       	pop	r28
    31c0:	08 95       	ret

000031c2 <diag_write_common>:
    31c2:	0f 93       	push	r16
    31c4:	1f 93       	push	r17
    31c6:	cf 93       	push	r28
    31c8:	df 93       	push	r29
    31ca:	eb 01       	movw	r28, r22
    31cc:	8b 01       	movw	r16, r22
    31ce:	04 0f       	add	r16, r20
    31d0:	15 1f       	adc	r17, r21
    31d2:	c0 17       	cp	r28, r16
    31d4:	d1 07       	cpc	r29, r17
    31d6:	21 f0       	breq	.+8      	; 0x31e0 <diag_write_common+0x1e>
    31d8:	89 91       	ld	r24, Y+
    31da:	0e 94 fe 17 	call	0x2ffc	; 0x2ffc <diag_putc>
    31de:	f9 cf       	rjmp	.-14     	; 0x31d2 <diag_write_common+0x10>
    31e0:	80 e0       	ldi	r24, 0x00	; 0
    31e2:	90 e0       	ldi	r25, 0x00	; 0
    31e4:	df 91       	pop	r29
    31e6:	cf 91       	pop	r28
    31e8:	1f 91       	pop	r17
    31ea:	0f 91       	pop	r16
    31ec:	08 95       	ret

000031ee <_ZN26Adafruit_MS_PWMServoDriver6setPWMEhjj>:
    31ee:	cf 93       	push	r28
    31f0:	df 93       	push	r29
    31f2:	00 d0       	rcall	.+0      	; 0x31f4 <_ZN26Adafruit_MS_PWMServoDriver6setPWMEhjj+0x6>
    31f4:	00 d0       	rcall	.+0      	; 0x31f6 <_ZN26Adafruit_MS_PWMServoDriver6setPWMEhjj+0x8>
    31f6:	1f 92       	push	r1
    31f8:	cd b7       	in	r28, 0x3d	; 61
    31fa:	de b7       	in	r29, 0x3e	; 62
    31fc:	66 0f       	add	r22, r22
    31fe:	66 0f       	add	r22, r22
    3200:	6a 5f       	subi	r22, 0xFA	; 250
    3202:	69 83       	std	Y+1, r22	; 0x01
    3204:	4a 83       	std	Y+2, r20	; 0x02
    3206:	5b 83       	std	Y+3, r21	; 0x03
    3208:	2c 83       	std	Y+4, r18	; 0x04
    320a:	3d 83       	std	Y+5, r19	; 0x05
    320c:	25 e0       	ldi	r18, 0x05	; 5
    320e:	30 e0       	ldi	r19, 0x00	; 0
    3210:	ae 01       	movw	r20, r28
    3212:	4f 5f       	subi	r20, 0xFF	; 255
    3214:	5f 4f       	sbci	r21, 0xFF	; 255
    3216:	fc 01       	movw	r30, r24
    3218:	62 81       	ldd	r22, Z+2	; 0x02
    321a:	80 81       	ld	r24, Z
    321c:	91 81       	ldd	r25, Z+1	; 0x01
    321e:	0e 94 c5 0c 	call	0x198a	; 0x198a <_ZN10i2c_device5writeEhPKvj.constprop.70>
    3222:	0f 90       	pop	r0
    3224:	0f 90       	pop	r0
    3226:	0f 90       	pop	r0
    3228:	0f 90       	pop	r0
    322a:	0f 90       	pop	r0
    322c:	df 91       	pop	r29
    322e:	cf 91       	pop	r28
    3230:	08 95       	ret

00003232 <_ZN20Adafruit_MotorShield6setPinEhb.part.1.lto_priv.137>:
    3232:	20 e0       	ldi	r18, 0x00	; 0
    3234:	30 e0       	ldi	r19, 0x00	; 0
    3236:	40 e0       	ldi	r20, 0x00	; 0
    3238:	50 e0       	ldi	r21, 0x00	; 0
    323a:	cd 96       	adiw	r24, 0x3d	; 61
    323c:	0c 94 f7 18 	jmp	0x31ee	; 0x31ee <_ZN26Adafruit_MS_PWMServoDriver6setPWMEhjj>

00003240 <_ZN20Adafruit_MotorShield6setPWMEhj>:
    3240:	9a 01       	movw	r18, r20
    3242:	cd 96       	adiw	r24, 0x3d	; 61
    3244:	21 15       	cp	r18, r1
    3246:	40 e1       	ldi	r20, 0x10	; 16
    3248:	34 07       	cpc	r19, r20
    324a:	28 f0       	brcs	.+10     	; 0x3256 <_ZN20Adafruit_MotorShield6setPWMEhj+0x16>
    324c:	20 e0       	ldi	r18, 0x00	; 0
    324e:	30 e0       	ldi	r19, 0x00	; 0
    3250:	40 e0       	ldi	r20, 0x00	; 0
    3252:	50 e1       	ldi	r21, 0x10	; 16
    3254:	02 c0       	rjmp	.+4      	; 0x325a <_ZN20Adafruit_MotorShield6setPWMEhj+0x1a>
    3256:	40 e0       	ldi	r20, 0x00	; 0
    3258:	50 e0       	ldi	r21, 0x00	; 0
    325a:	0c 94 f7 18 	jmp	0x31ee	; 0x31ee <_ZN26Adafruit_MS_PWMServoDriver6setPWMEhjj>

0000325e <_GLOBAL__sub_D_crow_gateways>:
    325e:	89 e0       	ldi	r24, 0x09	; 9
    3260:	99 e0       	ldi	r25, 0x09	; 9
    3262:	0c 94 b8 16 	jmp	0x2d70	; 0x2d70 <dlist_del.lto_priv.93.lto_priv.107>

00003266 <end_of_programm>:
    3266:	8f b7       	in	r24, 0x3f	; 63
    3268:	f8 94       	cli
    326a:	ff cf       	rjmp	.-2      	; 0x326a <end_of_programm+0x4>

0000326c <system_unlock>:
    326c:	80 91 d8 0a 	lds	r24, 0x0AD8	; 0x800ad8 <_ZL5count.lto_priv.124>
    3270:	90 91 d9 0a 	lds	r25, 0x0AD9	; 0x800ad9 <_ZL5count.lto_priv.124+0x1>
    3274:	01 97       	sbiw	r24, 0x01	; 1
    3276:	90 93 d9 0a 	sts	0x0AD9, r25	; 0x800ad9 <_ZL5count.lto_priv.124+0x1>
    327a:	80 93 d8 0a 	sts	0x0AD8, r24	; 0x800ad8 <_ZL5count.lto_priv.124>
    327e:	80 91 d8 0a 	lds	r24, 0x0AD8	; 0x800ad8 <_ZL5count.lto_priv.124>
    3282:	90 91 d9 0a 	lds	r25, 0x0AD9	; 0x800ad9 <_ZL5count.lto_priv.124+0x1>
    3286:	89 2b       	or	r24, r25
    3288:	19 f4       	brne	.+6      	; 0x3290 <system_unlock+0x24>
    328a:	80 91 e1 0a 	lds	r24, 0x0AE1	; 0x800ae1 <_ZL4save>
    328e:	8f bf       	out	0x3f, r24	; 63
    3290:	08 95       	ret

00003292 <system_lock>:
    3292:	8f b7       	in	r24, 0x3f	; 63
    3294:	f8 94       	cli
    3296:	20 91 d8 0a 	lds	r18, 0x0AD8	; 0x800ad8 <_ZL5count.lto_priv.124>
    329a:	30 91 d9 0a 	lds	r19, 0x0AD9	; 0x800ad9 <_ZL5count.lto_priv.124+0x1>
    329e:	23 2b       	or	r18, r19
    32a0:	11 f4       	brne	.+4      	; 0x32a6 <system_lock+0x14>
    32a2:	80 93 e1 0a 	sts	0x0AE1, r24	; 0x800ae1 <_ZL4save>
    32a6:	80 91 d8 0a 	lds	r24, 0x0AD8	; 0x800ad8 <_ZL5count.lto_priv.124>
    32aa:	90 91 d9 0a 	lds	r25, 0x0AD9	; 0x800ad9 <_ZL5count.lto_priv.124+0x1>
    32ae:	01 96       	adiw	r24, 0x01	; 1
    32b0:	90 93 d9 0a 	sts	0x0AD9, r25	; 0x800ad9 <_ZL5count.lto_priv.124+0x1>
    32b4:	80 93 d8 0a 	sts	0x0AD8, r24	; 0x800ad8 <_ZL5count.lto_priv.124>
    32b8:	08 95       	ret

000032ba <_ZN4crow6travelEPNS_6packetE>:
    32ba:	cf 93       	push	r28
    32bc:	df 93       	push	r29
    32be:	ec 01       	movw	r28, r24
    32c0:	0e 94 49 19 	call	0x3292	; 0x3292 <system_lock>
    32c4:	e1 e2       	ldi	r30, 0x21	; 33
    32c6:	f1 e0       	ldi	r31, 0x01	; 1
    32c8:	a2 81       	ldd	r26, Z+2	; 0x02
    32ca:	b3 81       	ldd	r27, Z+3	; 0x03
    32cc:	bb 83       	std	Y+3, r27	; 0x03
    32ce:	aa 83       	std	Y+2, r26	; 0x02
    32d0:	f9 83       	std	Y+1, r31	; 0x01
    32d2:	e8 83       	st	Y, r30
    32d4:	d3 83       	std	Z+3, r29	; 0x03
    32d6:	c2 83       	std	Z+2, r28	; 0x02
    32d8:	cd 93       	st	X+, r28
    32da:	dc 93       	st	X, r29
    32dc:	df 91       	pop	r29
    32de:	cf 91       	pop	r28
    32e0:	0c 94 36 19 	jmp	0x326c	; 0x326c <system_unlock>

000032e4 <_ZL13crow_send_ackPN4crow6packetE.lto_priv.132>:
    32e4:	0f 93       	push	r16
    32e6:	1f 93       	push	r17
    32e8:	cf 93       	push	r28
    32ea:	df 93       	push	r29
    32ec:	8c 01       	movw	r16, r24
    32ee:	60 e0       	ldi	r22, 0x00	; 0
    32f0:	70 e0       	ldi	r23, 0x00	; 0
    32f2:	fc 01       	movw	r30, r24
    32f4:	82 89       	ldd	r24, Z+18	; 0x12
    32f6:	0e 94 d7 0b 	call	0x17ae	; 0x17ae <_ZN4crow13create_packetEPNS_7gatewayEhj.constprop.80>
    32fa:	ec 01       	movw	r28, r24
    32fc:	81 e0       	ldi	r24, 0x01	; 1
    32fe:	f8 01       	movw	r30, r16
    3300:	90 8d       	ldd	r25, Z+24	; 0x18
    3302:	92 30       	cpi	r25, 0x02	; 2
    3304:	09 f0       	breq	.+2      	; 0x3308 <_ZL13crow_send_ackPN4crow6packetE.lto_priv.132+0x24>
    3306:	80 e0       	ldi	r24, 0x00	; 0
    3308:	88 0f       	add	r24, r24
    330a:	88 0f       	add	r24, r24
    330c:	88 0f       	add	r24, r24
    330e:	9f 85       	ldd	r25, Y+15	; 0x0f
    3310:	97 70       	andi	r25, 0x07	; 7
    3312:	89 2b       	or	r24, r25
    3314:	81 60       	ori	r24, 0x01	; 1
    3316:	8f 87       	std	Y+15, r24	; 0x0f
    3318:	18 8e       	std	Y+24, r1	; 0x18
    331a:	f8 01       	movw	r30, r16
    331c:	86 89       	ldd	r24, Z+22	; 0x16
    331e:	97 89       	ldd	r25, Z+23	; 0x17
    3320:	9f 8b       	std	Y+23, r25	; 0x17
    3322:	8e 8b       	std	Y+22, r24	; 0x16
    3324:	42 89       	ldd	r20, Z+18	; 0x12
    3326:	50 e0       	ldi	r21, 0x00	; 0
    3328:	b8 01       	movw	r22, r16
    332a:	67 5e       	subi	r22, 0xE7	; 231
    332c:	7f 4f       	sbci	r23, 0xFF	; 255
    332e:	ce 01       	movw	r24, r28
    3330:	49 96       	adiw	r24, 0x19	; 25
    3332:	0e 94 1c 0e 	call	0x1c38	; 0x1c38 <memcpy>
    3336:	8e 85       	ldd	r24, Y+14	; 0x0e
    3338:	81 60       	ori	r24, 0x01	; 1
    333a:	8e 87       	std	Y+14, r24	; 0x0e
    333c:	ce 01       	movw	r24, r28
    333e:	df 91       	pop	r29
    3340:	cf 91       	pop	r28
    3342:	1f 91       	pop	r17
    3344:	0f 91       	pop	r16
    3346:	0c 94 5d 19 	jmp	0x32ba	; 0x32ba <_ZN4crow6travelEPNS_6packetE>

0000334a <debug_print>:
    334a:	00 97       	sbiw	r24, 0x00	; 0
    334c:	11 f0       	breq	.+4      	; 0x3352 <debug_print+0x8>
    334e:	fc 01       	movw	r30, r24
    3350:	0c c0       	rjmp	.+24     	; 0x336a <debug_print+0x20>
    3352:	8e e4       	ldi	r24, 0x4E	; 78
    3354:	0e 94 fe 17 	call	0x2ffc	; 0x2ffc <diag_putc>
    3358:	85 e5       	ldi	r24, 0x55	; 85
    335a:	0e 94 fe 17 	call	0x2ffc	; 0x2ffc <diag_putc>
    335e:	8c e4       	ldi	r24, 0x4C	; 76
    3360:	0e 94 fe 17 	call	0x2ffc	; 0x2ffc <diag_putc>
    3364:	8c e4       	ldi	r24, 0x4C	; 76
    3366:	0c 94 fe 17 	jmp	0x2ffc	; 0x2ffc <diag_putc>
    336a:	bf 01       	movw	r22, r30
    336c:	68 1b       	sub	r22, r24
    336e:	79 0b       	sbc	r23, r25
    3370:	21 91       	ld	r18, Z+
    3372:	21 11       	cpse	r18, r1
    3374:	fa cf       	rjmp	.-12     	; 0x336a <debug_print+0x20>
    3376:	0c 94 f0 17 	jmp	0x2fe0	; 0x2fe0 <diag_write>

0000337a <debug_printdec_uint64>:
    337a:	2f 92       	push	r2
    337c:	3f 92       	push	r3
    337e:	4f 92       	push	r4
    3380:	5f 92       	push	r5
    3382:	6f 92       	push	r6
    3384:	7f 92       	push	r7
    3386:	8f 92       	push	r8
    3388:	9f 92       	push	r9
    338a:	af 92       	push	r10
    338c:	bf 92       	push	r11
    338e:	cf 92       	push	r12
    3390:	df 92       	push	r13
    3392:	ef 92       	push	r14
    3394:	ff 92       	push	r15
    3396:	0f 93       	push	r16
    3398:	1f 93       	push	r17
    339a:	cf 93       	push	r28
    339c:	df 93       	push	r29
    339e:	cd b7       	in	r28, 0x3d	; 61
    33a0:	de b7       	in	r29, 0x3e	; 62
    33a2:	6a 97       	sbiw	r28, 0x1a	; 26
    33a4:	0f b6       	in	r0, 0x3f	; 63
    33a6:	f8 94       	cli
    33a8:	de bf       	out	0x3e, r29	; 62
    33aa:	0f be       	out	0x3f, r0	; 63
    33ac:	cd bf       	out	0x3d, r28	; 61
    33ae:	29 01       	movw	r4, r18
    33b0:	3a 01       	movw	r6, r20
    33b2:	4b 01       	movw	r8, r22
    33b4:	1c 01       	movw	r2, r24
    33b6:	a0 e0       	ldi	r26, 0x00	; 0
    33b8:	0e 94 da 20 	call	0x41b4	; 0x41b4 <__cmpdi2_s8>
    33bc:	19 f4       	brne	.+6      	; 0x33c4 <debug_printdec_uint64+0x4a>
    33be:	80 e3       	ldi	r24, 0x30	; 48
    33c0:	0e 94 fe 17 	call	0x2ffc	; 0x2ffc <diag_putc>
    33c4:	18 8e       	std	Y+24, r1	; 0x18
    33c6:	ce 01       	movw	r24, r28
    33c8:	48 96       	adiw	r24, 0x18	; 24
    33ca:	9a 8f       	std	Y+26, r25	; 0x1a
    33cc:	89 8f       	std	Y+25, r24	; 0x19
    33ce:	92 01       	movw	r18, r4
    33d0:	a3 01       	movw	r20, r6
    33d2:	b4 01       	movw	r22, r8
    33d4:	c1 01       	movw	r24, r2
    33d6:	a0 e0       	ldi	r26, 0x00	; 0
    33d8:	0e 94 da 20 	call	0x41b4	; 0x41b4 <__cmpdi2_s8>
    33dc:	01 f1       	breq	.+64     	; 0x341e <debug_printdec_uint64+0xa4>
    33de:	8a e0       	ldi	r24, 0x0A	; 10
    33e0:	a8 2e       	mov	r10, r24
    33e2:	b1 2c       	mov	r11, r1
    33e4:	c1 2c       	mov	r12, r1
    33e6:	d1 2c       	mov	r13, r1
    33e8:	e1 2c       	mov	r14, r1
    33ea:	f1 2c       	mov	r15, r1
    33ec:	00 e0       	ldi	r16, 0x00	; 0
    33ee:	10 e0       	ldi	r17, 0x00	; 0
    33f0:	92 01       	movw	r18, r4
    33f2:	a3 01       	movw	r20, r6
    33f4:	b4 01       	movw	r22, r8
    33f6:	c1 01       	movw	r24, r2
    33f8:	0e 94 5f 20 	call	0x40be	; 0x40be <__umoddi3>
    33fc:	20 5d       	subi	r18, 0xD0	; 208
    33fe:	e9 8d       	ldd	r30, Y+25	; 0x19
    3400:	fa 8d       	ldd	r31, Y+26	; 0x1a
    3402:	22 93       	st	-Z, r18
    3404:	fa 8f       	std	Y+26, r31	; 0x1a
    3406:	e9 8f       	std	Y+25, r30	; 0x19
    3408:	92 01       	movw	r18, r4
    340a:	a3 01       	movw	r20, r6
    340c:	b4 01       	movw	r22, r8
    340e:	c1 01       	movw	r24, r2
    3410:	0e 94 61 20 	call	0x40c2	; 0x40c2 <__udivdi3>
    3414:	29 01       	movw	r4, r18
    3416:	3a 01       	movw	r6, r20
    3418:	4b 01       	movw	r8, r22
    341a:	1c 01       	movw	r2, r24
    341c:	d8 cf       	rjmp	.-80     	; 0x33ce <debug_printdec_uint64+0x54>
    341e:	89 8d       	ldd	r24, Y+25	; 0x19
    3420:	9a 8d       	ldd	r25, Y+26	; 0x1a
    3422:	0e 94 a5 19 	call	0x334a	; 0x334a <debug_print>
    3426:	6a 96       	adiw	r28, 0x1a	; 26
    3428:	0f b6       	in	r0, 0x3f	; 63
    342a:	f8 94       	cli
    342c:	de bf       	out	0x3e, r29	; 62
    342e:	0f be       	out	0x3f, r0	; 63
    3430:	cd bf       	out	0x3d, r28	; 61
    3432:	df 91       	pop	r29
    3434:	cf 91       	pop	r28
    3436:	1f 91       	pop	r17
    3438:	0f 91       	pop	r16
    343a:	ff 90       	pop	r15
    343c:	ef 90       	pop	r14
    343e:	df 90       	pop	r13
    3440:	cf 90       	pop	r12
    3442:	bf 90       	pop	r11
    3444:	af 90       	pop	r10
    3446:	9f 90       	pop	r9
    3448:	8f 90       	pop	r8
    344a:	7f 90       	pop	r7
    344c:	6f 90       	pop	r6
    344e:	5f 90       	pop	r5
    3450:	4f 90       	pop	r4
    3452:	3f 90       	pop	r3
    3454:	2f 90       	pop	r2
    3456:	08 95       	ret

00003458 <_ZN13crow_uartgate9init_recvEv>:
    3458:	cf 93       	push	r28
    345a:	df 93       	push	r29
    345c:	ec 01       	movw	r28, r24
    345e:	83 ea       	ldi	r24, 0xA3	; 163
    3460:	91 e0       	ldi	r25, 0x01	; 1
    3462:	0e 94 a5 19 	call	0x334a	; 0x334a <debug_print>
    3466:	8c e4       	ldi	r24, 0x4C	; 76
    3468:	95 e0       	ldi	r25, 0x05	; 5
    346a:	0e 94 a5 19 	call	0x334a	; 0x334a <debug_print>
    346e:	0e 94 0b 18 	call	0x3016	; 0x3016 <debug_print_newline.lto_priv.100.lto_priv.109>
    3472:	0e 94 49 19 	call	0x3292	; 0x3292 <system_lock>
    3476:	80 e4       	ldi	r24, 0x40	; 64
    3478:	90 e0       	ldi	r25, 0x00	; 0
    347a:	0e 94 60 11 	call	0x22c0	; 0x22c0 <_ZN4crow15allocate_packetEj>
    347e:	98 8b       	std	Y+16, r25	; 0x10
    3480:	8f 87       	std	Y+15, r24	; 0x0f
    3482:	0f 96       	adiw	r24, 0x0f	; 15
    3484:	98 8f       	std	Y+24, r25	; 0x18
    3486:	8f 8b       	std	Y+23, r24	; 0x17
    3488:	80 e4       	ldi	r24, 0x40	; 64
    348a:	90 e0       	ldi	r25, 0x00	; 0
    348c:	9a 8f       	std	Y+26, r25	; 0x1a
    348e:	89 8f       	std	Y+25, r24	; 0x19
    3490:	1c 8e       	std	Y+28, r1	; 0x1c
    3492:	1b 8e       	std	Y+27, r1	; 0x1b
    3494:	1e 8e       	std	Y+30, r1	; 0x1e
    3496:	1d 8e       	std	Y+29, r1	; 0x1d
    3498:	8f ef       	ldi	r24, 0xFF	; 255
    349a:	8f 8f       	std	Y+31, r24	; 0x1f
    349c:	df 91       	pop	r29
    349e:	cf 91       	pop	r28
    34a0:	0c 94 36 19 	jmp	0x326c	; 0x326c <system_unlock>

000034a4 <_ZN13crow_uartgate14nblock_onestepEv>:
    34a4:	0f 93       	push	r16
    34a6:	1f 93       	push	r17
    34a8:	cf 93       	push	r28
    34aa:	df 93       	push	r29
    34ac:	ec 01       	movw	r28, r24
    34ae:	fc 01       	movw	r30, r24
    34b0:	ef 59       	subi	r30, 0x9F	; 159
    34b2:	ff 4f       	sbci	r31, 0xFF	; 255
    34b4:	60 81       	ld	r22, Z
    34b6:	71 81       	ldd	r23, Z+1	; 0x01
    34b8:	22 81       	ldd	r18, Z+2	; 0x02
    34ba:	33 81       	ldd	r19, Z+3	; 0x03
    34bc:	62 17       	cp	r22, r18
    34be:	73 07       	cpc	r23, r19
    34c0:	10 f0       	brcs	.+4      	; 0x34c6 <_ZN13crow_uartgate14nblock_onestepEv+0x22>
    34c2:	ab 01       	movw	r20, r22
    34c4:	04 c0       	rjmp	.+8      	; 0x34ce <_ZN13crow_uartgate14nblock_onestepEv+0x2a>
    34c6:	44 81       	ldd	r20, Z+4	; 0x04
    34c8:	55 81       	ldd	r21, Z+5	; 0x05
    34ca:	46 0f       	add	r20, r22
    34cc:	57 1f       	adc	r21, r23
    34ce:	42 1b       	sub	r20, r18
    34d0:	53 0b       	sbc	r21, r19
    34d2:	09 f4       	brne	.+2      	; 0x34d6 <_ZN13crow_uartgate14nblock_onestepEv+0x32>
    34d4:	bc c0       	rjmp	.+376    	; 0x364e <_ZN13crow_uartgate14nblock_onestepEv+0x1aa>
    34d6:	de 01       	movw	r26, r28
    34d8:	91 96       	adiw	r26, 0x21	; 33
    34da:	62 17       	cp	r22, r18
    34dc:	73 07       	cpc	r23, r19
    34de:	91 f0       	breq	.+36     	; 0x3504 <_ZN13crow_uartgate14nblock_onestepEv+0x60>
    34e0:	a2 0f       	add	r26, r18
    34e2:	b3 1f       	adc	r27, r19
    34e4:	9c 91       	ld	r25, X
    34e6:	2f 5f       	subi	r18, 0xFF	; 255
    34e8:	3f 4f       	sbci	r19, 0xFF	; 255
    34ea:	33 83       	std	Z+3, r19	; 0x03
    34ec:	22 83       	std	Z+2, r18	; 0x02
    34ee:	44 81       	ldd	r20, Z+4	; 0x04
    34f0:	55 81       	ldd	r21, Z+5	; 0x05
    34f2:	24 17       	cp	r18, r20
    34f4:	35 07       	cpc	r19, r21
    34f6:	11 f4       	brne	.+4      	; 0x34fc <_ZN13crow_uartgate14nblock_onestepEv+0x58>
    34f8:	13 82       	std	Z+3, r1	; 0x03
    34fa:	12 82       	std	Z+2, r1	; 0x02
    34fc:	29 2f       	mov	r18, r25
    34fe:	99 0f       	add	r25, r25
    3500:	33 0b       	sbc	r19, r19
    3502:	02 c0       	rjmp	.+4      	; 0x3508 <_ZN13crow_uartgate14nblock_onestepEv+0x64>
    3504:	2f ef       	ldi	r18, 0xFF	; 255
    3506:	3f ef       	ldi	r19, 0xFF	; 255
    3508:	12 2f       	mov	r17, r18
    350a:	88 a1       	ldd	r24, Y+32	; 0x20
    350c:	81 30       	cpi	r24, 0x01	; 1
    350e:	61 f0       	breq	.+24     	; 0x3528 <_ZN13crow_uartgate14nblock_onestepEv+0x84>
    3510:	18 f0       	brcs	.+6      	; 0x3518 <_ZN13crow_uartgate14nblock_onestepEv+0x74>
    3512:	82 30       	cpi	r24, 0x02	; 2
    3514:	d1 f0       	breq	.+52     	; 0x354a <_ZN13crow_uartgate14nblock_onestepEv+0xa6>
    3516:	21 c0       	rjmp	.+66     	; 0x355a <_ZN13crow_uartgate14nblock_onestepEv+0xb6>
    3518:	8f ef       	ldi	r24, 0xFF	; 255
    351a:	8f 8f       	std	Y+31, r24	; 0x1f
    351c:	1c 8e       	std	Y+28, r1	; 0x1c
    351e:	1b 8e       	std	Y+27, r1	; 0x1b
    3520:	1e 8e       	std	Y+30, r1	; 0x1e
    3522:	1d 8e       	std	Y+29, r1	; 0x1d
    3524:	81 e0       	ldi	r24, 0x01	; 1
    3526:	88 a3       	std	Y+32, r24	; 0x20
    3528:	1c 3a       	cpi	r17, 0xAC	; 172
    352a:	21 f0       	breq	.+8      	; 0x3534 <_ZN13crow_uartgate14nblock_onestepEv+0x90>
    352c:	1d 3a       	cpi	r17, 0xAD	; 173
    352e:	a9 f4       	brne	.+42     	; 0x355a <_ZN13crow_uartgate14nblock_onestepEv+0xb6>
    3530:	82 e0       	ldi	r24, 0x02	; 2
    3532:	51 c0       	rjmp	.+162    	; 0x35d6 <_ZN13crow_uartgate14nblock_onestepEv+0x132>
    3534:	8b 8d       	ldd	r24, Y+27	; 0x1b
    3536:	9c 8d       	ldd	r25, Y+28	; 0x1c
    3538:	89 2b       	or	r24, r25
    353a:	09 f4       	brne	.+2      	; 0x353e <_ZN13crow_uartgate14nblock_onestepEv+0x9a>
    353c:	88 c0       	rjmp	.+272    	; 0x364e <_ZN13crow_uartgate14nblock_onestepEv+0x1aa>
    353e:	8f 8d       	ldd	r24, Y+31	; 0x1f
    3540:	81 11       	cpse	r24, r1
    3542:	4b c0       	rjmp	.+150    	; 0x35da <_ZN13crow_uartgate14nblock_onestepEv+0x136>
    3544:	81 e0       	ldi	r24, 0x01	; 1
    3546:	90 e0       	ldi	r25, 0x00	; 0
    3548:	50 c0       	rjmp	.+160    	; 0x35ea <_ZN13crow_uartgate14nblock_onestepEv+0x146>
    354a:	2e 3a       	cpi	r18, 0xAE	; 174
    354c:	29 f0       	breq	.+10     	; 0x3558 <_ZN13crow_uartgate14nblock_onestepEv+0xb4>
    354e:	2f 3a       	cpi	r18, 0xAF	; 175
    3550:	09 f0       	breq	.+2      	; 0x3554 <_ZN13crow_uartgate14nblock_onestepEv+0xb0>
    3552:	46 c0       	rjmp	.+140    	; 0x35e0 <_ZN13crow_uartgate14nblock_onestepEv+0x13c>
    3554:	1d ea       	ldi	r17, 0xAD	; 173
    3556:	01 c0       	rjmp	.+2      	; 0x355a <_ZN13crow_uartgate14nblock_onestepEv+0xb6>
    3558:	1c ea       	ldi	r17, 0xAC	; 172
    355a:	4b 8d       	ldd	r20, Y+27	; 0x1b
    355c:	5c 8d       	ldd	r21, Y+28	; 0x1c
    355e:	89 8d       	ldd	r24, Y+25	; 0x19
    3560:	9a 8d       	ldd	r25, Y+26	; 0x1a
    3562:	48 17       	cp	r20, r24
    3564:	59 07       	cpc	r21, r25
    3566:	0c f0       	brlt	.+2      	; 0x356a <_ZN13crow_uartgate14nblock_onestepEv+0xc6>
    3568:	3e c0       	rjmp	.+124    	; 0x35e6 <_ZN13crow_uartgate14nblock_onestepEv+0x142>
    356a:	2d 8d       	ldd	r18, Y+29	; 0x1d
    356c:	3e 8d       	ldd	r19, Y+30	; 0x1e
    356e:	42 17       	cp	r20, r18
    3570:	53 07       	cpc	r21, r19
    3572:	69 f0       	breq	.+26     	; 0x358e <_ZN13crow_uartgate14nblock_onestepEv+0xea>
    3574:	8f 89       	ldd	r24, Y+23	; 0x17
    3576:	98 8d       	ldd	r25, Y+24	; 0x18
    3578:	42 1b       	sub	r20, r18
    357a:	53 0b       	sbc	r21, r19
    357c:	bc 01       	movw	r22, r24
    357e:	62 0f       	add	r22, r18
    3580:	73 1f       	adc	r23, r19
    3582:	2f 5f       	subi	r18, 0xFF	; 255
    3584:	3f 4f       	sbci	r19, 0xFF	; 255
    3586:	82 0f       	add	r24, r18
    3588:	93 1f       	adc	r25, r19
    358a:	0e 94 f2 0d 	call	0x1be4	; 0x1be4 <memmove>
    358e:	8f 89       	ldd	r24, Y+23	; 0x17
    3590:	98 8d       	ldd	r25, Y+24	; 0x18
    3592:	2d 8d       	ldd	r18, Y+29	; 0x1d
    3594:	3e 8d       	ldd	r19, Y+30	; 0x1e
    3596:	a9 01       	movw	r20, r18
    3598:	4f 5f       	subi	r20, 0xFF	; 255
    359a:	5f 4f       	sbci	r21, 0xFF	; 255
    359c:	5e 8f       	std	Y+30, r21	; 0x1e
    359e:	4d 8f       	std	Y+29, r20	; 0x1d
    35a0:	fc 01       	movw	r30, r24
    35a2:	e2 0f       	add	r30, r18
    35a4:	f3 1f       	adc	r31, r19
    35a6:	10 83       	st	Z, r17
    35a8:	8b 8d       	ldd	r24, Y+27	; 0x1b
    35aa:	9c 8d       	ldd	r25, Y+28	; 0x1c
    35ac:	01 96       	adiw	r24, 0x01	; 1
    35ae:	9c 8f       	std	Y+28, r25	; 0x1c
    35b0:	8b 8f       	std	Y+27, r24	; 0x1b
    35b2:	8f 8d       	ldd	r24, Y+31	; 0x1f
    35b4:	81 27       	eor	r24, r17
    35b6:	28 e0       	ldi	r18, 0x08	; 8
    35b8:	30 e0       	ldi	r19, 0x00	; 0
    35ba:	41 e3       	ldi	r20, 0x31	; 49
    35bc:	98 2f       	mov	r25, r24
    35be:	99 0f       	add	r25, r25
    35c0:	87 ff       	sbrs	r24, 7
    35c2:	03 c0       	rjmp	.+6      	; 0x35ca <_ZN13crow_uartgate14nblock_onestepEv+0x126>
    35c4:	89 2f       	mov	r24, r25
    35c6:	84 27       	eor	r24, r20
    35c8:	01 c0       	rjmp	.+2      	; 0x35cc <_ZN13crow_uartgate14nblock_onestepEv+0x128>
    35ca:	89 2f       	mov	r24, r25
    35cc:	21 50       	subi	r18, 0x01	; 1
    35ce:	31 09       	sbc	r19, r1
    35d0:	a9 f7       	brne	.-22     	; 0x35bc <_ZN13crow_uartgate14nblock_onestepEv+0x118>
    35d2:	8f 8f       	std	Y+31, r24	; 0x1f
    35d4:	81 e0       	ldi	r24, 0x01	; 1
    35d6:	88 a3       	std	Y+32, r24	; 0x20
    35d8:	3a c0       	rjmp	.+116    	; 0x364e <_ZN13crow_uartgate14nblock_onestepEv+0x1aa>
    35da:	8f ef       	ldi	r24, 0xFF	; 255
    35dc:	9f ef       	ldi	r25, 0xFF	; 255
    35de:	05 c0       	rjmp	.+10     	; 0x35ea <_ZN13crow_uartgate14nblock_onestepEv+0x146>
    35e0:	8d ef       	ldi	r24, 0xFD	; 253
    35e2:	9f ef       	ldi	r25, 0xFF	; 255
    35e4:	02 c0       	rjmp	.+4      	; 0x35ea <_ZN13crow_uartgate14nblock_onestepEv+0x146>
    35e6:	8e ef       	ldi	r24, 0xFE	; 254
    35e8:	9f ef       	ldi	r25, 0xFF	; 255
    35ea:	18 a2       	std	Y+32, r1	; 0x20
    35ec:	01 97       	sbiw	r24, 0x01	; 1
    35ee:	79 f5       	brne	.+94     	; 0x364e <_ZN13crow_uartgate14nblock_onestepEv+0x1aa>
    35f0:	83 ea       	ldi	r24, 0xA3	; 163
    35f2:	91 e0       	ldi	r25, 0x01	; 1
    35f4:	0e 94 a5 19 	call	0x334a	; 0x334a <debug_print>
    35f8:	8c e6       	ldi	r24, 0x6C	; 108
    35fa:	95 e0       	ldi	r25, 0x05	; 5
    35fc:	0e 94 a5 19 	call	0x334a	; 0x334a <debug_print>
    3600:	0e 94 0b 18 	call	0x3016	; 0x3016 <debug_print_newline.lto_priv.100.lto_priv.109>
    3604:	0f 85       	ldd	r16, Y+15	; 0x0f
    3606:	18 89       	ldd	r17, Y+16	; 0x10
    3608:	ce 01       	movw	r24, r28
    360a:	0e 94 2c 1a 	call	0x3458	; 0x3458 <_ZN13crow_uartgate9init_recvEv>
    360e:	8e 81       	ldd	r24, Y+6	; 0x06
    3610:	f8 01       	movw	r30, r16
    3612:	93 89       	ldd	r25, Z+19	; 0x13
    3614:	e9 0f       	add	r30, r25
    3616:	f1 1d       	adc	r31, r1
    3618:	81 8f       	std	Z+25, r24	; 0x19
    361a:	f8 01       	movw	r30, r16
    361c:	83 89       	ldd	r24, Z+19	; 0x13
    361e:	8f 5f       	subi	r24, 0xFF	; 255
    3620:	83 8b       	std	Z+19, r24	; 0x13
    3622:	13 83       	std	Z+3, r17	; 0x03
    3624:	02 83       	std	Z+2, r16	; 0x02
    3626:	11 83       	std	Z+1, r17	; 0x01
    3628:	00 83       	st	Z, r16
    362a:	c8 01       	movw	r24, r16
    362c:	04 96       	adiw	r24, 0x04	; 4
    362e:	97 83       	std	Z+7, r25	; 0x07
    3630:	86 83       	std	Z+6, r24	; 0x06
    3632:	95 83       	std	Z+5, r25	; 0x05
    3634:	84 83       	std	Z+4, r24	; 0x04
    3636:	d1 87       	std	Z+9, r29	; 0x09
    3638:	c0 87       	std	Z+8, r28	; 0x08
    363a:	14 86       	std	Z+12, r1	; 0x0c
    363c:	16 86       	std	Z+14, r1	; 0x0e
    363e:	15 86       	std	Z+13, r1	; 0x0d
    3640:	c8 01       	movw	r24, r16
    3642:	df 91       	pop	r29
    3644:	cf 91       	pop	r28
    3646:	1f 91       	pop	r17
    3648:	0f 91       	pop	r16
    364a:	0c 94 5d 19 	jmp	0x32ba	; 0x32ba <_ZN4crow6travelEPNS_6packetE>
    364e:	df 91       	pop	r29
    3650:	cf 91       	pop	r28
    3652:	1f 91       	pop	r17
    3654:	0f 91       	pop	r16
    3656:	08 95       	ret

00003658 <_ZN13crow_uartgate4sendEPN4crow6packetE>:
    3658:	cf 92       	push	r12
    365a:	df 92       	push	r13
    365c:	ef 92       	push	r14
    365e:	ff 92       	push	r15
    3660:	0f 93       	push	r16
    3662:	1f 93       	push	r17
    3664:	cf 93       	push	r28
    3666:	df 93       	push	r29
    3668:	00 d0       	rcall	.+0      	; 0x366a <_ZN13crow_uartgate4sendEPN4crow6packetE+0x12>
    366a:	cd b7       	in	r28, 0x3d	; 61
    366c:	de b7       	in	r29, 0x3e	; 62
    366e:	8c 01       	movw	r16, r24
    3670:	6b 01       	movw	r12, r22
    3672:	83 ea       	ldi	r24, 0xA3	; 163
    3674:	91 e0       	ldi	r25, 0x01	; 1
    3676:	0e 94 a5 19 	call	0x334a	; 0x334a <debug_print>
    367a:	8c e1       	ldi	r24, 0x1C	; 28
    367c:	95 e0       	ldi	r25, 0x05	; 5
    367e:	0e 94 a5 19 	call	0x334a	; 0x334a <debug_print>
    3682:	0e 94 0b 18 	call	0x3016	; 0x3016 <debug_print_newline.lto_priv.100.lto_priv.109>
    3686:	0e 94 49 19 	call	0x3292	; 0x3292 <system_lock>
    368a:	f8 01       	movw	r30, r16
    368c:	85 85       	ldd	r24, Z+13	; 0x0d
    368e:	96 85       	ldd	r25, Z+14	; 0x0e
    3690:	9a 83       	std	Y+2, r25	; 0x02
    3692:	89 83       	std	Y+1, r24	; 0x01
    3694:	ce 01       	movw	r24, r28
    3696:	01 96       	adiw	r24, 0x01	; 1
    3698:	0e 94 8e 0d 	call	0x1b1c	; 0x1b1c <debug_writehex_reversed.constprop.33>
    369c:	62 e0       	ldi	r22, 0x02	; 2
    369e:	70 e0       	ldi	r23, 0x00	; 0
    36a0:	8c ea       	ldi	r24, 0xAC	; 172
    36a2:	91 e0       	ldi	r25, 0x01	; 1
    36a4:	0e 94 f0 17 	call	0x2fe0	; 0x2fe0 <diag_write>
    36a8:	78 01       	movw	r14, r16
    36aa:	f9 e0       	ldi	r31, 0x09	; 9
    36ac:	ef 0e       	add	r14, r31
    36ae:	f1 1c       	adc	r15, r1
    36b0:	21 e0       	ldi	r18, 0x01	; 1
    36b2:	f8 01       	movw	r30, r16
    36b4:	81 85       	ldd	r24, Z+9	; 0x09
    36b6:	92 85       	ldd	r25, Z+10	; 0x0a
    36b8:	8e 15       	cp	r24, r14
    36ba:	9f 05       	cpc	r25, r15
    36bc:	09 f0       	breq	.+2      	; 0x36c0 <_ZN13crow_uartgate4sendEPN4crow6packetE+0x68>
    36be:	20 e0       	ldi	r18, 0x00	; 0
    36c0:	30 e0       	ldi	r19, 0x00	; 0
    36c2:	40 e0       	ldi	r20, 0x00	; 0
    36c4:	50 e0       	ldi	r21, 0x00	; 0
    36c6:	60 e0       	ldi	r22, 0x00	; 0
    36c8:	70 e0       	ldi	r23, 0x00	; 0
    36ca:	80 e0       	ldi	r24, 0x00	; 0
    36cc:	90 e0       	ldi	r25, 0x00	; 0
    36ce:	0e 94 bd 19 	call	0x337a	; 0x337a <debug_printdec_uint64>
    36d2:	0e 94 0b 18 	call	0x3016	; 0x3016 <debug_print_newline.lto_priv.100.lto_priv.109>
    36d6:	f8 01       	movw	r30, r16
    36d8:	85 85       	ldd	r24, Z+13	; 0x0d
    36da:	96 85       	ldd	r25, Z+14	; 0x0e
    36dc:	89 2b       	or	r24, r25
    36de:	29 f4       	brne	.+10     	; 0x36ea <_ZN13crow_uartgate4sendEPN4crow6packetE+0x92>
    36e0:	81 85       	ldd	r24, Z+9	; 0x09
    36e2:	92 85       	ldd	r25, Z+10	; 0x0a
    36e4:	8e 15       	cp	r24, r14
    36e6:	9f 05       	cpc	r25, r15
    36e8:	89 f0       	breq	.+34     	; 0x370c <_ZN13crow_uartgate4sendEPN4crow6packetE+0xb4>
    36ea:	b7 01       	movw	r22, r14
    36ec:	c6 01       	movw	r24, r12
    36ee:	0e 94 9f 17 	call	0x2f3e	; 0x2f3e <dlist_move_tail.lto_priv.121.lto_priv.126>
    36f2:	0e 94 36 19 	call	0x326c	; 0x326c <system_unlock>
    36f6:	0f 90       	pop	r0
    36f8:	0f 90       	pop	r0
    36fa:	df 91       	pop	r29
    36fc:	cf 91       	pop	r28
    36fe:	1f 91       	pop	r17
    3700:	0f 91       	pop	r16
    3702:	ff 90       	pop	r15
    3704:	ef 90       	pop	r14
    3706:	df 90       	pop	r13
    3708:	cf 90       	pop	r12
    370a:	08 95       	ret
    370c:	b6 01       	movw	r22, r12
    370e:	c8 01       	movw	r24, r16
    3710:	0e 94 9d 0e 	call	0x1d3a	; 0x1d3a <_ZN13crow_uartgate7do_sendEPN4crow6packetE.constprop.13>
    3714:	ee cf       	rjmp	.-36     	; 0x36f2 <_ZN13crow_uartgate4sendEPN4crow6packetE+0x9a>

00003716 <_ZL12crow_utilizePN4crow6packetE.lto_priv.133>:
    3716:	cf 93       	push	r28
    3718:	df 93       	push	r29
    371a:	ec 01       	movw	r28, r24
    371c:	0e 94 49 19 	call	0x3292	; 0x3292 <system_lock>
    3720:	ce 01       	movw	r24, r28
    3722:	0e 94 b8 16 	call	0x2d70	; 0x2d70 <dlist_del.lto_priv.93.lto_priv.107>
    3726:	ce 01       	movw	r24, r28
    3728:	04 96       	adiw	r24, 0x04	; 4
    372a:	0e 94 b8 16 	call	0x2d70	; 0x2d70 <dlist_del.lto_priv.93.lto_priv.107>
    372e:	83 ea       	ldi	r24, 0xA3	; 163
    3730:	91 e0       	ldi	r25, 0x01	; 1
    3732:	0e 94 a5 19 	call	0x334a	; 0x334a <debug_print>
    3736:	80 ef       	ldi	r24, 0xF0	; 240
    3738:	94 e0       	ldi	r25, 0x04	; 4
    373a:	0e 94 a5 19 	call	0x334a	; 0x334a <debug_print>
    373e:	0e 94 0b 18 	call	0x3016	; 0x3016 <debug_print_newline.lto_priv.100.lto_priv.109>
    3742:	0e 94 49 19 	call	0x3292	; 0x3292 <system_lock>
    3746:	e2 ee       	ldi	r30, 0xE2	; 226
    3748:	fa e0       	ldi	r31, 0x0A	; 10
    374a:	80 81       	ld	r24, Z
    374c:	91 81       	ldd	r25, Z+1	; 0x01
    374e:	99 83       	std	Y+1, r25	; 0x01
    3750:	88 83       	st	Y, r24
    3752:	d1 83       	std	Z+1, r29	; 0x01
    3754:	c0 83       	st	Z, r28
    3756:	0e 94 36 19 	call	0x326c	; 0x326c <system_unlock>
    375a:	df 91       	pop	r29
    375c:	cf 91       	pop	r28
    375e:	0c 94 36 19 	jmp	0x326c	; 0x326c <system_unlock>

00003762 <_Z16uartgate_handlerPvi>:
    3762:	ef 92       	push	r14
    3764:	ff 92       	push	r15
    3766:	0f 93       	push	r16
    3768:	1f 93       	push	r17
    376a:	cf 93       	push	r28
    376c:	df 93       	push	r29
    376e:	00 d0       	rcall	.+0      	; 0x3770 <_Z16uartgate_handlerPvi+0xe>
    3770:	00 d0       	rcall	.+0      	; 0x3772 <_Z16uartgate_handlerPvi+0x10>
    3772:	00 d0       	rcall	.+0      	; 0x3774 <_Z16uartgate_handlerPvi+0x12>
    3774:	cd b7       	in	r28, 0x3d	; 61
    3776:	de b7       	in	r29, 0x3e	; 62
    3778:	8c 01       	movw	r16, r24
    377a:	7b 01       	movw	r14, r22
    377c:	83 ea       	ldi	r24, 0xA3	; 163
    377e:	91 e0       	ldi	r25, 0x01	; 1
    3780:	0e 94 a5 19 	call	0x334a	; 0x334a <debug_print>
    3784:	8f ee       	ldi	r24, 0xEF	; 239
    3786:	95 e0       	ldi	r25, 0x05	; 5
    3788:	0e 94 a5 19 	call	0x334a	; 0x334a <debug_print>
    378c:	0e 94 0b 18 	call	0x3016	; 0x3016 <debug_print_newline.lto_priv.100.lto_priv.109>
    3790:	81 e0       	ldi	r24, 0x01	; 1
    3792:	e8 16       	cp	r14, r24
    3794:	f1 04       	cpc	r15, r1
    3796:	09 f4       	brne	.+2      	; 0x379a <_Z16uartgate_handlerPvi+0x38>
    3798:	41 c0       	rjmp	.+130    	; 0x381c <_Z16uartgate_handlerPvi+0xba>
    379a:	a2 e0       	ldi	r26, 0x02	; 2
    379c:	ea 16       	cp	r14, r26
    379e:	f1 04       	cpc	r15, r1
    37a0:	09 f4       	brne	.+2      	; 0x37a4 <_Z16uartgate_handlerPvi+0x42>
    37a2:	63 c1       	rjmp	.+710    	; 0x3a6a <_Z16uartgate_handlerPvi+0x308>
    37a4:	ef 28       	or	r14, r15
    37a6:	09 f0       	breq	.+2      	; 0x37aa <_Z16uartgate_handlerPvi+0x48>
    37a8:	73 c1       	rjmp	.+742    	; 0x3a90 <_Z16uartgate_handlerPvi+0x32e>
    37aa:	83 ea       	ldi	r24, 0xA3	; 163
    37ac:	91 e0       	ldi	r25, 0x01	; 1
    37ae:	0e 94 a5 19 	call	0x334a	; 0x334a <debug_print>
    37b2:	82 e9       	ldi	r24, 0x92	; 146
    37b4:	95 e0       	ldi	r25, 0x05	; 5
    37b6:	0e 94 a5 19 	call	0x334a	; 0x334a <debug_print>
    37ba:	0e 94 0b 18 	call	0x3016	; 0x3016 <debug_print_newline.lto_priv.100.lto_priv.109>
    37be:	f8 01       	movw	r30, r16
    37c0:	87 81       	ldd	r24, Z+7	; 0x07
    37c2:	90 85       	ldd	r25, Z+8	; 0x08
    37c4:	dc 01       	movw	r26, r24
    37c6:	ed 91       	ld	r30, X+
    37c8:	fc 91       	ld	r31, X
    37ca:	06 80       	ldd	r0, Z+6	; 0x06
    37cc:	f7 81       	ldd	r31, Z+7	; 0x07
    37ce:	e0 2d       	mov	r30, r0
    37d0:	09 95       	icall
    37d2:	f8 01       	movw	r30, r16
    37d4:	ef 59       	subi	r30, 0x9F	; 159
    37d6:	ff 4f       	sbci	r31, 0xFF	; 255
    37d8:	40 81       	ld	r20, Z
    37da:	51 81       	ldd	r21, Z+1	; 0x01
    37dc:	22 81       	ldd	r18, Z+2	; 0x02
    37de:	33 81       	ldd	r19, Z+3	; 0x03
    37e0:	21 15       	cp	r18, r1
    37e2:	31 05       	cpc	r19, r1
    37e4:	11 f4       	brne	.+4      	; 0x37ea <_Z16uartgate_handlerPvi+0x88>
    37e6:	24 81       	ldd	r18, Z+4	; 0x04
    37e8:	35 81       	ldd	r19, Z+5	; 0x05
    37ea:	21 50       	subi	r18, 0x01	; 1
    37ec:	31 09       	sbc	r19, r1
    37ee:	42 17       	cp	r20, r18
    37f0:	53 07       	cpc	r21, r19
    37f2:	09 f4       	brne	.+2      	; 0x37f6 <_Z16uartgate_handlerPvi+0x94>
    37f4:	4d c1       	rjmp	.+666    	; 0x3a90 <_Z16uartgate_handlerPvi+0x32e>
    37f6:	d8 01       	movw	r26, r16
    37f8:	a4 0f       	add	r26, r20
    37fa:	b5 1f       	adc	r27, r21
    37fc:	91 96       	adiw	r26, 0x21	; 33
    37fe:	8c 93       	st	X, r24
    3800:	80 81       	ld	r24, Z
    3802:	91 81       	ldd	r25, Z+1	; 0x01
    3804:	01 96       	adiw	r24, 0x01	; 1
    3806:	91 83       	std	Z+1, r25	; 0x01
    3808:	80 83       	st	Z, r24
    380a:	24 81       	ldd	r18, Z+4	; 0x04
    380c:	35 81       	ldd	r19, Z+5	; 0x05
    380e:	82 17       	cp	r24, r18
    3810:	93 07       	cpc	r25, r19
    3812:	09 f0       	breq	.+2      	; 0x3816 <_Z16uartgate_handlerPvi+0xb4>
    3814:	3d c1       	rjmp	.+634    	; 0x3a90 <_Z16uartgate_handlerPvi+0x32e>
    3816:	11 82       	std	Z+1, r1	; 0x01
    3818:	10 82       	st	Z, r1
    381a:	3a c1       	rjmp	.+628    	; 0x3a90 <_Z16uartgate_handlerPvi+0x32e>
    381c:	83 ea       	ldi	r24, 0xA3	; 163
    381e:	91 e0       	ldi	r25, 0x01	; 1
    3820:	0e 94 a5 19 	call	0x334a	; 0x334a <debug_print>
    3824:	8f ec       	ldi	r24, 0xCF	; 207
    3826:	95 e0       	ldi	r25, 0x05	; 5
    3828:	0e 94 a5 19 	call	0x334a	; 0x334a <debug_print>
    382c:	0e 94 0b 18 	call	0x3016	; 0x3016 <debug_print_newline.lto_priv.100.lto_priv.109>
    3830:	f8 01       	movw	r30, r16
    3832:	81 89       	ldd	r24, Z+17	; 0x11
    3834:	82 30       	cpi	r24, 0x02	; 2
    3836:	09 f4       	brne	.+2      	; 0x383a <_Z16uartgate_handlerPvi+0xd8>
    3838:	9b c0       	rjmp	.+310    	; 0x3970 <_Z16uartgate_handlerPvi+0x20e>
    383a:	30 f4       	brcc	.+12     	; 0x3848 <_Z16uartgate_handlerPvi+0xe6>
    383c:	88 23       	and	r24, r24
    383e:	59 f0       	breq	.+22     	; 0x3856 <_Z16uartgate_handlerPvi+0xf4>
    3840:	81 30       	cpi	r24, 0x01	; 1
    3842:	09 f4       	brne	.+2      	; 0x3846 <_Z16uartgate_handlerPvi+0xe4>
    3844:	71 c0       	rjmp	.+226    	; 0x3928 <_Z16uartgate_handlerPvi+0x1c6>
    3846:	24 c1       	rjmp	.+584    	; 0x3a90 <_Z16uartgate_handlerPvi+0x32e>
    3848:	83 30       	cpi	r24, 0x03	; 3
    384a:	09 f4       	brne	.+2      	; 0x384e <_Z16uartgate_handlerPvi+0xec>
    384c:	9e c0       	rjmp	.+316    	; 0x398a <_Z16uartgate_handlerPvi+0x228>
    384e:	84 30       	cpi	r24, 0x04	; 4
    3850:	09 f4       	brne	.+2      	; 0x3854 <_Z16uartgate_handlerPvi+0xf2>
    3852:	ea c0       	rjmp	.+468    	; 0x3a28 <_Z16uartgate_handlerPvi+0x2c6>
    3854:	1d c1       	rjmp	.+570    	; 0x3a90 <_Z16uartgate_handlerPvi+0x32e>
    3856:	d8 01       	movw	r26, r16
    3858:	03 88       	ldd	r0, Z+19	; 0x13
    385a:	f4 89       	ldd	r31, Z+20	; 0x14
    385c:	e0 2d       	mov	r30, r0
    385e:	55 96       	adiw	r26, 0x15	; 21
    3860:	8d 91       	ld	r24, X+
    3862:	9c 91       	ld	r25, X
    3864:	56 97       	sbiw	r26, 0x16	; 22
    3866:	e8 17       	cp	r30, r24
    3868:	f9 07       	cpc	r31, r25
    386a:	e1 f4       	brne	.+56     	; 0x38a4 <_Z16uartgate_handlerPvi+0x142>
    386c:	52 96       	adiw	r26, 0x12	; 18
    386e:	6c 91       	ld	r22, X
    3870:	52 97       	sbiw	r26, 0x12	; 18
    3872:	24 e5       	ldi	r18, 0x54	; 84
    3874:	26 0f       	add	r18, r22
    3876:	17 96       	adiw	r26, 0x07	; 7
    3878:	8d 91       	ld	r24, X+
    387a:	9c 91       	ld	r25, X
    387c:	18 97       	sbiw	r26, 0x08	; 8
    387e:	22 30       	cpi	r18, 0x02	; 2
    3880:	58 f4       	brcc	.+22     	; 0x3898 <_Z16uartgate_handlerPvi+0x136>
    3882:	dc 01       	movw	r26, r24
    3884:	ed 91       	ld	r30, X+
    3886:	fc 91       	ld	r31, X
    3888:	00 84       	ldd	r0, Z+8	; 0x08
    388a:	f1 85       	ldd	r31, Z+9	; 0x09
    388c:	e0 2d       	mov	r30, r0
    388e:	6d ea       	ldi	r22, 0xAD	; 173
    3890:	7f ef       	ldi	r23, 0xFF	; 255
    3892:	09 95       	icall
    3894:	84 e0       	ldi	r24, 0x04	; 4
    3896:	e6 c0       	rjmp	.+460    	; 0x3a64 <_Z16uartgate_handlerPvi+0x302>
    3898:	22 e0       	ldi	r18, 0x02	; 2
    389a:	d8 01       	movw	r26, r16
    389c:	51 96       	adiw	r26, 0x11	; 17
    389e:	2c 93       	st	X, r18
    38a0:	70 e0       	ldi	r23, 0x00	; 0
    38a2:	2f c0       	rjmp	.+94     	; 0x3902 <_Z16uartgate_handlerPvi+0x1a0>
    38a4:	cf 01       	movw	r24, r30
    38a6:	01 96       	adiw	r24, 0x01	; 1
    38a8:	d8 01       	movw	r26, r16
    38aa:	54 96       	adiw	r26, 0x14	; 20
    38ac:	9c 93       	st	X, r25
    38ae:	8e 93       	st	-X, r24
    38b0:	53 97       	sbiw	r26, 0x13	; 19
    38b2:	60 81       	ld	r22, Z
    38b4:	52 96       	adiw	r26, 0x12	; 18
    38b6:	8c 91       	ld	r24, X
    38b8:	86 27       	eor	r24, r22
    38ba:	28 e0       	ldi	r18, 0x08	; 8
    38bc:	30 e0       	ldi	r19, 0x00	; 0
    38be:	41 e3       	ldi	r20, 0x31	; 49
    38c0:	98 2f       	mov	r25, r24
    38c2:	99 0f       	add	r25, r25
    38c4:	87 ff       	sbrs	r24, 7
    38c6:	03 c0       	rjmp	.+6      	; 0x38ce <_Z16uartgate_handlerPvi+0x16c>
    38c8:	89 2f       	mov	r24, r25
    38ca:	84 27       	eor	r24, r20
    38cc:	01 c0       	rjmp	.+2      	; 0x38d0 <_Z16uartgate_handlerPvi+0x16e>
    38ce:	89 2f       	mov	r24, r25
    38d0:	21 50       	subi	r18, 0x01	; 1
    38d2:	31 09       	sbc	r19, r1
    38d4:	a9 f7       	brne	.-22     	; 0x38c0 <_Z16uartgate_handlerPvi+0x15e>
    38d6:	f8 01       	movw	r30, r16
    38d8:	82 8b       	std	Z+18, r24	; 0x12
    38da:	87 81       	ldd	r24, Z+7	; 0x07
    38dc:	90 85       	ldd	r25, Z+8	; 0x08
    38de:	24 e5       	ldi	r18, 0x54	; 84
    38e0:	26 0f       	add	r18, r22
    38e2:	22 30       	cpi	r18, 0x02	; 2
    38e4:	58 f4       	brcc	.+22     	; 0x38fc <_Z16uartgate_handlerPvi+0x19a>
    38e6:	dc 01       	movw	r26, r24
    38e8:	ed 91       	ld	r30, X+
    38ea:	fc 91       	ld	r31, X
    38ec:	00 84       	ldd	r0, Z+8	; 0x08
    38ee:	f1 85       	ldd	r31, Z+9	; 0x09
    38f0:	e0 2d       	mov	r30, r0
    38f2:	6d ea       	ldi	r22, 0xAD	; 173
    38f4:	7f ef       	ldi	r23, 0xFF	; 255
    38f6:	09 95       	icall
    38f8:	81 e0       	ldi	r24, 0x01	; 1
    38fa:	b4 c0       	rjmp	.+360    	; 0x3a64 <_Z16uartgate_handlerPvi+0x302>
    38fc:	06 2e       	mov	r0, r22
    38fe:	00 0c       	add	r0, r0
    3900:	77 0b       	sbc	r23, r23
    3902:	dc 01       	movw	r26, r24
    3904:	ed 91       	ld	r30, X+
    3906:	fc 91       	ld	r31, X
    3908:	00 84       	ldd	r0, Z+8	; 0x08
    390a:	f1 85       	ldd	r31, Z+9	; 0x09
    390c:	e0 2d       	mov	r30, r0
    390e:	26 96       	adiw	r28, 0x06	; 6
    3910:	0f b6       	in	r0, 0x3f	; 63
    3912:	f8 94       	cli
    3914:	de bf       	out	0x3e, r29	; 62
    3916:	0f be       	out	0x3f, r0	; 63
    3918:	cd bf       	out	0x3d, r28	; 61
    391a:	df 91       	pop	r29
    391c:	cf 91       	pop	r28
    391e:	1f 91       	pop	r17
    3920:	0f 91       	pop	r16
    3922:	ff 90       	pop	r15
    3924:	ef 90       	pop	r14
    3926:	09 94       	ijmp
    3928:	03 88       	ldd	r0, Z+19	; 0x13
    392a:	f4 89       	ldd	r31, Z+20	; 0x14
    392c:	e0 2d       	mov	r30, r0
    392e:	31 97       	sbiw	r30, 0x01	; 1
    3930:	80 81       	ld	r24, Z
    3932:	8c 3a       	cpi	r24, 0xAC	; 172
    3934:	71 f0       	breq	.+28     	; 0x3952 <_Z16uartgate_handlerPvi+0x1f0>
    3936:	8d 3a       	cpi	r24, 0xAD	; 173
    3938:	c1 f4       	brne	.+48     	; 0x396a <_Z16uartgate_handlerPvi+0x208>
    393a:	f8 01       	movw	r30, r16
    393c:	87 81       	ldd	r24, Z+7	; 0x07
    393e:	90 85       	ldd	r25, Z+8	; 0x08
    3940:	dc 01       	movw	r26, r24
    3942:	ed 91       	ld	r30, X+
    3944:	fc 91       	ld	r31, X
    3946:	00 84       	ldd	r0, Z+8	; 0x08
    3948:	f1 85       	ldd	r31, Z+9	; 0x09
    394a:	e0 2d       	mov	r30, r0
    394c:	6f ea       	ldi	r22, 0xAF	; 175
    394e:	7f ef       	ldi	r23, 0xFF	; 255
    3950:	0b c0       	rjmp	.+22     	; 0x3968 <_Z16uartgate_handlerPvi+0x206>
    3952:	f8 01       	movw	r30, r16
    3954:	87 81       	ldd	r24, Z+7	; 0x07
    3956:	90 85       	ldd	r25, Z+8	; 0x08
    3958:	dc 01       	movw	r26, r24
    395a:	ed 91       	ld	r30, X+
    395c:	fc 91       	ld	r31, X
    395e:	00 84       	ldd	r0, Z+8	; 0x08
    3960:	f1 85       	ldd	r31, Z+9	; 0x09
    3962:	e0 2d       	mov	r30, r0
    3964:	6e ea       	ldi	r22, 0xAE	; 174
    3966:	7f ef       	ldi	r23, 0xFF	; 255
    3968:	09 95       	icall
    396a:	f8 01       	movw	r30, r16
    396c:	11 8a       	std	Z+17, r1	; 0x11
    396e:	90 c0       	rjmp	.+288    	; 0x3a90 <_Z16uartgate_handlerPvi+0x32e>
    3970:	87 81       	ldd	r24, Z+7	; 0x07
    3972:	90 85       	ldd	r25, Z+8	; 0x08
    3974:	dc 01       	movw	r26, r24
    3976:	ed 91       	ld	r30, X+
    3978:	fc 91       	ld	r31, X
    397a:	00 84       	ldd	r0, Z+8	; 0x08
    397c:	f1 85       	ldd	r31, Z+9	; 0x09
    397e:	e0 2d       	mov	r30, r0
    3980:	6c ea       	ldi	r22, 0xAC	; 172
    3982:	7f ef       	ldi	r23, 0xFF	; 255
    3984:	09 95       	icall
    3986:	83 e0       	ldi	r24, 0x03	; 3
    3988:	6d c0       	rjmp	.+218    	; 0x3a64 <_Z16uartgate_handlerPvi+0x302>
    398a:	87 81       	ldd	r24, Z+7	; 0x07
    398c:	90 85       	ldd	r25, Z+8	; 0x08
    398e:	dc 01       	movw	r26, r24
    3990:	ed 91       	ld	r30, X+
    3992:	fc 91       	ld	r31, X
    3994:	04 80       	ldd	r0, Z+4	; 0x04
    3996:	f5 81       	ldd	r31, Z+5	; 0x05
    3998:	e0 2d       	mov	r30, r0
    399a:	63 e0       	ldi	r22, 0x03	; 3
    399c:	09 95       	icall
    399e:	83 ea       	ldi	r24, 0xA3	; 163
    39a0:	91 e0       	ldi	r25, 0x01	; 1
    39a2:	0e 94 a5 19 	call	0x334a	; 0x334a <debug_print>
    39a6:	82 eb       	ldi	r24, 0xB2	; 178
    39a8:	95 e0       	ldi	r25, 0x05	; 5
    39aa:	0e 94 a5 19 	call	0x334a	; 0x334a <debug_print>
    39ae:	0e 94 0b 18 	call	0x3016	; 0x3016 <debug_print_newline.lto_priv.100.lto_priv.109>
    39b2:	f8 01       	movw	r30, r16
    39b4:	e5 84       	ldd	r14, Z+13	; 0x0d
    39b6:	f6 84       	ldd	r15, Z+14	; 0x0e
    39b8:	61 85       	ldd	r22, Z+9	; 0x09
    39ba:	72 85       	ldd	r23, Z+10	; 0x0a
    39bc:	c8 01       	movw	r24, r16
    39be:	09 96       	adiw	r24, 0x09	; 9
    39c0:	68 17       	cp	r22, r24
    39c2:	79 07       	cpc	r23, r25
    39c4:	19 f4       	brne	.+6      	; 0x39cc <_Z16uartgate_handlerPvi+0x26a>
    39c6:	16 86       	std	Z+14, r1	; 0x0e
    39c8:	15 86       	std	Z+13, r1	; 0x0d
    39ca:	03 c0       	rjmp	.+6      	; 0x39d2 <_Z16uartgate_handlerPvi+0x270>
    39cc:	c8 01       	movw	r24, r16
    39ce:	0e 94 9d 0e 	call	0x1d3a	; 0x1d3a <_ZN13crow_uartgate7do_sendEPN4crow6packetE.constprop.13>
    39d2:	0e 94 49 19 	call	0x3292	; 0x3292 <system_lock>
    39d6:	d7 01       	movw	r26, r14
    39d8:	18 96       	adiw	r26, 0x08	; 8
    39da:	8d 91       	ld	r24, X+
    39dc:	9c 91       	ld	r25, X
    39de:	19 97       	sbiw	r26, 0x09	; 9
    39e0:	89 2b       	or	r24, r25
    39e2:	21 f4       	brne	.+8      	; 0x39ec <_Z16uartgate_handlerPvi+0x28a>
    39e4:	f7 01       	movw	r30, r14
    39e6:	80 8d       	ldd	r24, Z+24	; 0x18
    39e8:	81 11       	cpse	r24, r1
    39ea:	04 c0       	rjmp	.+8      	; 0x39f4 <_Z16uartgate_handlerPvi+0x292>
    39ec:	c7 01       	movw	r24, r14
    39ee:	0e 94 8b 1b 	call	0x3716	; 0x3716 <_ZL12crow_utilizePN4crow6packetE.lto_priv.133>
    39f2:	0c c0       	rjmp	.+24     	; 0x3a0c <_Z16uartgate_handlerPvi+0x2aa>
    39f4:	0e 94 5a 16 	call	0x2cb4	; 0x2cb4 <millis>
    39f8:	d7 01       	movw	r26, r14
    39fa:	1b 96       	adiw	r26, 0x0b	; 11
    39fc:	7c 93       	st	X, r23
    39fe:	6e 93       	st	-X, r22
    3a00:	1a 97       	sbiw	r26, 0x0a	; 10
    3a02:	65 e2       	ldi	r22, 0x25	; 37
    3a04:	71 e0       	ldi	r23, 0x01	; 1
    3a06:	c7 01       	movw	r24, r14
    3a08:	0e 94 9f 17 	call	0x2f3e	; 0x2f3e <dlist_move_tail.lto_priv.121.lto_priv.126>
    3a0c:	26 96       	adiw	r28, 0x06	; 6
    3a0e:	0f b6       	in	r0, 0x3f	; 63
    3a10:	f8 94       	cli
    3a12:	de bf       	out	0x3e, r29	; 62
    3a14:	0f be       	out	0x3f, r0	; 63
    3a16:	cd bf       	out	0x3d, r28	; 61
    3a18:	df 91       	pop	r29
    3a1a:	cf 91       	pop	r28
    3a1c:	1f 91       	pop	r17
    3a1e:	0f 91       	pop	r16
    3a20:	ff 90       	pop	r15
    3a22:	ef 90       	pop	r14
    3a24:	0c 94 36 19 	jmp	0x326c	; 0x326c <system_unlock>
    3a28:	f8 01       	movw	r30, r16
    3a2a:	82 89       	ldd	r24, Z+18	; 0x12
    3a2c:	8c 3a       	cpi	r24, 0xAC	; 172
    3a2e:	71 f0       	breq	.+28     	; 0x3a4c <_Z16uartgate_handlerPvi+0x2ea>
    3a30:	8d 3a       	cpi	r24, 0xAD	; 173
    3a32:	b9 f4       	brne	.+46     	; 0x3a62 <_Z16uartgate_handlerPvi+0x300>
    3a34:	f8 01       	movw	r30, r16
    3a36:	87 81       	ldd	r24, Z+7	; 0x07
    3a38:	90 85       	ldd	r25, Z+8	; 0x08
    3a3a:	dc 01       	movw	r26, r24
    3a3c:	ed 91       	ld	r30, X+
    3a3e:	fc 91       	ld	r31, X
    3a40:	00 84       	ldd	r0, Z+8	; 0x08
    3a42:	f1 85       	ldd	r31, Z+9	; 0x09
    3a44:	e0 2d       	mov	r30, r0
    3a46:	6f ea       	ldi	r22, 0xAF	; 175
    3a48:	7f ef       	ldi	r23, 0xFF	; 255
    3a4a:	0a c0       	rjmp	.+20     	; 0x3a60 <_Z16uartgate_handlerPvi+0x2fe>
    3a4c:	87 81       	ldd	r24, Z+7	; 0x07
    3a4e:	90 85       	ldd	r25, Z+8	; 0x08
    3a50:	dc 01       	movw	r26, r24
    3a52:	ed 91       	ld	r30, X+
    3a54:	fc 91       	ld	r31, X
    3a56:	00 84       	ldd	r0, Z+8	; 0x08
    3a58:	f1 85       	ldd	r31, Z+9	; 0x09
    3a5a:	e0 2d       	mov	r30, r0
    3a5c:	6e ea       	ldi	r22, 0xAE	; 174
    3a5e:	7f ef       	ldi	r23, 0xFF	; 255
    3a60:	09 95       	icall
    3a62:	82 e0       	ldi	r24, 0x02	; 2
    3a64:	f8 01       	movw	r30, r16
    3a66:	81 8b       	std	Z+17, r24	; 0x11
    3a68:	13 c0       	rjmp	.+38     	; 0x3a90 <_Z16uartgate_handlerPvi+0x32e>
    3a6a:	86 e0       	ldi	r24, 0x06	; 6
    3a6c:	e7 e4       	ldi	r30, 0x47	; 71
    3a6e:	f1 e0       	ldi	r31, 0x01	; 1
    3a70:	de 01       	movw	r26, r28
    3a72:	11 96       	adiw	r26, 0x01	; 1
    3a74:	01 90       	ld	r0, Z+
    3a76:	0d 92       	st	X+, r0
    3a78:	8a 95       	dec	r24
    3a7a:	e1 f7       	brne	.-8      	; 0x3a74 <_Z16uartgate_handlerPvi+0x312>
    3a7c:	49 81       	ldd	r20, Y+1	; 0x01
    3a7e:	5a 81       	ldd	r21, Y+2	; 0x02
    3a80:	6b 81       	ldd	r22, Y+3	; 0x03
    3a82:	7c 81       	ldd	r23, Y+4	; 0x04
    3a84:	8d 81       	ldd	r24, Y+5	; 0x05
    3a86:	9e 81       	ldd	r25, Y+6	; 0x06
    3a88:	0e 94 24 18 	call	0x3048	; 0x3048 <debug_print_location.lto_priv.118.lto_priv.125>
    3a8c:	0e 94 98 0e 	call	0x1d30	; 0x1d30 <abort>
    3a90:	26 96       	adiw	r28, 0x06	; 6
    3a92:	0f b6       	in	r0, 0x3f	; 63
    3a94:	f8 94       	cli
    3a96:	de bf       	out	0x3e, r29	; 62
    3a98:	0f be       	out	0x3f, r0	; 63
    3a9a:	cd bf       	out	0x3d, r28	; 61
    3a9c:	df 91       	pop	r29
    3a9e:	cf 91       	pop	r28
    3aa0:	1f 91       	pop	r17
    3aa2:	0f 91       	pop	r16
    3aa4:	ff 90       	pop	r15
    3aa6:	ef 90       	pop	r14
    3aa8:	08 95       	ret

00003aaa <_ZL19utilize_from_outersPN4crow6packetE.lto_priv.135>:
    3aaa:	ef 92       	push	r14
    3aac:	ff 92       	push	r15
    3aae:	0f 93       	push	r16
    3ab0:	1f 93       	push	r17
    3ab2:	cf 93       	push	r28
    3ab4:	df 93       	push	r29
    3ab6:	8c 01       	movw	r16, r24
    3ab8:	c0 91 25 01 	lds	r28, 0x0125	; 0x800125 <crow_outters>
    3abc:	d0 91 26 01 	lds	r29, 0x0126	; 0x800126 <crow_outters+0x1>
    3ac0:	7c 01       	movw	r14, r24
    3ac2:	89 e1       	ldi	r24, 0x19	; 25
    3ac4:	e8 0e       	add	r14, r24
    3ac6:	f1 1c       	adc	r15, r1
    3ac8:	e1 e0       	ldi	r30, 0x01	; 1
    3aca:	c5 32       	cpi	r28, 0x25	; 37
    3acc:	de 07       	cpc	r29, r30
    3ace:	09 f1       	breq	.+66     	; 0x3b12 <_ZL19utilize_from_outersPN4crow6packetE.lto_priv.135+0x68>
    3ad0:	2e 89       	ldd	r18, Y+22	; 0x16
    3ad2:	3f 89       	ldd	r19, Y+23	; 0x17
    3ad4:	f8 01       	movw	r30, r16
    3ad6:	86 89       	ldd	r24, Z+22	; 0x16
    3ad8:	97 89       	ldd	r25, Z+23	; 0x17
    3ada:	28 17       	cp	r18, r24
    3adc:	39 07       	cpc	r19, r25
    3ade:	a9 f4       	brne	.+42     	; 0x3b0a <_ZL19utilize_from_outersPN4crow6packetE.lto_priv.135+0x60>
    3ae0:	42 89       	ldd	r20, Z+18	; 0x12
    3ae2:	8a 89       	ldd	r24, Y+18	; 0x12
    3ae4:	48 13       	cpse	r20, r24
    3ae6:	11 c0       	rjmp	.+34     	; 0x3b0a <_ZL19utilize_from_outersPN4crow6packetE.lto_priv.135+0x60>
    3ae8:	50 e0       	ldi	r21, 0x00	; 0
    3aea:	b7 01       	movw	r22, r14
    3aec:	ce 01       	movw	r24, r28
    3aee:	49 96       	adiw	r24, 0x19	; 25
    3af0:	0e 94 d7 0d 	call	0x1bae	; 0x1bae <memcmp>
    3af4:	89 2b       	or	r24, r25
    3af6:	49 f4       	brne	.+18     	; 0x3b0a <_ZL19utilize_from_outersPN4crow6packetE.lto_priv.135+0x60>
    3af8:	ce 01       	movw	r24, r28
    3afa:	df 91       	pop	r29
    3afc:	cf 91       	pop	r28
    3afe:	1f 91       	pop	r17
    3b00:	0f 91       	pop	r16
    3b02:	ff 90       	pop	r15
    3b04:	ef 90       	pop	r14
    3b06:	0c 94 8b 1b 	jmp	0x3716	; 0x3716 <_ZL12crow_utilizePN4crow6packetE.lto_priv.133>
    3b0a:	09 90       	ld	r0, Y+
    3b0c:	d8 81       	ld	r29, Y
    3b0e:	c0 2d       	mov	r28, r0
    3b10:	db cf       	rjmp	.-74     	; 0x3ac8 <_ZL19utilize_from_outersPN4crow6packetE.lto_priv.135+0x1e>
    3b12:	df 91       	pop	r29
    3b14:	cf 91       	pop	r28
    3b16:	1f 91       	pop	r17
    3b18:	0f 91       	pop	r16
    3b1a:	ff 90       	pop	r15
    3b1c:	ef 90       	pop	r14
    3b1e:	08 95       	ret

00003b20 <_ZL18crow_tower_releasePN4crow6packetE.lto_priv.134>:
    3b20:	cf 93       	push	r28
    3b22:	df 93       	push	r29
    3b24:	ec 01       	movw	r28, r24
    3b26:	0e 94 49 19 	call	0x3292	; 0x3292 <system_lock>
    3b2a:	ce 01       	movw	r24, r28
    3b2c:	0e 94 a6 16 	call	0x2d4c	; 0x2d4c <dlist_del_init.lto_priv.113.lto_priv.130>
    3b30:	8e 85       	ldd	r24, Y+14	; 0x0e
    3b32:	80 ff       	sbrs	r24, 0
    3b34:	04 c0       	rjmp	.+8      	; 0x3b3e <_ZL18crow_tower_releasePN4crow6packetE.lto_priv.134+0x1e>
    3b36:	ce 01       	movw	r24, r28
    3b38:	0e 94 8b 1b 	call	0x3716	; 0x3716 <_ZL12crow_utilizePN4crow6packetE.lto_priv.133>
    3b3c:	02 c0       	rjmp	.+4      	; 0x3b42 <_ZL18crow_tower_releasePN4crow6packetE.lto_priv.134+0x22>
    3b3e:	82 60       	ori	r24, 0x02	; 2
    3b40:	8e 87       	std	Y+14, r24	; 0x0e
    3b42:	df 91       	pop	r29
    3b44:	cf 91       	pop	r28
    3b46:	0c 94 36 19 	jmp	0x326c	; 0x326c <system_unlock>

00003b4a <_ZN4crow7releaseEPNS_6packetE>:
    3b4a:	cf 93       	push	r28
    3b4c:	df 93       	push	r29
    3b4e:	ec 01       	movw	r28, r24
    3b50:	0e 94 49 19 	call	0x3292	; 0x3292 <system_lock>
    3b54:	8e 85       	ldd	r24, Y+14	; 0x0e
    3b56:	81 ff       	sbrs	r24, 1
    3b58:	04 c0       	rjmp	.+8      	; 0x3b62 <_ZN4crow7releaseEPNS_6packetE+0x18>
    3b5a:	ce 01       	movw	r24, r28
    3b5c:	0e 94 8b 1b 	call	0x3716	; 0x3716 <_ZL12crow_utilizePN4crow6packetE.lto_priv.133>
    3b60:	02 c0       	rjmp	.+4      	; 0x3b66 <_ZN4crow7releaseEPNS_6packetE+0x1c>
    3b62:	81 60       	ori	r24, 0x01	; 1
    3b64:	8e 87       	std	Y+14, r24	; 0x0e
    3b66:	df 91       	pop	r29
    3b68:	cf 91       	pop	r28
    3b6a:	0c 94 36 19 	jmp	0x326c	; 0x326c <system_unlock>

00003b6e <_ZN4crow19pubsub_protocol_cls8incomingEPNS_6packetE>:
    3b6e:	dc 01       	movw	r26, r24
    3b70:	17 96       	adiw	r26, 0x07	; 7
    3b72:	ed 91       	ld	r30, X+
    3b74:	fc 91       	ld	r31, X
    3b76:	18 97       	sbiw	r26, 0x08	; 8
    3b78:	cb 01       	movw	r24, r22
    3b7a:	30 97       	sbiw	r30, 0x00	; 0
    3b7c:	09 f0       	breq	.+2      	; 0x3b80 <_ZN4crow19pubsub_protocol_cls8incomingEPNS_6packetE+0x12>
    3b7e:	09 94       	ijmp
    3b80:	0c 94 a5 1d 	jmp	0x3b4a	; 0x3b4a <_ZN4crow7releaseEPNS_6packetE>

00003b84 <_ZN4crow8protocol11undeliveredEPNS_6packetE>:
    3b84:	cb 01       	movw	r24, r22
    3b86:	0c 94 a5 1d 	jmp	0x3b4a	; 0x3b4a <_ZN4crow7releaseEPNS_6packetE>

00003b8a <__subsf3>:
    3b8a:	50 58       	subi	r21, 0x80	; 128

00003b8c <__addsf3>:
    3b8c:	bb 27       	eor	r27, r27
    3b8e:	aa 27       	eor	r26, r26
    3b90:	0e 94 dd 1d 	call	0x3bba	; 0x3bba <__addsf3x>
    3b94:	0c 94 57 1f 	jmp	0x3eae	; 0x3eae <__fp_round>
    3b98:	0e 94 49 1f 	call	0x3e92	; 0x3e92 <__fp_pscA>
    3b9c:	38 f0       	brcs	.+14     	; 0x3bac <__addsf3+0x20>
    3b9e:	0e 94 50 1f 	call	0x3ea0	; 0x3ea0 <__fp_pscB>
    3ba2:	20 f0       	brcs	.+8      	; 0x3bac <__addsf3+0x20>
    3ba4:	39 f4       	brne	.+14     	; 0x3bb4 <__addsf3+0x28>
    3ba6:	9f 3f       	cpi	r25, 0xFF	; 255
    3ba8:	19 f4       	brne	.+6      	; 0x3bb0 <__addsf3+0x24>
    3baa:	26 f4       	brtc	.+8      	; 0x3bb4 <__addsf3+0x28>
    3bac:	0c 94 46 1f 	jmp	0x3e8c	; 0x3e8c <__fp_nan>
    3bb0:	0e f4       	brtc	.+2      	; 0x3bb4 <__addsf3+0x28>
    3bb2:	e0 95       	com	r30
    3bb4:	e7 fb       	bst	r30, 7
    3bb6:	0c 94 40 1f 	jmp	0x3e80	; 0x3e80 <__fp_inf>

00003bba <__addsf3x>:
    3bba:	e9 2f       	mov	r30, r25
    3bbc:	0e 94 68 1f 	call	0x3ed0	; 0x3ed0 <__fp_split3>
    3bc0:	58 f3       	brcs	.-42     	; 0x3b98 <__addsf3+0xc>
    3bc2:	ba 17       	cp	r27, r26
    3bc4:	62 07       	cpc	r22, r18
    3bc6:	73 07       	cpc	r23, r19
    3bc8:	84 07       	cpc	r24, r20
    3bca:	95 07       	cpc	r25, r21
    3bcc:	20 f0       	brcs	.+8      	; 0x3bd6 <__addsf3x+0x1c>
    3bce:	79 f4       	brne	.+30     	; 0x3bee <__addsf3x+0x34>
    3bd0:	a6 f5       	brtc	.+104    	; 0x3c3a <__addsf3x+0x80>
    3bd2:	0c 94 8a 1f 	jmp	0x3f14	; 0x3f14 <__fp_zero>
    3bd6:	0e f4       	brtc	.+2      	; 0x3bda <__addsf3x+0x20>
    3bd8:	e0 95       	com	r30
    3bda:	0b 2e       	mov	r0, r27
    3bdc:	ba 2f       	mov	r27, r26
    3bde:	a0 2d       	mov	r26, r0
    3be0:	0b 01       	movw	r0, r22
    3be2:	b9 01       	movw	r22, r18
    3be4:	90 01       	movw	r18, r0
    3be6:	0c 01       	movw	r0, r24
    3be8:	ca 01       	movw	r24, r20
    3bea:	a0 01       	movw	r20, r0
    3bec:	11 24       	eor	r1, r1
    3bee:	ff 27       	eor	r31, r31
    3bf0:	59 1b       	sub	r21, r25
    3bf2:	99 f0       	breq	.+38     	; 0x3c1a <__addsf3x+0x60>
    3bf4:	59 3f       	cpi	r21, 0xF9	; 249
    3bf6:	50 f4       	brcc	.+20     	; 0x3c0c <__addsf3x+0x52>
    3bf8:	50 3e       	cpi	r21, 0xE0	; 224
    3bfa:	68 f1       	brcs	.+90     	; 0x3c56 <__addsf3x+0x9c>
    3bfc:	1a 16       	cp	r1, r26
    3bfe:	f0 40       	sbci	r31, 0x00	; 0
    3c00:	a2 2f       	mov	r26, r18
    3c02:	23 2f       	mov	r18, r19
    3c04:	34 2f       	mov	r19, r20
    3c06:	44 27       	eor	r20, r20
    3c08:	58 5f       	subi	r21, 0xF8	; 248
    3c0a:	f3 cf       	rjmp	.-26     	; 0x3bf2 <__addsf3x+0x38>
    3c0c:	46 95       	lsr	r20
    3c0e:	37 95       	ror	r19
    3c10:	27 95       	ror	r18
    3c12:	a7 95       	ror	r26
    3c14:	f0 40       	sbci	r31, 0x00	; 0
    3c16:	53 95       	inc	r21
    3c18:	c9 f7       	brne	.-14     	; 0x3c0c <__addsf3x+0x52>
    3c1a:	7e f4       	brtc	.+30     	; 0x3c3a <__addsf3x+0x80>
    3c1c:	1f 16       	cp	r1, r31
    3c1e:	ba 0b       	sbc	r27, r26
    3c20:	62 0b       	sbc	r22, r18
    3c22:	73 0b       	sbc	r23, r19
    3c24:	84 0b       	sbc	r24, r20
    3c26:	ba f0       	brmi	.+46     	; 0x3c56 <__addsf3x+0x9c>
    3c28:	91 50       	subi	r25, 0x01	; 1
    3c2a:	a1 f0       	breq	.+40     	; 0x3c54 <__addsf3x+0x9a>
    3c2c:	ff 0f       	add	r31, r31
    3c2e:	bb 1f       	adc	r27, r27
    3c30:	66 1f       	adc	r22, r22
    3c32:	77 1f       	adc	r23, r23
    3c34:	88 1f       	adc	r24, r24
    3c36:	c2 f7       	brpl	.-16     	; 0x3c28 <__addsf3x+0x6e>
    3c38:	0e c0       	rjmp	.+28     	; 0x3c56 <__addsf3x+0x9c>
    3c3a:	ba 0f       	add	r27, r26
    3c3c:	62 1f       	adc	r22, r18
    3c3e:	73 1f       	adc	r23, r19
    3c40:	84 1f       	adc	r24, r20
    3c42:	48 f4       	brcc	.+18     	; 0x3c56 <__addsf3x+0x9c>
    3c44:	87 95       	ror	r24
    3c46:	77 95       	ror	r23
    3c48:	67 95       	ror	r22
    3c4a:	b7 95       	ror	r27
    3c4c:	f7 95       	ror	r31
    3c4e:	9e 3f       	cpi	r25, 0xFE	; 254
    3c50:	08 f0       	brcs	.+2      	; 0x3c54 <__addsf3x+0x9a>
    3c52:	b0 cf       	rjmp	.-160    	; 0x3bb4 <__addsf3+0x28>
    3c54:	93 95       	inc	r25
    3c56:	88 0f       	add	r24, r24
    3c58:	08 f0       	brcs	.+2      	; 0x3c5c <__addsf3x+0xa2>
    3c5a:	99 27       	eor	r25, r25
    3c5c:	ee 0f       	add	r30, r30
    3c5e:	97 95       	ror	r25
    3c60:	87 95       	ror	r24
    3c62:	08 95       	ret

00003c64 <__cmpsf2>:
    3c64:	0e 94 1c 1f 	call	0x3e38	; 0x3e38 <__fp_cmp>
    3c68:	08 f4       	brcc	.+2      	; 0x3c6c <__cmpsf2+0x8>
    3c6a:	81 e0       	ldi	r24, 0x01	; 1
    3c6c:	08 95       	ret

00003c6e <__divsf3>:
    3c6e:	0e 94 4b 1e 	call	0x3c96	; 0x3c96 <__divsf3x>
    3c72:	0c 94 57 1f 	jmp	0x3eae	; 0x3eae <__fp_round>
    3c76:	0e 94 50 1f 	call	0x3ea0	; 0x3ea0 <__fp_pscB>
    3c7a:	58 f0       	brcs	.+22     	; 0x3c92 <__divsf3+0x24>
    3c7c:	0e 94 49 1f 	call	0x3e92	; 0x3e92 <__fp_pscA>
    3c80:	40 f0       	brcs	.+16     	; 0x3c92 <__divsf3+0x24>
    3c82:	29 f4       	brne	.+10     	; 0x3c8e <__divsf3+0x20>
    3c84:	5f 3f       	cpi	r21, 0xFF	; 255
    3c86:	29 f0       	breq	.+10     	; 0x3c92 <__divsf3+0x24>
    3c88:	0c 94 40 1f 	jmp	0x3e80	; 0x3e80 <__fp_inf>
    3c8c:	51 11       	cpse	r21, r1
    3c8e:	0c 94 8b 1f 	jmp	0x3f16	; 0x3f16 <__fp_szero>
    3c92:	0c 94 46 1f 	jmp	0x3e8c	; 0x3e8c <__fp_nan>

00003c96 <__divsf3x>:
    3c96:	0e 94 68 1f 	call	0x3ed0	; 0x3ed0 <__fp_split3>
    3c9a:	68 f3       	brcs	.-38     	; 0x3c76 <__divsf3+0x8>

00003c9c <__divsf3_pse>:
    3c9c:	99 23       	and	r25, r25
    3c9e:	b1 f3       	breq	.-20     	; 0x3c8c <__divsf3+0x1e>
    3ca0:	55 23       	and	r21, r21
    3ca2:	91 f3       	breq	.-28     	; 0x3c88 <__divsf3+0x1a>
    3ca4:	95 1b       	sub	r25, r21
    3ca6:	55 0b       	sbc	r21, r21
    3ca8:	bb 27       	eor	r27, r27
    3caa:	aa 27       	eor	r26, r26
    3cac:	62 17       	cp	r22, r18
    3cae:	73 07       	cpc	r23, r19
    3cb0:	84 07       	cpc	r24, r20
    3cb2:	38 f0       	brcs	.+14     	; 0x3cc2 <__divsf3_pse+0x26>
    3cb4:	9f 5f       	subi	r25, 0xFF	; 255
    3cb6:	5f 4f       	sbci	r21, 0xFF	; 255
    3cb8:	22 0f       	add	r18, r18
    3cba:	33 1f       	adc	r19, r19
    3cbc:	44 1f       	adc	r20, r20
    3cbe:	aa 1f       	adc	r26, r26
    3cc0:	a9 f3       	breq	.-22     	; 0x3cac <__divsf3_pse+0x10>
    3cc2:	35 d0       	rcall	.+106    	; 0x3d2e <__divsf3_pse+0x92>
    3cc4:	0e 2e       	mov	r0, r30
    3cc6:	3a f0       	brmi	.+14     	; 0x3cd6 <__divsf3_pse+0x3a>
    3cc8:	e0 e8       	ldi	r30, 0x80	; 128
    3cca:	32 d0       	rcall	.+100    	; 0x3d30 <__divsf3_pse+0x94>
    3ccc:	91 50       	subi	r25, 0x01	; 1
    3cce:	50 40       	sbci	r21, 0x00	; 0
    3cd0:	e6 95       	lsr	r30
    3cd2:	00 1c       	adc	r0, r0
    3cd4:	ca f7       	brpl	.-14     	; 0x3cc8 <__divsf3_pse+0x2c>
    3cd6:	2b d0       	rcall	.+86     	; 0x3d2e <__divsf3_pse+0x92>
    3cd8:	fe 2f       	mov	r31, r30
    3cda:	29 d0       	rcall	.+82     	; 0x3d2e <__divsf3_pse+0x92>
    3cdc:	66 0f       	add	r22, r22
    3cde:	77 1f       	adc	r23, r23
    3ce0:	88 1f       	adc	r24, r24
    3ce2:	bb 1f       	adc	r27, r27
    3ce4:	26 17       	cp	r18, r22
    3ce6:	37 07       	cpc	r19, r23
    3ce8:	48 07       	cpc	r20, r24
    3cea:	ab 07       	cpc	r26, r27
    3cec:	b0 e8       	ldi	r27, 0x80	; 128
    3cee:	09 f0       	breq	.+2      	; 0x3cf2 <__divsf3_pse+0x56>
    3cf0:	bb 0b       	sbc	r27, r27
    3cf2:	80 2d       	mov	r24, r0
    3cf4:	bf 01       	movw	r22, r30
    3cf6:	ff 27       	eor	r31, r31
    3cf8:	93 58       	subi	r25, 0x83	; 131
    3cfa:	5f 4f       	sbci	r21, 0xFF	; 255
    3cfc:	3a f0       	brmi	.+14     	; 0x3d0c <__divsf3_pse+0x70>
    3cfe:	9e 3f       	cpi	r25, 0xFE	; 254
    3d00:	51 05       	cpc	r21, r1
    3d02:	78 f0       	brcs	.+30     	; 0x3d22 <__divsf3_pse+0x86>
    3d04:	0c 94 40 1f 	jmp	0x3e80	; 0x3e80 <__fp_inf>
    3d08:	0c 94 8b 1f 	jmp	0x3f16	; 0x3f16 <__fp_szero>
    3d0c:	5f 3f       	cpi	r21, 0xFF	; 255
    3d0e:	e4 f3       	brlt	.-8      	; 0x3d08 <__divsf3_pse+0x6c>
    3d10:	98 3e       	cpi	r25, 0xE8	; 232
    3d12:	d4 f3       	brlt	.-12     	; 0x3d08 <__divsf3_pse+0x6c>
    3d14:	86 95       	lsr	r24
    3d16:	77 95       	ror	r23
    3d18:	67 95       	ror	r22
    3d1a:	b7 95       	ror	r27
    3d1c:	f7 95       	ror	r31
    3d1e:	9f 5f       	subi	r25, 0xFF	; 255
    3d20:	c9 f7       	brne	.-14     	; 0x3d14 <__divsf3_pse+0x78>
    3d22:	88 0f       	add	r24, r24
    3d24:	91 1d       	adc	r25, r1
    3d26:	96 95       	lsr	r25
    3d28:	87 95       	ror	r24
    3d2a:	97 f9       	bld	r25, 7
    3d2c:	08 95       	ret
    3d2e:	e1 e0       	ldi	r30, 0x01	; 1
    3d30:	66 0f       	add	r22, r22
    3d32:	77 1f       	adc	r23, r23
    3d34:	88 1f       	adc	r24, r24
    3d36:	bb 1f       	adc	r27, r27
    3d38:	62 17       	cp	r22, r18
    3d3a:	73 07       	cpc	r23, r19
    3d3c:	84 07       	cpc	r24, r20
    3d3e:	ba 07       	cpc	r27, r26
    3d40:	20 f0       	brcs	.+8      	; 0x3d4a <__divsf3_pse+0xae>
    3d42:	62 1b       	sub	r22, r18
    3d44:	73 0b       	sbc	r23, r19
    3d46:	84 0b       	sbc	r24, r20
    3d48:	ba 0b       	sbc	r27, r26
    3d4a:	ee 1f       	adc	r30, r30
    3d4c:	88 f7       	brcc	.-30     	; 0x3d30 <__divsf3_pse+0x94>
    3d4e:	e0 95       	com	r30
    3d50:	08 95       	ret

00003d52 <__fixsfsi>:
    3d52:	0e 94 b0 1e 	call	0x3d60	; 0x3d60 <__fixunssfsi>
    3d56:	68 94       	set
    3d58:	b1 11       	cpse	r27, r1
    3d5a:	0c 94 8b 1f 	jmp	0x3f16	; 0x3f16 <__fp_szero>
    3d5e:	08 95       	ret

00003d60 <__fixunssfsi>:
    3d60:	0e 94 70 1f 	call	0x3ee0	; 0x3ee0 <__fp_splitA>
    3d64:	88 f0       	brcs	.+34     	; 0x3d88 <__fixunssfsi+0x28>
    3d66:	9f 57       	subi	r25, 0x7F	; 127
    3d68:	98 f0       	brcs	.+38     	; 0x3d90 <__fixunssfsi+0x30>
    3d6a:	b9 2f       	mov	r27, r25
    3d6c:	99 27       	eor	r25, r25
    3d6e:	b7 51       	subi	r27, 0x17	; 23
    3d70:	b0 f0       	brcs	.+44     	; 0x3d9e <__fixunssfsi+0x3e>
    3d72:	e1 f0       	breq	.+56     	; 0x3dac <__fixunssfsi+0x4c>
    3d74:	66 0f       	add	r22, r22
    3d76:	77 1f       	adc	r23, r23
    3d78:	88 1f       	adc	r24, r24
    3d7a:	99 1f       	adc	r25, r25
    3d7c:	1a f0       	brmi	.+6      	; 0x3d84 <__fixunssfsi+0x24>
    3d7e:	ba 95       	dec	r27
    3d80:	c9 f7       	brne	.-14     	; 0x3d74 <__fixunssfsi+0x14>
    3d82:	14 c0       	rjmp	.+40     	; 0x3dac <__fixunssfsi+0x4c>
    3d84:	b1 30       	cpi	r27, 0x01	; 1
    3d86:	91 f0       	breq	.+36     	; 0x3dac <__fixunssfsi+0x4c>
    3d88:	0e 94 8a 1f 	call	0x3f14	; 0x3f14 <__fp_zero>
    3d8c:	b1 e0       	ldi	r27, 0x01	; 1
    3d8e:	08 95       	ret
    3d90:	0c 94 8a 1f 	jmp	0x3f14	; 0x3f14 <__fp_zero>
    3d94:	67 2f       	mov	r22, r23
    3d96:	78 2f       	mov	r23, r24
    3d98:	88 27       	eor	r24, r24
    3d9a:	b8 5f       	subi	r27, 0xF8	; 248
    3d9c:	39 f0       	breq	.+14     	; 0x3dac <__fixunssfsi+0x4c>
    3d9e:	b9 3f       	cpi	r27, 0xF9	; 249
    3da0:	cc f3       	brlt	.-14     	; 0x3d94 <__fixunssfsi+0x34>
    3da2:	86 95       	lsr	r24
    3da4:	77 95       	ror	r23
    3da6:	67 95       	ror	r22
    3da8:	b3 95       	inc	r27
    3daa:	d9 f7       	brne	.-10     	; 0x3da2 <__fixunssfsi+0x42>
    3dac:	3e f4       	brtc	.+14     	; 0x3dbc <__fixunssfsi+0x5c>
    3dae:	90 95       	com	r25
    3db0:	80 95       	com	r24
    3db2:	70 95       	com	r23
    3db4:	61 95       	neg	r22
    3db6:	7f 4f       	sbci	r23, 0xFF	; 255
    3db8:	8f 4f       	sbci	r24, 0xFF	; 255
    3dba:	9f 4f       	sbci	r25, 0xFF	; 255
    3dbc:	08 95       	ret

00003dbe <__floatunsisf>:
    3dbe:	e8 94       	clt
    3dc0:	09 c0       	rjmp	.+18     	; 0x3dd4 <__floatsisf+0x12>

00003dc2 <__floatsisf>:
    3dc2:	97 fb       	bst	r25, 7
    3dc4:	3e f4       	brtc	.+14     	; 0x3dd4 <__floatsisf+0x12>
    3dc6:	90 95       	com	r25
    3dc8:	80 95       	com	r24
    3dca:	70 95       	com	r23
    3dcc:	61 95       	neg	r22
    3dce:	7f 4f       	sbci	r23, 0xFF	; 255
    3dd0:	8f 4f       	sbci	r24, 0xFF	; 255
    3dd2:	9f 4f       	sbci	r25, 0xFF	; 255
    3dd4:	99 23       	and	r25, r25
    3dd6:	a9 f0       	breq	.+42     	; 0x3e02 <__floatsisf+0x40>
    3dd8:	f9 2f       	mov	r31, r25
    3dda:	96 e9       	ldi	r25, 0x96	; 150
    3ddc:	bb 27       	eor	r27, r27
    3dde:	93 95       	inc	r25
    3de0:	f6 95       	lsr	r31
    3de2:	87 95       	ror	r24
    3de4:	77 95       	ror	r23
    3de6:	67 95       	ror	r22
    3de8:	b7 95       	ror	r27
    3dea:	f1 11       	cpse	r31, r1
    3dec:	f8 cf       	rjmp	.-16     	; 0x3dde <__floatsisf+0x1c>
    3dee:	fa f4       	brpl	.+62     	; 0x3e2e <__floatsisf+0x6c>
    3df0:	bb 0f       	add	r27, r27
    3df2:	11 f4       	brne	.+4      	; 0x3df8 <__floatsisf+0x36>
    3df4:	60 ff       	sbrs	r22, 0
    3df6:	1b c0       	rjmp	.+54     	; 0x3e2e <__floatsisf+0x6c>
    3df8:	6f 5f       	subi	r22, 0xFF	; 255
    3dfa:	7f 4f       	sbci	r23, 0xFF	; 255
    3dfc:	8f 4f       	sbci	r24, 0xFF	; 255
    3dfe:	9f 4f       	sbci	r25, 0xFF	; 255
    3e00:	16 c0       	rjmp	.+44     	; 0x3e2e <__floatsisf+0x6c>
    3e02:	88 23       	and	r24, r24
    3e04:	11 f0       	breq	.+4      	; 0x3e0a <__floatsisf+0x48>
    3e06:	96 e9       	ldi	r25, 0x96	; 150
    3e08:	11 c0       	rjmp	.+34     	; 0x3e2c <__floatsisf+0x6a>
    3e0a:	77 23       	and	r23, r23
    3e0c:	21 f0       	breq	.+8      	; 0x3e16 <__floatsisf+0x54>
    3e0e:	9e e8       	ldi	r25, 0x8E	; 142
    3e10:	87 2f       	mov	r24, r23
    3e12:	76 2f       	mov	r23, r22
    3e14:	05 c0       	rjmp	.+10     	; 0x3e20 <__floatsisf+0x5e>
    3e16:	66 23       	and	r22, r22
    3e18:	71 f0       	breq	.+28     	; 0x3e36 <__floatsisf+0x74>
    3e1a:	96 e8       	ldi	r25, 0x86	; 134
    3e1c:	86 2f       	mov	r24, r22
    3e1e:	70 e0       	ldi	r23, 0x00	; 0
    3e20:	60 e0       	ldi	r22, 0x00	; 0
    3e22:	2a f0       	brmi	.+10     	; 0x3e2e <__floatsisf+0x6c>
    3e24:	9a 95       	dec	r25
    3e26:	66 0f       	add	r22, r22
    3e28:	77 1f       	adc	r23, r23
    3e2a:	88 1f       	adc	r24, r24
    3e2c:	da f7       	brpl	.-10     	; 0x3e24 <__floatsisf+0x62>
    3e2e:	88 0f       	add	r24, r24
    3e30:	96 95       	lsr	r25
    3e32:	87 95       	ror	r24
    3e34:	97 f9       	bld	r25, 7
    3e36:	08 95       	ret

00003e38 <__fp_cmp>:
    3e38:	99 0f       	add	r25, r25
    3e3a:	00 08       	sbc	r0, r0
    3e3c:	55 0f       	add	r21, r21
    3e3e:	aa 0b       	sbc	r26, r26
    3e40:	e0 e8       	ldi	r30, 0x80	; 128
    3e42:	fe ef       	ldi	r31, 0xFE	; 254
    3e44:	16 16       	cp	r1, r22
    3e46:	17 06       	cpc	r1, r23
    3e48:	e8 07       	cpc	r30, r24
    3e4a:	f9 07       	cpc	r31, r25
    3e4c:	c0 f0       	brcs	.+48     	; 0x3e7e <__fp_cmp+0x46>
    3e4e:	12 16       	cp	r1, r18
    3e50:	13 06       	cpc	r1, r19
    3e52:	e4 07       	cpc	r30, r20
    3e54:	f5 07       	cpc	r31, r21
    3e56:	98 f0       	brcs	.+38     	; 0x3e7e <__fp_cmp+0x46>
    3e58:	62 1b       	sub	r22, r18
    3e5a:	73 0b       	sbc	r23, r19
    3e5c:	84 0b       	sbc	r24, r20
    3e5e:	95 0b       	sbc	r25, r21
    3e60:	39 f4       	brne	.+14     	; 0x3e70 <__fp_cmp+0x38>
    3e62:	0a 26       	eor	r0, r26
    3e64:	61 f0       	breq	.+24     	; 0x3e7e <__fp_cmp+0x46>
    3e66:	23 2b       	or	r18, r19
    3e68:	24 2b       	or	r18, r20
    3e6a:	25 2b       	or	r18, r21
    3e6c:	21 f4       	brne	.+8      	; 0x3e76 <__fp_cmp+0x3e>
    3e6e:	08 95       	ret
    3e70:	0a 26       	eor	r0, r26
    3e72:	09 f4       	brne	.+2      	; 0x3e76 <__fp_cmp+0x3e>
    3e74:	a1 40       	sbci	r26, 0x01	; 1
    3e76:	a6 95       	lsr	r26
    3e78:	8f ef       	ldi	r24, 0xFF	; 255
    3e7a:	81 1d       	adc	r24, r1
    3e7c:	81 1d       	adc	r24, r1
    3e7e:	08 95       	ret

00003e80 <__fp_inf>:
    3e80:	97 f9       	bld	r25, 7
    3e82:	9f 67       	ori	r25, 0x7F	; 127
    3e84:	80 e8       	ldi	r24, 0x80	; 128
    3e86:	70 e0       	ldi	r23, 0x00	; 0
    3e88:	60 e0       	ldi	r22, 0x00	; 0
    3e8a:	08 95       	ret

00003e8c <__fp_nan>:
    3e8c:	9f ef       	ldi	r25, 0xFF	; 255
    3e8e:	80 ec       	ldi	r24, 0xC0	; 192
    3e90:	08 95       	ret

00003e92 <__fp_pscA>:
    3e92:	00 24       	eor	r0, r0
    3e94:	0a 94       	dec	r0
    3e96:	16 16       	cp	r1, r22
    3e98:	17 06       	cpc	r1, r23
    3e9a:	18 06       	cpc	r1, r24
    3e9c:	09 06       	cpc	r0, r25
    3e9e:	08 95       	ret

00003ea0 <__fp_pscB>:
    3ea0:	00 24       	eor	r0, r0
    3ea2:	0a 94       	dec	r0
    3ea4:	12 16       	cp	r1, r18
    3ea6:	13 06       	cpc	r1, r19
    3ea8:	14 06       	cpc	r1, r20
    3eaa:	05 06       	cpc	r0, r21
    3eac:	08 95       	ret

00003eae <__fp_round>:
    3eae:	09 2e       	mov	r0, r25
    3eb0:	03 94       	inc	r0
    3eb2:	00 0c       	add	r0, r0
    3eb4:	11 f4       	brne	.+4      	; 0x3eba <__fp_round+0xc>
    3eb6:	88 23       	and	r24, r24
    3eb8:	52 f0       	brmi	.+20     	; 0x3ece <__fp_round+0x20>
    3eba:	bb 0f       	add	r27, r27
    3ebc:	40 f4       	brcc	.+16     	; 0x3ece <__fp_round+0x20>
    3ebe:	bf 2b       	or	r27, r31
    3ec0:	11 f4       	brne	.+4      	; 0x3ec6 <__fp_round+0x18>
    3ec2:	60 ff       	sbrs	r22, 0
    3ec4:	04 c0       	rjmp	.+8      	; 0x3ece <__fp_round+0x20>
    3ec6:	6f 5f       	subi	r22, 0xFF	; 255
    3ec8:	7f 4f       	sbci	r23, 0xFF	; 255
    3eca:	8f 4f       	sbci	r24, 0xFF	; 255
    3ecc:	9f 4f       	sbci	r25, 0xFF	; 255
    3ece:	08 95       	ret

00003ed0 <__fp_split3>:
    3ed0:	57 fd       	sbrc	r21, 7
    3ed2:	90 58       	subi	r25, 0x80	; 128
    3ed4:	44 0f       	add	r20, r20
    3ed6:	55 1f       	adc	r21, r21
    3ed8:	59 f0       	breq	.+22     	; 0x3ef0 <__fp_splitA+0x10>
    3eda:	5f 3f       	cpi	r21, 0xFF	; 255
    3edc:	71 f0       	breq	.+28     	; 0x3efa <__fp_splitA+0x1a>
    3ede:	47 95       	ror	r20

00003ee0 <__fp_splitA>:
    3ee0:	88 0f       	add	r24, r24
    3ee2:	97 fb       	bst	r25, 7
    3ee4:	99 1f       	adc	r25, r25
    3ee6:	61 f0       	breq	.+24     	; 0x3f00 <__fp_splitA+0x20>
    3ee8:	9f 3f       	cpi	r25, 0xFF	; 255
    3eea:	79 f0       	breq	.+30     	; 0x3f0a <__fp_splitA+0x2a>
    3eec:	87 95       	ror	r24
    3eee:	08 95       	ret
    3ef0:	12 16       	cp	r1, r18
    3ef2:	13 06       	cpc	r1, r19
    3ef4:	14 06       	cpc	r1, r20
    3ef6:	55 1f       	adc	r21, r21
    3ef8:	f2 cf       	rjmp	.-28     	; 0x3ede <__fp_split3+0xe>
    3efa:	46 95       	lsr	r20
    3efc:	f1 df       	rcall	.-30     	; 0x3ee0 <__fp_splitA>
    3efe:	08 c0       	rjmp	.+16     	; 0x3f10 <__fp_splitA+0x30>
    3f00:	16 16       	cp	r1, r22
    3f02:	17 06       	cpc	r1, r23
    3f04:	18 06       	cpc	r1, r24
    3f06:	99 1f       	adc	r25, r25
    3f08:	f1 cf       	rjmp	.-30     	; 0x3eec <__fp_splitA+0xc>
    3f0a:	86 95       	lsr	r24
    3f0c:	71 05       	cpc	r23, r1
    3f0e:	61 05       	cpc	r22, r1
    3f10:	08 94       	sec
    3f12:	08 95       	ret

00003f14 <__fp_zero>:
    3f14:	e8 94       	clt

00003f16 <__fp_szero>:
    3f16:	bb 27       	eor	r27, r27
    3f18:	66 27       	eor	r22, r22
    3f1a:	77 27       	eor	r23, r23
    3f1c:	cb 01       	movw	r24, r22
    3f1e:	97 f9       	bld	r25, 7
    3f20:	08 95       	ret

00003f22 <__gesf2>:
    3f22:	0e 94 1c 1f 	call	0x3e38	; 0x3e38 <__fp_cmp>
    3f26:	08 f4       	brcc	.+2      	; 0x3f2a <__gesf2+0x8>
    3f28:	8f ef       	ldi	r24, 0xFF	; 255
    3f2a:	08 95       	ret

00003f2c <__mulsf3>:
    3f2c:	0e 94 a9 1f 	call	0x3f52	; 0x3f52 <__mulsf3x>
    3f30:	0c 94 57 1f 	jmp	0x3eae	; 0x3eae <__fp_round>
    3f34:	0e 94 49 1f 	call	0x3e92	; 0x3e92 <__fp_pscA>
    3f38:	38 f0       	brcs	.+14     	; 0x3f48 <__mulsf3+0x1c>
    3f3a:	0e 94 50 1f 	call	0x3ea0	; 0x3ea0 <__fp_pscB>
    3f3e:	20 f0       	brcs	.+8      	; 0x3f48 <__mulsf3+0x1c>
    3f40:	95 23       	and	r25, r21
    3f42:	11 f0       	breq	.+4      	; 0x3f48 <__mulsf3+0x1c>
    3f44:	0c 94 40 1f 	jmp	0x3e80	; 0x3e80 <__fp_inf>
    3f48:	0c 94 46 1f 	jmp	0x3e8c	; 0x3e8c <__fp_nan>
    3f4c:	11 24       	eor	r1, r1
    3f4e:	0c 94 8b 1f 	jmp	0x3f16	; 0x3f16 <__fp_szero>

00003f52 <__mulsf3x>:
    3f52:	0e 94 68 1f 	call	0x3ed0	; 0x3ed0 <__fp_split3>
    3f56:	70 f3       	brcs	.-36     	; 0x3f34 <__mulsf3+0x8>

00003f58 <__mulsf3_pse>:
    3f58:	95 9f       	mul	r25, r21
    3f5a:	c1 f3       	breq	.-16     	; 0x3f4c <__mulsf3+0x20>
    3f5c:	95 0f       	add	r25, r21
    3f5e:	50 e0       	ldi	r21, 0x00	; 0
    3f60:	55 1f       	adc	r21, r21
    3f62:	62 9f       	mul	r22, r18
    3f64:	f0 01       	movw	r30, r0
    3f66:	72 9f       	mul	r23, r18
    3f68:	bb 27       	eor	r27, r27
    3f6a:	f0 0d       	add	r31, r0
    3f6c:	b1 1d       	adc	r27, r1
    3f6e:	63 9f       	mul	r22, r19
    3f70:	aa 27       	eor	r26, r26
    3f72:	f0 0d       	add	r31, r0
    3f74:	b1 1d       	adc	r27, r1
    3f76:	aa 1f       	adc	r26, r26
    3f78:	64 9f       	mul	r22, r20
    3f7a:	66 27       	eor	r22, r22
    3f7c:	b0 0d       	add	r27, r0
    3f7e:	a1 1d       	adc	r26, r1
    3f80:	66 1f       	adc	r22, r22
    3f82:	82 9f       	mul	r24, r18
    3f84:	22 27       	eor	r18, r18
    3f86:	b0 0d       	add	r27, r0
    3f88:	a1 1d       	adc	r26, r1
    3f8a:	62 1f       	adc	r22, r18
    3f8c:	73 9f       	mul	r23, r19
    3f8e:	b0 0d       	add	r27, r0
    3f90:	a1 1d       	adc	r26, r1
    3f92:	62 1f       	adc	r22, r18
    3f94:	83 9f       	mul	r24, r19
    3f96:	a0 0d       	add	r26, r0
    3f98:	61 1d       	adc	r22, r1
    3f9a:	22 1f       	adc	r18, r18
    3f9c:	74 9f       	mul	r23, r20
    3f9e:	33 27       	eor	r19, r19
    3fa0:	a0 0d       	add	r26, r0
    3fa2:	61 1d       	adc	r22, r1
    3fa4:	23 1f       	adc	r18, r19
    3fa6:	84 9f       	mul	r24, r20
    3fa8:	60 0d       	add	r22, r0
    3faa:	21 1d       	adc	r18, r1
    3fac:	82 2f       	mov	r24, r18
    3fae:	76 2f       	mov	r23, r22
    3fb0:	6a 2f       	mov	r22, r26
    3fb2:	11 24       	eor	r1, r1
    3fb4:	9f 57       	subi	r25, 0x7F	; 127
    3fb6:	50 40       	sbci	r21, 0x00	; 0
    3fb8:	9a f0       	brmi	.+38     	; 0x3fe0 <__mulsf3_pse+0x88>
    3fba:	f1 f0       	breq	.+60     	; 0x3ff8 <__mulsf3_pse+0xa0>
    3fbc:	88 23       	and	r24, r24
    3fbe:	4a f0       	brmi	.+18     	; 0x3fd2 <__mulsf3_pse+0x7a>
    3fc0:	ee 0f       	add	r30, r30
    3fc2:	ff 1f       	adc	r31, r31
    3fc4:	bb 1f       	adc	r27, r27
    3fc6:	66 1f       	adc	r22, r22
    3fc8:	77 1f       	adc	r23, r23
    3fca:	88 1f       	adc	r24, r24
    3fcc:	91 50       	subi	r25, 0x01	; 1
    3fce:	50 40       	sbci	r21, 0x00	; 0
    3fd0:	a9 f7       	brne	.-22     	; 0x3fbc <__mulsf3_pse+0x64>
    3fd2:	9e 3f       	cpi	r25, 0xFE	; 254
    3fd4:	51 05       	cpc	r21, r1
    3fd6:	80 f0       	brcs	.+32     	; 0x3ff8 <__mulsf3_pse+0xa0>
    3fd8:	0c 94 40 1f 	jmp	0x3e80	; 0x3e80 <__fp_inf>
    3fdc:	0c 94 8b 1f 	jmp	0x3f16	; 0x3f16 <__fp_szero>
    3fe0:	5f 3f       	cpi	r21, 0xFF	; 255
    3fe2:	e4 f3       	brlt	.-8      	; 0x3fdc <__mulsf3_pse+0x84>
    3fe4:	98 3e       	cpi	r25, 0xE8	; 232
    3fe6:	d4 f3       	brlt	.-12     	; 0x3fdc <__mulsf3_pse+0x84>
    3fe8:	86 95       	lsr	r24
    3fea:	77 95       	ror	r23
    3fec:	67 95       	ror	r22
    3fee:	b7 95       	ror	r27
    3ff0:	f7 95       	ror	r31
    3ff2:	e7 95       	ror	r30
    3ff4:	9f 5f       	subi	r25, 0xFF	; 255
    3ff6:	c1 f7       	brne	.-16     	; 0x3fe8 <__mulsf3_pse+0x90>
    3ff8:	fe 2b       	or	r31, r30
    3ffa:	88 0f       	add	r24, r24
    3ffc:	91 1d       	adc	r25, r1
    3ffe:	96 95       	lsr	r25
    4000:	87 95       	ror	r24
    4002:	97 f9       	bld	r25, 7
    4004:	08 95       	ret

00004006 <__mulsi3>:
    4006:	db 01       	movw	r26, r22
    4008:	8f 93       	push	r24
    400a:	9f 93       	push	r25
    400c:	0e 94 54 20 	call	0x40a8	; 0x40a8 <__muluhisi3>
    4010:	bf 91       	pop	r27
    4012:	af 91       	pop	r26
    4014:	a2 9f       	mul	r26, r18
    4016:	80 0d       	add	r24, r0
    4018:	91 1d       	adc	r25, r1
    401a:	a3 9f       	mul	r26, r19
    401c:	90 0d       	add	r25, r0
    401e:	b2 9f       	mul	r27, r18
    4020:	90 0d       	add	r25, r0
    4022:	11 24       	eor	r1, r1
    4024:	08 95       	ret

00004026 <__udivmodsi4>:
    4026:	a1 e2       	ldi	r26, 0x21	; 33
    4028:	1a 2e       	mov	r1, r26
    402a:	aa 1b       	sub	r26, r26
    402c:	bb 1b       	sub	r27, r27
    402e:	fd 01       	movw	r30, r26
    4030:	0d c0       	rjmp	.+26     	; 0x404c <__udivmodsi4_ep>

00004032 <__udivmodsi4_loop>:
    4032:	aa 1f       	adc	r26, r26
    4034:	bb 1f       	adc	r27, r27
    4036:	ee 1f       	adc	r30, r30
    4038:	ff 1f       	adc	r31, r31
    403a:	a2 17       	cp	r26, r18
    403c:	b3 07       	cpc	r27, r19
    403e:	e4 07       	cpc	r30, r20
    4040:	f5 07       	cpc	r31, r21
    4042:	20 f0       	brcs	.+8      	; 0x404c <__udivmodsi4_ep>
    4044:	a2 1b       	sub	r26, r18
    4046:	b3 0b       	sbc	r27, r19
    4048:	e4 0b       	sbc	r30, r20
    404a:	f5 0b       	sbc	r31, r21

0000404c <__udivmodsi4_ep>:
    404c:	66 1f       	adc	r22, r22
    404e:	77 1f       	adc	r23, r23
    4050:	88 1f       	adc	r24, r24
    4052:	99 1f       	adc	r25, r25
    4054:	1a 94       	dec	r1
    4056:	69 f7       	brne	.-38     	; 0x4032 <__udivmodsi4_loop>
    4058:	60 95       	com	r22
    405a:	70 95       	com	r23
    405c:	80 95       	com	r24
    405e:	90 95       	com	r25
    4060:	9b 01       	movw	r18, r22
    4062:	ac 01       	movw	r20, r24
    4064:	bd 01       	movw	r22, r26
    4066:	cf 01       	movw	r24, r30
    4068:	08 95       	ret

0000406a <__divmodsi4>:
    406a:	05 2e       	mov	r0, r21
    406c:	97 fb       	bst	r25, 7
    406e:	1e f4       	brtc	.+6      	; 0x4076 <__divmodsi4+0xc>
    4070:	00 94       	com	r0
    4072:	0e 94 4c 20 	call	0x4098	; 0x4098 <__negsi2>
    4076:	57 fd       	sbrc	r21, 7
    4078:	07 d0       	rcall	.+14     	; 0x4088 <__divmodsi4_neg2>
    407a:	0e 94 13 20 	call	0x4026	; 0x4026 <__udivmodsi4>
    407e:	07 fc       	sbrc	r0, 7
    4080:	03 d0       	rcall	.+6      	; 0x4088 <__divmodsi4_neg2>
    4082:	4e f4       	brtc	.+18     	; 0x4096 <__divmodsi4_exit>
    4084:	0c 94 4c 20 	jmp	0x4098	; 0x4098 <__negsi2>

00004088 <__divmodsi4_neg2>:
    4088:	50 95       	com	r21
    408a:	40 95       	com	r20
    408c:	30 95       	com	r19
    408e:	21 95       	neg	r18
    4090:	3f 4f       	sbci	r19, 0xFF	; 255
    4092:	4f 4f       	sbci	r20, 0xFF	; 255
    4094:	5f 4f       	sbci	r21, 0xFF	; 255

00004096 <__divmodsi4_exit>:
    4096:	08 95       	ret

00004098 <__negsi2>:
    4098:	90 95       	com	r25
    409a:	80 95       	com	r24
    409c:	70 95       	com	r23
    409e:	61 95       	neg	r22
    40a0:	7f 4f       	sbci	r23, 0xFF	; 255
    40a2:	8f 4f       	sbci	r24, 0xFF	; 255
    40a4:	9f 4f       	sbci	r25, 0xFF	; 255
    40a6:	08 95       	ret

000040a8 <__muluhisi3>:
    40a8:	0e 94 e6 20 	call	0x41cc	; 0x41cc <__umulhisi3>
    40ac:	a5 9f       	mul	r26, r21
    40ae:	90 0d       	add	r25, r0
    40b0:	b4 9f       	mul	r27, r20
    40b2:	90 0d       	add	r25, r0
    40b4:	a4 9f       	mul	r26, r20
    40b6:	80 0d       	add	r24, r0
    40b8:	91 1d       	adc	r25, r1
    40ba:	11 24       	eor	r1, r1
    40bc:	08 95       	ret

000040be <__umoddi3>:
    40be:	68 94       	set
    40c0:	01 c0       	rjmp	.+2      	; 0x40c4 <__udivdi3_umoddi3>

000040c2 <__udivdi3>:
    40c2:	e8 94       	clt

000040c4 <__udivdi3_umoddi3>:
    40c4:	8f 92       	push	r8
    40c6:	9f 92       	push	r9
    40c8:	cf 93       	push	r28
    40ca:	df 93       	push	r29
    40cc:	0e 94 6d 20 	call	0x40da	; 0x40da <__udivmod64>
    40d0:	df 91       	pop	r29
    40d2:	cf 91       	pop	r28
    40d4:	9f 90       	pop	r9
    40d6:	8f 90       	pop	r8
    40d8:	08 95       	ret

000040da <__udivmod64>:
    40da:	88 24       	eor	r8, r8
    40dc:	99 24       	eor	r9, r9
    40de:	f4 01       	movw	r30, r8
    40e0:	e4 01       	movw	r28, r8
    40e2:	b0 e4       	ldi	r27, 0x40	; 64
    40e4:	9f 93       	push	r25
    40e6:	aa 27       	eor	r26, r26
    40e8:	9a 15       	cp	r25, r10
    40ea:	8b 04       	cpc	r8, r11
    40ec:	9c 04       	cpc	r9, r12
    40ee:	ed 05       	cpc	r30, r13
    40f0:	fe 05       	cpc	r31, r14
    40f2:	cf 05       	cpc	r28, r15
    40f4:	d0 07       	cpc	r29, r16
    40f6:	a1 07       	cpc	r26, r17
    40f8:	98 f4       	brcc	.+38     	; 0x4120 <__udivmod64+0x46>
    40fa:	ad 2f       	mov	r26, r29
    40fc:	dc 2f       	mov	r29, r28
    40fe:	cf 2f       	mov	r28, r31
    4100:	fe 2f       	mov	r31, r30
    4102:	e9 2d       	mov	r30, r9
    4104:	98 2c       	mov	r9, r8
    4106:	89 2e       	mov	r8, r25
    4108:	98 2f       	mov	r25, r24
    410a:	87 2f       	mov	r24, r23
    410c:	76 2f       	mov	r23, r22
    410e:	65 2f       	mov	r22, r21
    4110:	54 2f       	mov	r21, r20
    4112:	43 2f       	mov	r20, r19
    4114:	32 2f       	mov	r19, r18
    4116:	22 27       	eor	r18, r18
    4118:	b8 50       	subi	r27, 0x08	; 8
    411a:	31 f7       	brne	.-52     	; 0x40e8 <__udivmod64+0xe>
    411c:	bf 91       	pop	r27
    411e:	27 c0       	rjmp	.+78     	; 0x416e <__udivmod64+0x94>
    4120:	1b 2e       	mov	r1, r27
    4122:	bf 91       	pop	r27
    4124:	bb 27       	eor	r27, r27
    4126:	22 0f       	add	r18, r18
    4128:	33 1f       	adc	r19, r19
    412a:	44 1f       	adc	r20, r20
    412c:	55 1f       	adc	r21, r21
    412e:	66 1f       	adc	r22, r22
    4130:	77 1f       	adc	r23, r23
    4132:	88 1f       	adc	r24, r24
    4134:	99 1f       	adc	r25, r25
    4136:	88 1c       	adc	r8, r8
    4138:	99 1c       	adc	r9, r9
    413a:	ee 1f       	adc	r30, r30
    413c:	ff 1f       	adc	r31, r31
    413e:	cc 1f       	adc	r28, r28
    4140:	dd 1f       	adc	r29, r29
    4142:	aa 1f       	adc	r26, r26
    4144:	bb 1f       	adc	r27, r27
    4146:	8a 14       	cp	r8, r10
    4148:	9b 04       	cpc	r9, r11
    414a:	ec 05       	cpc	r30, r12
    414c:	fd 05       	cpc	r31, r13
    414e:	ce 05       	cpc	r28, r14
    4150:	df 05       	cpc	r29, r15
    4152:	a0 07       	cpc	r26, r16
    4154:	b1 07       	cpc	r27, r17
    4156:	48 f0       	brcs	.+18     	; 0x416a <__udivmod64+0x90>
    4158:	8a 18       	sub	r8, r10
    415a:	9b 08       	sbc	r9, r11
    415c:	ec 09       	sbc	r30, r12
    415e:	fd 09       	sbc	r31, r13
    4160:	ce 09       	sbc	r28, r14
    4162:	df 09       	sbc	r29, r15
    4164:	a0 0b       	sbc	r26, r16
    4166:	b1 0b       	sbc	r27, r17
    4168:	21 60       	ori	r18, 0x01	; 1
    416a:	1a 94       	dec	r1
    416c:	e1 f6       	brne	.-72     	; 0x4126 <__udivmod64+0x4c>
    416e:	2e f4       	brtc	.+10     	; 0x417a <__udivmod64+0xa0>
    4170:	94 01       	movw	r18, r8
    4172:	af 01       	movw	r20, r30
    4174:	be 01       	movw	r22, r28
    4176:	cd 01       	movw	r24, r26
    4178:	00 0c       	add	r0, r0
    417a:	08 95       	ret

0000417c <__negdi2>:
    417c:	60 95       	com	r22
    417e:	70 95       	com	r23
    4180:	80 95       	com	r24
    4182:	90 95       	com	r25
    4184:	30 95       	com	r19
    4186:	40 95       	com	r20
    4188:	50 95       	com	r21
    418a:	21 95       	neg	r18
    418c:	3f 4f       	sbci	r19, 0xFF	; 255
    418e:	4f 4f       	sbci	r20, 0xFF	; 255
    4190:	5f 4f       	sbci	r21, 0xFF	; 255
    4192:	6f 4f       	sbci	r22, 0xFF	; 255
    4194:	7f 4f       	sbci	r23, 0xFF	; 255
    4196:	8f 4f       	sbci	r24, 0xFF	; 255
    4198:	9f 4f       	sbci	r25, 0xFF	; 255
    419a:	08 95       	ret

0000419c <__adddi3_s8>:
    419c:	00 24       	eor	r0, r0
    419e:	a7 fd       	sbrc	r26, 7
    41a0:	00 94       	com	r0
    41a2:	2a 0f       	add	r18, r26
    41a4:	30 1d       	adc	r19, r0
    41a6:	40 1d       	adc	r20, r0
    41a8:	50 1d       	adc	r21, r0
    41aa:	60 1d       	adc	r22, r0
    41ac:	70 1d       	adc	r23, r0
    41ae:	80 1d       	adc	r24, r0
    41b0:	90 1d       	adc	r25, r0
    41b2:	08 95       	ret

000041b4 <__cmpdi2_s8>:
    41b4:	00 24       	eor	r0, r0
    41b6:	a7 fd       	sbrc	r26, 7
    41b8:	00 94       	com	r0
    41ba:	2a 17       	cp	r18, r26
    41bc:	30 05       	cpc	r19, r0
    41be:	40 05       	cpc	r20, r0
    41c0:	50 05       	cpc	r21, r0
    41c2:	60 05       	cpc	r22, r0
    41c4:	70 05       	cpc	r23, r0
    41c6:	80 05       	cpc	r24, r0
    41c8:	90 05       	cpc	r25, r0
    41ca:	08 95       	ret

000041cc <__umulhisi3>:
    41cc:	a2 9f       	mul	r26, r18
    41ce:	b0 01       	movw	r22, r0
    41d0:	b3 9f       	mul	r27, r19
    41d2:	c0 01       	movw	r24, r0
    41d4:	a3 9f       	mul	r26, r19
    41d6:	70 0d       	add	r23, r0
    41d8:	81 1d       	adc	r24, r1
    41da:	11 24       	eor	r1, r1
    41dc:	91 1d       	adc	r25, r1
    41de:	b2 9f       	mul	r27, r18
    41e0:	70 0d       	add	r23, r0
    41e2:	81 1d       	adc	r24, r1
    41e4:	11 24       	eor	r1, r1
    41e6:	91 1d       	adc	r25, r1
    41e8:	08 95       	ret

Disassembly of section .bss:

00800620 <updater_schedee_heap>:
	...

008006a0 <crow_pool_buffer>:
	...

00800820 <wr_ver>:
  800820:	00 00       	nop
  800822:	00 00       	nop
	...

00800826 <wr_hor>:
  800826:	00 00       	nop
  800828:	00 00       	nop
	...

0080082c <irqtable>:
	...

008008c2 <__seqcounter>:
	...

008008c4 <raddr_>:
	...

008008d4 <_ZN5genos3avr6timer2E>:
	...

008008de <_ZN5genos3avr6timer1E>:
	...

008008e8 <_ZN5genos3avr6timer0E>:
	...

008008f2 <_ZN5genos7devmngrE>:
	...

00800900 <_ZN4crow15pubsub_protocolE>:
	...

00800909 <crow_gateways>:
  800909:	00 00       	nop
	...

0080090d <usart0>:
	...

00800916 <board_led>:
  800916:	00 00       	nop
	...

0080091a <__current_schedee>:
	...

0080091c <spammer_schedee>:
	...

0080094a <motors>:
	...

00800962 <pwm_hor>:
  800962:	00 00       	nop
	...

00800965 <pwm_ver>:
  800965:	00 00       	nop
	...

00800968 <updater_schedee>:
	...

008009bf <uartgate>:
	...

00800a26 <mshield>:
	...

00800a66 <i2c>:
	...

00800a7b <_ZL6PINOUT.lto_priv.136>:
	...

00800ab3 <lpower>:
  800ab3:	00 00       	nop
	...

00800ab7 <rpower>:
  800ab7:	00 00       	nop
	...

00800abb <en>:
	...

00800abc <raddr_len>:
	...

00800abe <i>:
  800abe:	00 00       	nop
	...

00800ac2 <_ZN4crow21user_incoming_handlerE>:
	...

00800ac4 <runlist>:
	...

00800ad4 <current_diag_priv>:
	...

00800ad6 <current_diag_ops>:
	...

00800ad8 <_ZL5count.lto_priv.124>:
	...

00800ada <_ZZ16__errno_locationE12global_errno>:
	...

00800adc <__interrupt_context>:
	...

00800add <__jiffies>:
  800add:	00 00       	nop
	...

00800ae1 <_ZL4save>:
	...

00800ae2 <_crow_packet_pool>:
	...

Disassembly of section .comment:

00000000 <.comment>:
   0:	47 43       	sbci	r20, 0x37	; 55
   2:	43 3a       	cpi	r20, 0xA3	; 163
   4:	20 28       	or	r2, r0
   6:	47 4e       	sbci	r20, 0xE7	; 231
   8:	55 29       	or	r21, r5
   a:	20 35       	cpi	r18, 0x50	; 80
   c:	2e 34       	cpi	r18, 0x4E	; 78
   e:	2e 30       	cpi	r18, 0x0E	; 14
	...
