
firmware.elf:     file format elf32-avr


Disassembly of section .data:

00800100 <__data_start>:
  800100:	00 01       	movw	r0, r0
  800102:	00 01       	movw	r0, r0

00800104 <unstoplist>:
  800104:	04 01       	movw	r0, r8
  800106:	04 01       	movw	r0, r8

00800108 <waitlist>:
  800108:	08 01       	movw	r0, r16
  80010a:	08 01       	movw	r0, r16

0080010c <finallist>:
  80010c:	0c 01       	movw	r0, r24
  80010e:	0c 01       	movw	r0, r24

00800110 <system_frequency>:
  800110:	01 00       	.word	0x0001	; ????
	...

00800114 <system_clock_frequency>:
  800114:	01 00       	.word	0x0001	; ????
	...

00800118 <jiffies_to_millis>:
  800118:	01 00       	.word	0x0001	; ????
	...

0080011c <lopart_to_micros>:
  80011c:	01 00       	.word	0x0001	; ????
	...

00800120 <rounders>:
  800120:	00 00       	nop
  800122:	00 3f       	cpi	r16, 0xF0	; 240
  800124:	cd cc       	rjmp	.-1638   	; 0x7ffac0 <__TEXT_REGION_LENGTH__+0x7dfac0>
  800126:	4c 3d       	cpi	r20, 0xDC	; 220
  800128:	0a d7       	rcall	.+3604   	; 0x800f3e <__bss_end+0xce1>
  80012a:	a3 3b       	cpi	r26, 0xB3	; 179
  80012c:	6f 12       	cpse	r6, r31
  80012e:	03 3a       	cpi	r16, 0xA3	; 163
  800130:	17 b7       	in	r17, 0x37	; 55
  800132:	51 38       	cpi	r21, 0x81	; 129
  800134:	ac c5       	rjmp	.+2904   	; 0x800c8e <__bss_end+0xa31>
  800136:	a7 36       	cpi	r26, 0x67	; 103
  800138:	bd 37       	cpi	r27, 0x7D	; 125
  80013a:	06 35       	cpi	r16, 0x56	; 86
  80013c:	95 bf       	out	0x35, r25	; 53
  80013e:	56 33       	cpi	r21, 0x36	; 54
  800140:	77 cc       	rjmp	.-1810   	; 0x7ffa30 <__TEXT_REGION_LENGTH__+0x7dfa30>
  800142:	ab 31       	cpi	r26, 0x1B	; 27
  800144:	5f 70       	andi	r21, 0x0F	; 15
  800146:	09 30       	cpi	r16, 0x09	; 9
  800148:	ff e6       	ldi	r31, 0x6F	; 111
  80014a:	5b 2e       	mov	r5, r27
  80014c:	66 69       	ori	r22, 0x96	; 150
  80014e:	6c 65       	ori	r22, 0x5C	; 92
  800150:	3a 20       	and	r3, r10
  800152:	00 66       	ori	r16, 0x60	; 96
  800154:	75 6e       	ori	r23, 0xE5	; 229
  800156:	63 3a       	cpi	r22, 0xA3	; 163
  800158:	20 00       	.word	0x0020	; ????
  80015a:	6c 69       	ori	r22, 0x9C	; 156
  80015c:	6e 65       	ori	r22, 0x5E	; 94
  80015e:	3a 20       	and	r3, r10
	...

00800161 <dscrc2x16_table>:
  800161:	00 5e       	subi	r16, 0xE0	; 224
  800163:	bc e2       	ldi	r27, 0x2C	; 44
  800165:	61 3f       	cpi	r22, 0xF1	; 241
  800167:	dd 83       	std	Y+5, r29	; 0x05
  800169:	c2 9c       	mul	r12, r2
  80016b:	7e 20       	and	r7, r14
  80016d:	a3 fd       	sbrc	r26, 3
  80016f:	1f 41       	sbci	r17, 0x1F	; 31
  800171:	00 9d       	mul	r16, r0
  800173:	23 be       	out	0x33, r2	; 51
  800175:	46 db       	rcall	.-2420   	; 0x7ff803 <__TEXT_REGION_LENGTH__+0x7df803>
  800177:	65 f8       	bld	r6, 5
  800179:	8c 11       	cpse	r24, r12
  80017b:	af 32       	cpi	r26, 0x2F	; 47
  80017d:	ca 57       	subi	r28, 0x7A	; 122
  80017f:	e9 74       	andi	r30, 0x49	; 73

00800181 <crcTable.1546>:
  800181:	00 00       	nop
  800183:	00 00       	nop
  800185:	b7 1d       	adc	r27, r7
  800187:	c1 04       	cpc	r12, r1
  800189:	6e 3b       	cpi	r22, 0xBE	; 190
  80018b:	82 09       	sbc	r24, r2
  80018d:	d9 26       	eor	r13, r25
  80018f:	43 0d       	add	r20, r3
  800191:	dc 76       	andi	r29, 0x6C	; 108
  800193:	04 13       	cpse	r16, r20
  800195:	6b 6b       	ori	r22, 0xBB	; 187
  800197:	c5 17       	cp	r28, r21
  800199:	b2 4d       	sbci	r27, 0xD2	; 210
  80019b:	86 1a       	sub	r8, r22
  80019d:	05 50       	subi	r16, 0x05	; 5
  80019f:	47 1e       	adc	r4, r23
  8001a1:	b8 ed       	ldi	r27, 0xD8	; 216
  8001a3:	08 26       	eor	r0, r24
  8001a5:	0f f0       	brie	.+2      	; 0x8001a9 <crcTable.1546+0x28>
  8001a7:	c9 22       	and	r12, r25
  8001a9:	d6 d6       	rcall	.+3500   	; 0x800f57 <__bss_end+0xcfa>
  8001ab:	8a 2f       	mov	r24, r26
  8001ad:	61 cb       	rjmp	.-2366   	; 0x7ff871 <__TEXT_REGION_LENGTH__+0x7df871>
  8001af:	4b 2b       	or	r20, r27
  8001b1:	64 9b       	sbis	0x0c, 4	; 12
  8001b3:	0c 35       	cpi	r16, 0x5C	; 92
  8001b5:	d3 86       	std	Z+11, r13	; 0x0b
  8001b7:	cd 31       	cpi	r28, 0x1D	; 29
  8001b9:	0a a0       	ldd	r0, Y+34	; 0x22
  8001bb:	8e 3c       	cpi	r24, 0xCE	; 206
  8001bd:	bd bd       	out	0x2d, r27	; 45
  8001bf:	4f 38       	cpi	r20, 0x8F	; 143
  8001c1:	6e 61       	ori	r22, 0x1E	; 30
  8001c3:	6e 00       	.word	0x006e	; ????
  8001c5:	2b 69       	ori	r18, 0x9B	; 155
  8001c7:	6e 66       	ori	r22, 0x6E	; 110
  8001c9:	00 2d       	mov	r16, r0
  8001cb:	69 6e       	ori	r22, 0xE9	; 233
  8001cd:	66 00       	.word	0x0066	; ????
  8001cf:	30 78       	andi	r19, 0x80	; 128
  8001d1:	00 20       	and	r0, r0
  8001d3:	20 20       	and	r2, r0
  8001d5:	00 2f       	mov	r16, r16
  8001d7:	68 6f       	ori	r22, 0xF8	; 248
  8001d9:	6d 65       	ori	r22, 0x5D	; 93
  8001db:	2f 6d       	ori	r18, 0xDF	; 223
  8001dd:	69 72       	andi	r22, 0x29	; 41
  8001df:	6d 69       	ori	r22, 0x9D	; 157
  8001e1:	6b 2f       	mov	r22, r27
  8001e3:	70 72       	andi	r23, 0x20	; 32
  8001e5:	6f 6a       	ori	r22, 0xAF	; 175
  8001e7:	65 63       	ori	r22, 0x35	; 53
  8001e9:	74 2f       	mov	r23, r20
  8001eb:	67 65       	ori	r22, 0x57	; 87
  8001ed:	6e 6f       	ori	r22, 0xFE	; 254
  8001ef:	73 2f       	mov	r23, r19
  8001f1:	61 72       	andi	r22, 0x21	; 33
  8001f3:	63 68       	ori	r22, 0x83	; 131
  8001f5:	2f 61       	ori	r18, 0x1F	; 31
  8001f7:	76 72       	andi	r23, 0x26	; 38
  8001f9:	2f 73       	andi	r18, 0x3F	; 63
  8001fb:	72 63       	ori	r23, 0x32	; 50
  8001fd:	2f 61       	ori	r18, 0x1F	; 31
  8001ff:	76 72       	andi	r23, 0x26	; 38
  800201:	5f 67       	ori	r21, 0x7F	; 127
  800203:	70 69       	ori	r23, 0x90	; 144
  800205:	6f 2e       	mov	r6, r31
  800207:	63 00       	.word	0x0063	; ????
  800209:	27 00       	.word	0x0027	; ????
  80020b:	d6 01       	movw	r26, r12
  80020d:	21 02       	muls	r18, r17
  80020f:	2c 00       	.word	0x002c	; ????
  800211:	d6 01       	movw	r26, r12
  800213:	21 02       	muls	r18, r17
  800215:	31 00       	.word	0x0031	; ????
  800217:	d6 01       	movw	r26, r12
  800219:	21 02       	muls	r18, r17
  80021b:	36 00       	.word	0x0036	; ????
  80021d:	d6 01       	movw	r26, r12
  80021f:	21 02       	muls	r18, r17

00800221 <__func__.1718>:
  800221:	61 76       	andi	r22, 0x61	; 97
  800223:	72 5f       	subi	r23, 0xF2	; 242
  800225:	67 70       	andi	r22, 0x07	; 7
  800227:	69 6f       	ori	r22, 0xF9	; 249
  800229:	5f 6d       	ori	r21, 0xDF	; 223
  80022b:	6f 64       	ori	r22, 0x4F	; 79
  80022d:	65 00       	.word	0x0065	; ????

0080022f <usart0_diag>:
  80022f:	14 26       	eor	r1, r20
  800231:	00 00       	nop
  800233:	30 24       	eor	r3, r0
  800235:	00 00       	nop
	...

Disassembly of section .text:

00000000 <__vectors>:
       0:	0c 94 34 00 	jmp	0x68	; 0x68 <__ctors_end>
       4:	0c 94 51 00 	jmp	0xa2	; 0xa2 <__bad_interrupt>
       8:	0c 94 51 00 	jmp	0xa2	; 0xa2 <__bad_interrupt>
       c:	0c 94 51 00 	jmp	0xa2	; 0xa2 <__bad_interrupt>
      10:	0c 94 51 00 	jmp	0xa2	; 0xa2 <__bad_interrupt>
      14:	0c 94 51 00 	jmp	0xa2	; 0xa2 <__bad_interrupt>
      18:	0c 94 51 00 	jmp	0xa2	; 0xa2 <__bad_interrupt>
      1c:	0c 94 51 00 	jmp	0xa2	; 0xa2 <__bad_interrupt>
      20:	0c 94 51 00 	jmp	0xa2	; 0xa2 <__bad_interrupt>
      24:	0c 94 51 00 	jmp	0xa2	; 0xa2 <__bad_interrupt>
      28:	0c 94 51 00 	jmp	0xa2	; 0xa2 <__bad_interrupt>
      2c:	0c 94 51 00 	jmp	0xa2	; 0xa2 <__bad_interrupt>
      30:	0c 94 51 00 	jmp	0xa2	; 0xa2 <__bad_interrupt>
      34:	0c 94 51 00 	jmp	0xa2	; 0xa2 <__bad_interrupt>
      38:	0c 94 51 00 	jmp	0xa2	; 0xa2 <__bad_interrupt>
      3c:	0c 94 51 00 	jmp	0xa2	; 0xa2 <__bad_interrupt>
      40:	0c 94 9e 00 	jmp	0x13c	; 0x13c <__vector_16>
      44:	0c 94 51 00 	jmp	0xa2	; 0xa2 <__bad_interrupt>
      48:	0c 94 51 00 	jmp	0xa2	; 0xa2 <__bad_interrupt>
      4c:	0c 94 51 00 	jmp	0xa2	; 0xa2 <__bad_interrupt>
      50:	0c 94 51 00 	jmp	0xa2	; 0xa2 <__bad_interrupt>
      54:	0c 94 51 00 	jmp	0xa2	; 0xa2 <__bad_interrupt>
      58:	0c 94 51 00 	jmp	0xa2	; 0xa2 <__bad_interrupt>
      5c:	0c 94 51 00 	jmp	0xa2	; 0xa2 <__bad_interrupt>
      60:	0c 94 51 00 	jmp	0xa2	; 0xa2 <__bad_interrupt>
      64:	0c 94 51 00 	jmp	0xa2	; 0xa2 <__bad_interrupt>

00000068 <__ctors_end>:
      68:	11 24       	eor	r1, r1
      6a:	1f be       	out	0x3f, r1	; 63
      6c:	cf ef       	ldi	r28, 0xFF	; 255
      6e:	d8 e0       	ldi	r29, 0x08	; 8
      70:	de bf       	out	0x3e, r29	; 62
      72:	cd bf       	out	0x3d, r28	; 61

00000074 <__do_copy_data>:
      74:	12 e0       	ldi	r17, 0x02	; 2
      76:	a0 e0       	ldi	r26, 0x00	; 0
      78:	b1 e0       	ldi	r27, 0x01	; 1
      7a:	ee e1       	ldi	r30, 0x1E	; 30
      7c:	fa e6       	ldi	r31, 0x6A	; 106
      7e:	02 c0       	rjmp	.+4      	; 0x84 <__do_copy_data+0x10>
      80:	05 90       	lpm	r0, Z+
      82:	0d 92       	st	X+, r0
      84:	a8 33       	cpi	r26, 0x38	; 56
      86:	b1 07       	cpc	r27, r17
      88:	d9 f7       	brne	.-10     	; 0x80 <__do_copy_data+0xc>

0000008a <__do_clear_bss>:
      8a:	22 e0       	ldi	r18, 0x02	; 2
      8c:	a8 e3       	ldi	r26, 0x38	; 56
      8e:	b2 e0       	ldi	r27, 0x02	; 2
      90:	01 c0       	rjmp	.+2      	; 0x94 <.do_clear_bss_start>

00000092 <.do_clear_bss_loop>:
      92:	1d 92       	st	X+, r1

00000094 <.do_clear_bss_start>:
      94:	ad 35       	cpi	r26, 0x5D	; 93
      96:	b2 07       	cpc	r27, r18
      98:	e1 f7       	brne	.-8      	; 0x92 <.do_clear_bss_loop>
      9a:	0e 94 cb 00 	call	0x196	; 0x196 <main>
      9e:	0c 94 0d 35 	jmp	0x6a1a	; 0x6a1a <_exit>

000000a2 <__bad_interrupt>:
      a2:	0c 94 00 00 	jmp	0	; 0x0 <__vectors>

000000a6 <system_tick>:
      a6:	af 92       	push	r10
      a8:	bf 92       	push	r11
      aa:	cf 92       	push	r12
      ac:	df 92       	push	r13
      ae:	ef 92       	push	r14
      b0:	ff 92       	push	r15
      b2:	0f 93       	push	r16
      b4:	1f 93       	push	r17
      b6:	cf 93       	push	r28
      b8:	df 93       	push	r29
      ba:	cd b7       	in	r28, 0x3d	; 61
      bc:	de b7       	in	r29, 0x3e	; 62
      be:	a0 90 45 02 	lds	r10, 0x0245	; 0x800245 <__jiffies>
      c2:	b0 90 46 02 	lds	r11, 0x0246	; 0x800246 <__jiffies+0x1>
      c6:	c0 90 47 02 	lds	r12, 0x0247	; 0x800247 <__jiffies+0x2>
      ca:	d0 90 48 02 	lds	r13, 0x0248	; 0x800248 <__jiffies+0x3>
      ce:	e0 90 49 02 	lds	r14, 0x0249	; 0x800249 <__jiffies+0x4>
      d2:	f0 90 4a 02 	lds	r15, 0x024A	; 0x80024a <__jiffies+0x5>
      d6:	00 91 4b 02 	lds	r16, 0x024B	; 0x80024b <__jiffies+0x6>
      da:	10 91 4c 02 	lds	r17, 0x024C	; 0x80024c <__jiffies+0x7>
      de:	2a 2d       	mov	r18, r10
      e0:	3b 2d       	mov	r19, r11
      e2:	4c 2d       	mov	r20, r12
      e4:	5d 2d       	mov	r21, r13
      e6:	6e 2d       	mov	r22, r14
      e8:	7f 2d       	mov	r23, r15
      ea:	80 2f       	mov	r24, r16
      ec:	91 2f       	mov	r25, r17
      ee:	a1 e0       	ldi	r26, 0x01	; 1
      f0:	0e 94 c1 31 	call	0x6382	; 0x6382 <__adddi3_s8>
      f4:	a2 2e       	mov	r10, r18
      f6:	b3 2e       	mov	r11, r19
      f8:	c4 2e       	mov	r12, r20
      fa:	d5 2e       	mov	r13, r21
      fc:	e6 2e       	mov	r14, r22
      fe:	f7 2e       	mov	r15, r23
     100:	08 2f       	mov	r16, r24
     102:	19 2f       	mov	r17, r25
     104:	a0 92 45 02 	sts	0x0245, r10	; 0x800245 <__jiffies>
     108:	b0 92 46 02 	sts	0x0246, r11	; 0x800246 <__jiffies+0x1>
     10c:	c0 92 47 02 	sts	0x0247, r12	; 0x800247 <__jiffies+0x2>
     110:	d0 92 48 02 	sts	0x0248, r13	; 0x800248 <__jiffies+0x3>
     114:	e0 92 49 02 	sts	0x0249, r14	; 0x800249 <__jiffies+0x4>
     118:	f0 92 4a 02 	sts	0x024A, r15	; 0x80024a <__jiffies+0x5>
     11c:	00 93 4b 02 	sts	0x024B, r16	; 0x80024b <__jiffies+0x6>
     120:	10 93 4c 02 	sts	0x024C, r17	; 0x80024c <__jiffies+0x7>
     124:	00 00       	nop
     126:	df 91       	pop	r29
     128:	cf 91       	pop	r28
     12a:	1f 91       	pop	r17
     12c:	0f 91       	pop	r16
     12e:	ff 90       	pop	r15
     130:	ef 90       	pop	r14
     132:	df 90       	pop	r13
     134:	cf 90       	pop	r12
     136:	bf 90       	pop	r11
     138:	af 90       	pop	r10
     13a:	08 95       	ret

0000013c <__vector_16>:
     13c:	1f 92       	push	r1
     13e:	0f 92       	push	r0
     140:	00 90 5f 00 	lds	r0, 0x005F	; 0x80005f <__TEXT_REGION_LENGTH__+0x7e005f>
     144:	0f 92       	push	r0
     146:	11 24       	eor	r1, r1
     148:	2f 93       	push	r18
     14a:	3f 93       	push	r19
     14c:	4f 93       	push	r20
     14e:	5f 93       	push	r21
     150:	6f 93       	push	r22
     152:	7f 93       	push	r23
     154:	8f 93       	push	r24
     156:	9f 93       	push	r25
     158:	af 93       	push	r26
     15a:	bf 93       	push	r27
     15c:	ef 93       	push	r30
     15e:	ff 93       	push	r31
     160:	cf 93       	push	r28
     162:	df 93       	push	r29
     164:	cd b7       	in	r28, 0x3d	; 61
     166:	de b7       	in	r29, 0x3e	; 62
     168:	0e 94 53 00 	call	0xa6	; 0xa6 <system_tick>
     16c:	00 00       	nop
     16e:	df 91       	pop	r29
     170:	cf 91       	pop	r28
     172:	ff 91       	pop	r31
     174:	ef 91       	pop	r30
     176:	bf 91       	pop	r27
     178:	af 91       	pop	r26
     17a:	9f 91       	pop	r25
     17c:	8f 91       	pop	r24
     17e:	7f 91       	pop	r23
     180:	6f 91       	pop	r22
     182:	5f 91       	pop	r21
     184:	4f 91       	pop	r20
     186:	3f 91       	pop	r19
     188:	2f 91       	pop	r18
     18a:	0f 90       	pop	r0
     18c:	00 92 5f 00 	sts	0x005F, r0	; 0x80005f <__TEXT_REGION_LENGTH__+0x7e005f>
     190:	0f 90       	pop	r0
     192:	1f 90       	pop	r1
     194:	18 95       	reti

00000196 <main>:
     196:	cf 93       	push	r28
     198:	df 93       	push	r29
     19a:	cd b7       	in	r28, 0x3d	; 61
     19c:	de b7       	in	r29, 0x3e	; 62
     19e:	ff cf       	rjmp	.-2      	; 0x19e <main+0x8>

000001a0 <irqs_save>:
     1a0:	cf 93       	push	r28
     1a2:	df 93       	push	r29
     1a4:	1f 92       	push	r1
     1a6:	cd b7       	in	r28, 0x3d	; 61
     1a8:	de b7       	in	r29, 0x3e	; 62
     1aa:	8f e5       	ldi	r24, 0x5F	; 95
     1ac:	90 e0       	ldi	r25, 0x00	; 0
     1ae:	fc 01       	movw	r30, r24
     1b0:	80 81       	ld	r24, Z
     1b2:	89 83       	std	Y+1, r24	; 0x01
     1b4:	f8 94       	cli
     1b6:	89 81       	ldd	r24, Y+1	; 0x01
     1b8:	0f 90       	pop	r0
     1ba:	df 91       	pop	r29
     1bc:	cf 91       	pop	r28
     1be:	08 95       	ret

000001c0 <irqs_restore>:
     1c0:	cf 93       	push	r28
     1c2:	df 93       	push	r29
     1c4:	1f 92       	push	r1
     1c6:	cd b7       	in	r28, 0x3d	; 61
     1c8:	de b7       	in	r29, 0x3e	; 62
     1ca:	89 83       	std	Y+1, r24	; 0x01
     1cc:	8f e5       	ldi	r24, 0x5F	; 95
     1ce:	90 e0       	ldi	r25, 0x00	; 0
     1d0:	29 81       	ldd	r18, Y+1	; 0x01
     1d2:	fc 01       	movw	r30, r24
     1d4:	20 83       	st	Z, r18
     1d6:	00 00       	nop
     1d8:	0f 90       	pop	r0
     1da:	df 91       	pop	r29
     1dc:	cf 91       	pop	r28
     1de:	08 95       	ret

000001e0 <system_lock>:
     1e0:	cf 93       	push	r28
     1e2:	df 93       	push	r29
     1e4:	1f 92       	push	r1
     1e6:	cd b7       	in	r28, 0x3d	; 61
     1e8:	de b7       	in	r29, 0x3e	; 62
     1ea:	0e 94 d0 00 	call	0x1a0	; 0x1a0 <irqs_save>
     1ee:	89 83       	std	Y+1, r24	; 0x01
     1f0:	80 91 39 02 	lds	r24, 0x0239	; 0x800239 <_ZL5count>
     1f4:	90 91 3a 02 	lds	r25, 0x023A	; 0x80023a <_ZL5count+0x1>
     1f8:	21 e0       	ldi	r18, 0x01	; 1
     1fa:	89 2b       	or	r24, r25
     1fc:	09 f0       	breq	.+2      	; 0x200 <system_lock+0x20>
     1fe:	20 e0       	ldi	r18, 0x00	; 0
     200:	22 23       	and	r18, r18
     202:	19 f0       	breq	.+6      	; 0x20a <system_lock+0x2a>
     204:	89 81       	ldd	r24, Y+1	; 0x01
     206:	80 93 38 02 	sts	0x0238, r24	; 0x800238 <__data_end>
     20a:	80 91 39 02 	lds	r24, 0x0239	; 0x800239 <_ZL5count>
     20e:	90 91 3a 02 	lds	r25, 0x023A	; 0x80023a <_ZL5count+0x1>
     212:	01 96       	adiw	r24, 0x01	; 1
     214:	90 93 3a 02 	sts	0x023A, r25	; 0x80023a <_ZL5count+0x1>
     218:	80 93 39 02 	sts	0x0239, r24	; 0x800239 <_ZL5count>
     21c:	80 91 39 02 	lds	r24, 0x0239	; 0x800239 <_ZL5count>
     220:	90 91 3a 02 	lds	r25, 0x023A	; 0x80023a <_ZL5count+0x1>
     224:	0a 97       	sbiw	r24, 0x0a	; 10
     226:	14 f0       	brlt	.+4      	; 0x22c <system_lock+0x4c>
     228:	0e 94 cd 34 	call	0x699a	; 0x699a <abort>
     22c:	00 00       	nop
     22e:	0f 90       	pop	r0
     230:	df 91       	pop	r29
     232:	cf 91       	pop	r28
     234:	08 95       	ret

00000236 <system_unlock>:
     236:	cf 93       	push	r28
     238:	df 93       	push	r29
     23a:	cd b7       	in	r28, 0x3d	; 61
     23c:	de b7       	in	r29, 0x3e	; 62
     23e:	80 91 39 02 	lds	r24, 0x0239	; 0x800239 <_ZL5count>
     242:	90 91 3a 02 	lds	r25, 0x023A	; 0x80023a <_ZL5count+0x1>
     246:	01 97       	sbiw	r24, 0x01	; 1
     248:	90 93 3a 02 	sts	0x023A, r25	; 0x80023a <_ZL5count+0x1>
     24c:	80 93 39 02 	sts	0x0239, r24	; 0x800239 <_ZL5count>
     250:	80 91 39 02 	lds	r24, 0x0239	; 0x800239 <_ZL5count>
     254:	90 91 3a 02 	lds	r25, 0x023A	; 0x80023a <_ZL5count+0x1>
     258:	99 23       	and	r25, r25
     25a:	14 f4       	brge	.+4      	; 0x260 <system_unlock+0x2a>
     25c:	0e 94 cd 34 	call	0x699a	; 0x699a <abort>
     260:	80 91 39 02 	lds	r24, 0x0239	; 0x800239 <_ZL5count>
     264:	90 91 3a 02 	lds	r25, 0x023A	; 0x80023a <_ZL5count+0x1>
     268:	21 e0       	ldi	r18, 0x01	; 1
     26a:	89 2b       	or	r24, r25
     26c:	09 f0       	breq	.+2      	; 0x270 <system_unlock+0x3a>
     26e:	20 e0       	ldi	r18, 0x00	; 0
     270:	22 23       	and	r18, r18
     272:	21 f0       	breq	.+8      	; 0x27c <system_unlock+0x46>
     274:	80 91 38 02 	lds	r24, 0x0238	; 0x800238 <__data_end>
     278:	0e 94 e0 00 	call	0x1c0	; 0x1c0 <irqs_restore>
     27c:	00 00       	nop
     27e:	df 91       	pop	r29
     280:	cf 91       	pop	r28
     282:	08 95       	ret

00000284 <syslock_reset>:
     284:	cf 93       	push	r28
     286:	df 93       	push	r29
     288:	cd b7       	in	r28, 0x3d	; 61
     28a:	de b7       	in	r29, 0x3e	; 62
     28c:	10 92 3a 02 	sts	0x023A, r1	; 0x80023a <_ZL5count+0x1>
     290:	10 92 39 02 	sts	0x0239, r1	; 0x800239 <_ZL5count>
     294:	00 00       	nop
     296:	df 91       	pop	r29
     298:	cf 91       	pop	r28
     29a:	08 95       	ret

0000029c <syslock_counter>:
     29c:	cf 93       	push	r28
     29e:	df 93       	push	r29
     2a0:	cd b7       	in	r28, 0x3d	; 61
     2a2:	de b7       	in	r29, 0x3e	; 62
     2a4:	80 91 39 02 	lds	r24, 0x0239	; 0x800239 <_ZL5count>
     2a8:	90 91 3a 02 	lds	r25, 0x023A	; 0x80023a <_ZL5count+0x1>
     2ac:	df 91       	pop	r29
     2ae:	cf 91       	pop	r28
     2b0:	08 95       	ret

000002b2 <syslock_counter_set>:
     2b2:	cf 93       	push	r28
     2b4:	df 93       	push	r29
     2b6:	00 d0       	rcall	.+0      	; 0x2b8 <syslock_counter_set+0x6>
     2b8:	cd b7       	in	r28, 0x3d	; 61
     2ba:	de b7       	in	r29, 0x3e	; 62
     2bc:	9a 83       	std	Y+2, r25	; 0x02
     2be:	89 83       	std	Y+1, r24	; 0x01
     2c0:	89 81       	ldd	r24, Y+1	; 0x01
     2c2:	9a 81       	ldd	r25, Y+2	; 0x02
     2c4:	90 93 3a 02 	sts	0x023A, r25	; 0x80023a <_ZL5count+0x1>
     2c8:	80 93 39 02 	sts	0x0239, r24	; 0x800239 <_ZL5count>
     2cc:	00 00       	nop
     2ce:	0f 90       	pop	r0
     2d0:	0f 90       	pop	r0
     2d2:	df 91       	pop	r29
     2d4:	cf 91       	pop	r28
     2d6:	08 95       	ret

000002d8 <debug_putchar>:
     2d8:	cf 93       	push	r28
     2da:	df 93       	push	r29
     2dc:	1f 92       	push	r1
     2de:	cd b7       	in	r28, 0x3d	; 61
     2e0:	de b7       	in	r29, 0x3e	; 62
     2e2:	89 83       	std	Y+1, r24	; 0x01
     2e4:	89 81       	ldd	r24, Y+1	; 0x01
     2e6:	0e 94 9c 23 	call	0x4738	; 0x4738 <diag_putc>
     2ea:	00 00       	nop
     2ec:	0f 90       	pop	r0
     2ee:	df 91       	pop	r29
     2f0:	cf 91       	pop	r28
     2f2:	08 95       	ret

000002f4 <debug_write>:
     2f4:	cf 93       	push	r28
     2f6:	df 93       	push	r29
     2f8:	00 d0       	rcall	.+0      	; 0x2fa <debug_write+0x6>
     2fa:	00 d0       	rcall	.+0      	; 0x2fc <debug_write+0x8>
     2fc:	cd b7       	in	r28, 0x3d	; 61
     2fe:	de b7       	in	r29, 0x3e	; 62
     300:	9a 83       	std	Y+2, r25	; 0x02
     302:	89 83       	std	Y+1, r24	; 0x01
     304:	7c 83       	std	Y+4, r23	; 0x04
     306:	6b 83       	std	Y+3, r22	; 0x03
     308:	2b 81       	ldd	r18, Y+3	; 0x03
     30a:	3c 81       	ldd	r19, Y+4	; 0x04
     30c:	89 81       	ldd	r24, Y+1	; 0x01
     30e:	9a 81       	ldd	r25, Y+2	; 0x02
     310:	b9 01       	movw	r22, r18
     312:	0e 94 da 23 	call	0x47b4	; 0x47b4 <diag_write>
     316:	00 00       	nop
     318:	0f 90       	pop	r0
     31a:	0f 90       	pop	r0
     31c:	0f 90       	pop	r0
     31e:	0f 90       	pop	r0
     320:	df 91       	pop	r29
     322:	cf 91       	pop	r28
     324:	08 95       	ret

00000326 <hex2half>:
     326:	cf 93       	push	r28
     328:	df 93       	push	r29
     32a:	1f 92       	push	r1
     32c:	cd b7       	in	r28, 0x3d	; 61
     32e:	de b7       	in	r29, 0x3e	; 62
     330:	89 83       	std	Y+1, r24	; 0x01
     332:	89 81       	ldd	r24, Y+1	; 0x01
     334:	8a 33       	cpi	r24, 0x3A	; 58
     336:	1c f4       	brge	.+6      	; 0x33e <hex2half+0x18>
     338:	89 81       	ldd	r24, Y+1	; 0x01
     33a:	80 53       	subi	r24, 0x30	; 48
     33c:	02 c0       	rjmp	.+4      	; 0x342 <hex2half+0x1c>
     33e:	89 81       	ldd	r24, Y+1	; 0x01
     340:	87 53       	subi	r24, 0x37	; 55
     342:	0f 90       	pop	r0
     344:	df 91       	pop	r29
     346:	cf 91       	pop	r28
     348:	08 95       	ret

0000034a <i64toa>:
     34a:	2f 92       	push	r2
     34c:	3f 92       	push	r3
     34e:	4f 92       	push	r4
     350:	5f 92       	push	r5
     352:	6f 92       	push	r6
     354:	7f 92       	push	r7
     356:	8f 92       	push	r8
     358:	9f 92       	push	r9
     35a:	af 92       	push	r10
     35c:	bf 92       	push	r11
     35e:	cf 92       	push	r12
     360:	df 92       	push	r13
     362:	ef 92       	push	r14
     364:	ff 92       	push	r15
     366:	0f 93       	push	r16
     368:	1f 93       	push	r17
     36a:	cf 93       	push	r28
     36c:	df 93       	push	r29
     36e:	cd b7       	in	r28, 0x3d	; 61
     370:	de b7       	in	r29, 0x3e	; 62
     372:	6c 97       	sbiw	r28, 0x1c	; 28
     374:	0f b6       	in	r0, 0x3f	; 63
     376:	f8 94       	cli
     378:	de bf       	out	0x3e, r29	; 62
     37a:	0f be       	out	0x3f, r0	; 63
     37c:	cd bf       	out	0x3d, r28	; 61
     37e:	2a 8b       	std	Y+18, r18	; 0x12
     380:	3b 8b       	std	Y+19, r19	; 0x13
     382:	4c 8b       	std	Y+20, r20	; 0x14
     384:	5d 8b       	std	Y+21, r21	; 0x15
     386:	6e 8b       	std	Y+22, r22	; 0x16
     388:	7f 8b       	std	Y+23, r23	; 0x17
     38a:	88 8f       	std	Y+24, r24	; 0x18
     38c:	99 8f       	std	Y+25, r25	; 0x19
     38e:	1b 8f       	std	Y+27, r17	; 0x1b
     390:	0a 8f       	std	Y+26, r16	; 0x1a
     392:	ec 8e       	std	Y+28, r14	; 0x1c
     394:	8a 8d       	ldd	r24, Y+26	; 0x1a
     396:	9b 8d       	ldd	r25, Y+27	; 0x1b
     398:	9a 83       	std	Y+2, r25	; 0x02
     39a:	89 83       	std	Y+1, r24	; 0x01
     39c:	1f 82       	std	Y+7, r1	; 0x07
     39e:	18 86       	std	Y+8, r1	; 0x08
     3a0:	19 86       	std	Y+9, r1	; 0x09
     3a2:	1a 86       	std	Y+10, r1	; 0x0a
     3a4:	1b 86       	std	Y+11, r1	; 0x0b
     3a6:	1c 86       	std	Y+12, r1	; 0x0c
     3a8:	1d 86       	std	Y+13, r1	; 0x0d
     3aa:	1e 86       	std	Y+14, r1	; 0x0e
     3ac:	8a 8d       	ldd	r24, Y+26	; 0x1a
     3ae:	9b 8d       	ldd	r25, Y+27	; 0x1b
     3b0:	fc 01       	movw	r30, r24
     3b2:	10 82       	st	Z, r1
     3b4:	8a 8d       	ldd	r24, Y+26	; 0x1a
     3b6:	9b 8d       	ldd	r25, Y+27	; 0x1b
     3b8:	9c 83       	std	Y+4, r25	; 0x04
     3ba:	8b 83       	std	Y+3, r24	; 0x03
     3bc:	8c 8d       	ldd	r24, Y+28	; 0x1c
     3be:	82 30       	cpi	r24, 0x02	; 2
     3c0:	18 f0       	brcs	.+6      	; 0x3c8 <i64toa+0x7e>
     3c2:	8c 8d       	ldd	r24, Y+28	; 0x1c
     3c4:	85 32       	cpi	r24, 0x25	; 37
     3c6:	18 f0       	brcs	.+6      	; 0x3ce <i64toa+0x84>
     3c8:	8a 8d       	ldd	r24, Y+26	; 0x1a
     3ca:	9b 8d       	ldd	r25, Y+27	; 0x1b
     3cc:	05 c1       	rjmp	.+522    	; 0x5d8 <__LOCK_REGION_LENGTH__+0x1d8>
     3ce:	aa 88       	ldd	r10, Y+18	; 0x12
     3d0:	bb 88       	ldd	r11, Y+19	; 0x13
     3d2:	cc 88       	ldd	r12, Y+20	; 0x14
     3d4:	dd 88       	ldd	r13, Y+21	; 0x15
     3d6:	ee 88       	ldd	r14, Y+22	; 0x16
     3d8:	ff 88       	ldd	r15, Y+23	; 0x17
     3da:	08 8d       	ldd	r16, Y+24	; 0x18
     3dc:	19 8d       	ldd	r17, Y+25	; 0x19
     3de:	2a 2d       	mov	r18, r10
     3e0:	3b 2d       	mov	r19, r11
     3e2:	4c 2d       	mov	r20, r12
     3e4:	5d 2d       	mov	r21, r13
     3e6:	6e 2d       	mov	r22, r14
     3e8:	7f 2d       	mov	r23, r15
     3ea:	80 2f       	mov	r24, r16
     3ec:	91 2f       	mov	r25, r17
     3ee:	a0 e0       	ldi	r26, 0x00	; 0
     3f0:	0e 94 df 31 	call	0x63be	; 0x63be <__cmpdi2_s8>
     3f4:	54 f5       	brge	.+84     	; 0x44a <__LOCK_REGION_LENGTH__+0x4a>
     3f6:	89 81       	ldd	r24, Y+1	; 0x01
     3f8:	9a 81       	ldd	r25, Y+2	; 0x02
     3fa:	9c 01       	movw	r18, r24
     3fc:	2f 5f       	subi	r18, 0xFF	; 255
     3fe:	3f 4f       	sbci	r19, 0xFF	; 255
     400:	3a 83       	std	Y+2, r19	; 0x02
     402:	29 83       	std	Y+1, r18	; 0x01
     404:	2d e2       	ldi	r18, 0x2D	; 45
     406:	fc 01       	movw	r30, r24
     408:	20 83       	st	Z, r18
     40a:	8b 81       	ldd	r24, Y+3	; 0x03
     40c:	9c 81       	ldd	r25, Y+4	; 0x04
     40e:	01 96       	adiw	r24, 0x01	; 1
     410:	9c 83       	std	Y+4, r25	; 0x04
     412:	8b 83       	std	Y+3, r24	; 0x03
     414:	2a 89       	ldd	r18, Y+18	; 0x12
     416:	3b 89       	ldd	r19, Y+19	; 0x13
     418:	4c 89       	ldd	r20, Y+20	; 0x14
     41a:	5d 89       	ldd	r21, Y+21	; 0x15
     41c:	6e 89       	ldd	r22, Y+22	; 0x16
     41e:	7f 89       	ldd	r23, Y+23	; 0x17
     420:	88 8d       	ldd	r24, Y+24	; 0x18
     422:	99 8d       	ldd	r25, Y+25	; 0x19
     424:	0e 94 71 31 	call	0x62e2	; 0x62e2 <__negdi2>
     428:	a2 2e       	mov	r10, r18
     42a:	b3 2e       	mov	r11, r19
     42c:	c4 2e       	mov	r12, r20
     42e:	d5 2e       	mov	r13, r21
     430:	e6 2e       	mov	r14, r22
     432:	f7 2e       	mov	r15, r23
     434:	08 2f       	mov	r16, r24
     436:	19 2f       	mov	r17, r25
     438:	af 82       	std	Y+7, r10	; 0x07
     43a:	b8 86       	std	Y+8, r11	; 0x08
     43c:	c9 86       	std	Y+9, r12	; 0x09
     43e:	da 86       	std	Y+10, r13	; 0x0a
     440:	eb 86       	std	Y+11, r14	; 0x0b
     442:	fc 86       	std	Y+12, r15	; 0x0c
     444:	0d 87       	std	Y+13, r16	; 0x0d
     446:	1e 87       	std	Y+14, r17	; 0x0e
     448:	10 c0       	rjmp	.+32     	; 0x46a <__LOCK_REGION_LENGTH__+0x6a>
     44a:	8a 89       	ldd	r24, Y+18	; 0x12
     44c:	8f 83       	std	Y+7, r24	; 0x07
     44e:	8b 89       	ldd	r24, Y+19	; 0x13
     450:	88 87       	std	Y+8, r24	; 0x08
     452:	8c 89       	ldd	r24, Y+20	; 0x14
     454:	89 87       	std	Y+9, r24	; 0x09
     456:	8d 89       	ldd	r24, Y+21	; 0x15
     458:	8a 87       	std	Y+10, r24	; 0x0a
     45a:	8e 89       	ldd	r24, Y+22	; 0x16
     45c:	8b 87       	std	Y+11, r24	; 0x0b
     45e:	8f 89       	ldd	r24, Y+23	; 0x17
     460:	8c 87       	std	Y+12, r24	; 0x0c
     462:	88 8d       	ldd	r24, Y+24	; 0x18
     464:	8d 87       	std	Y+13, r24	; 0x0d
     466:	89 8d       	ldd	r24, Y+25	; 0x19
     468:	8e 87       	std	Y+14, r24	; 0x0e
     46a:	18 8a       	std	Y+16, r1	; 0x10
     46c:	1f 86       	std	Y+15, r1	; 0x0f
     46e:	8c 8d       	ldd	r24, Y+28	; 0x1c
     470:	28 2f       	mov	r18, r24
     472:	30 e0       	ldi	r19, 0x00	; 0
     474:	40 e0       	ldi	r20, 0x00	; 0
     476:	50 e0       	ldi	r21, 0x00	; 0
     478:	60 e0       	ldi	r22, 0x00	; 0
     47a:	70 e0       	ldi	r23, 0x00	; 0
     47c:	cb 01       	movw	r24, r22
     47e:	2f 80       	ldd	r2, Y+7	; 0x07
     480:	38 84       	ldd	r3, Y+8	; 0x08
     482:	49 84       	ldd	r4, Y+9	; 0x09
     484:	5a 84       	ldd	r5, Y+10	; 0x0a
     486:	6b 84       	ldd	r6, Y+11	; 0x0b
     488:	7c 84       	ldd	r7, Y+12	; 0x0c
     48a:	8d 84       	ldd	r8, Y+13	; 0x0d
     48c:	9e 84       	ldd	r9, Y+14	; 0x0e
     48e:	a2 2e       	mov	r10, r18
     490:	b3 2e       	mov	r11, r19
     492:	c4 2e       	mov	r12, r20
     494:	d5 2e       	mov	r13, r21
     496:	e6 2e       	mov	r14, r22
     498:	f7 2e       	mov	r15, r23
     49a:	08 2f       	mov	r16, r24
     49c:	19 2f       	mov	r17, r25
     49e:	22 2d       	mov	r18, r2
     4a0:	33 2d       	mov	r19, r3
     4a2:	44 2d       	mov	r20, r4
     4a4:	55 2d       	mov	r21, r5
     4a6:	66 2d       	mov	r22, r6
     4a8:	77 2d       	mov	r23, r7
     4aa:	88 2d       	mov	r24, r8
     4ac:	99 2d       	mov	r25, r9
     4ae:	0e 94 12 31 	call	0x6224	; 0x6224 <__umoddi3>
     4b2:	a2 2e       	mov	r10, r18
     4b4:	b3 2e       	mov	r11, r19
     4b6:	c4 2e       	mov	r12, r20
     4b8:	d5 2e       	mov	r13, r21
     4ba:	e6 2e       	mov	r14, r22
     4bc:	f7 2e       	mov	r15, r23
     4be:	08 2f       	mov	r16, r24
     4c0:	19 2f       	mov	r17, r25
     4c2:	2a 2d       	mov	r18, r10
     4c4:	3b 2d       	mov	r19, r11
     4c6:	4c 2d       	mov	r20, r12
     4c8:	5d 2d       	mov	r21, r13
     4ca:	6e 2d       	mov	r22, r14
     4cc:	7f 2d       	mov	r23, r15
     4ce:	80 2f       	mov	r24, r16
     4d0:	91 2f       	mov	r25, r17
     4d2:	38 8b       	std	Y+16, r19	; 0x10
     4d4:	2f 87       	std	Y+15, r18	; 0x0f
     4d6:	89 81       	ldd	r24, Y+1	; 0x01
     4d8:	9a 81       	ldd	r25, Y+2	; 0x02
     4da:	9c 01       	movw	r18, r24
     4dc:	2f 5f       	subi	r18, 0xFF	; 255
     4de:	3f 4f       	sbci	r19, 0xFF	; 255
     4e0:	3a 83       	std	Y+2, r19	; 0x02
     4e2:	29 83       	std	Y+1, r18	; 0x01
     4e4:	2f 85       	ldd	r18, Y+15	; 0x0f
     4e6:	38 89       	ldd	r19, Y+16	; 0x10
     4e8:	2a 30       	cpi	r18, 0x0A	; 10
     4ea:	31 05       	cpc	r19, r1
     4ec:	1c f4       	brge	.+6      	; 0x4f4 <__LOCK_REGION_LENGTH__+0xf4>
     4ee:	2f 85       	ldd	r18, Y+15	; 0x0f
     4f0:	20 5d       	subi	r18, 0xD0	; 208
     4f2:	02 c0       	rjmp	.+4      	; 0x4f8 <__LOCK_REGION_LENGTH__+0xf8>
     4f4:	2f 85       	ldd	r18, Y+15	; 0x0f
     4f6:	29 5a       	subi	r18, 0xA9	; 169
     4f8:	fc 01       	movw	r30, r24
     4fa:	20 83       	st	Z, r18
     4fc:	8c 8d       	ldd	r24, Y+28	; 0x1c
     4fe:	28 2f       	mov	r18, r24
     500:	30 e0       	ldi	r19, 0x00	; 0
     502:	40 e0       	ldi	r20, 0x00	; 0
     504:	50 e0       	ldi	r21, 0x00	; 0
     506:	60 e0       	ldi	r22, 0x00	; 0
     508:	70 e0       	ldi	r23, 0x00	; 0
     50a:	cb 01       	movw	r24, r22
     50c:	a2 2e       	mov	r10, r18
     50e:	b3 2e       	mov	r11, r19
     510:	c4 2e       	mov	r12, r20
     512:	d5 2e       	mov	r13, r21
     514:	e6 2e       	mov	r14, r22
     516:	f7 2e       	mov	r15, r23
     518:	08 2f       	mov	r16, r24
     51a:	19 2f       	mov	r17, r25
     51c:	2f 81       	ldd	r18, Y+7	; 0x07
     51e:	38 85       	ldd	r19, Y+8	; 0x08
     520:	49 85       	ldd	r20, Y+9	; 0x09
     522:	5a 85       	ldd	r21, Y+10	; 0x0a
     524:	6b 85       	ldd	r22, Y+11	; 0x0b
     526:	7c 85       	ldd	r23, Y+12	; 0x0c
     528:	8d 85       	ldd	r24, Y+13	; 0x0d
     52a:	9e 85       	ldd	r25, Y+14	; 0x0e
     52c:	0e 94 14 31 	call	0x6228	; 0x6228 <__udivdi3>
     530:	a2 2e       	mov	r10, r18
     532:	b3 2e       	mov	r11, r19
     534:	c4 2e       	mov	r12, r20
     536:	d5 2e       	mov	r13, r21
     538:	e6 2e       	mov	r14, r22
     53a:	f7 2e       	mov	r15, r23
     53c:	08 2f       	mov	r16, r24
     53e:	19 2f       	mov	r17, r25
     540:	af 82       	std	Y+7, r10	; 0x07
     542:	b8 86       	std	Y+8, r11	; 0x08
     544:	c9 86       	std	Y+9, r12	; 0x09
     546:	da 86       	std	Y+10, r13	; 0x0a
     548:	eb 86       	std	Y+11, r14	; 0x0b
     54a:	fc 86       	std	Y+12, r15	; 0x0c
     54c:	0d 87       	std	Y+13, r16	; 0x0d
     54e:	1e 87       	std	Y+14, r17	; 0x0e
     550:	af 80       	ldd	r10, Y+7	; 0x07
     552:	b8 84       	ldd	r11, Y+8	; 0x08
     554:	c9 84       	ldd	r12, Y+9	; 0x09
     556:	da 84       	ldd	r13, Y+10	; 0x0a
     558:	eb 84       	ldd	r14, Y+11	; 0x0b
     55a:	fc 84       	ldd	r15, Y+12	; 0x0c
     55c:	0d 85       	ldd	r16, Y+13	; 0x0d
     55e:	1e 85       	ldd	r17, Y+14	; 0x0e
     560:	2a 2d       	mov	r18, r10
     562:	3b 2d       	mov	r19, r11
     564:	4c 2d       	mov	r20, r12
     566:	5d 2d       	mov	r21, r13
     568:	6e 2d       	mov	r22, r14
     56a:	7f 2d       	mov	r23, r15
     56c:	80 2f       	mov	r24, r16
     56e:	91 2f       	mov	r25, r17
     570:	a0 e0       	ldi	r26, 0x00	; 0
     572:	0e 94 df 31 	call	0x63be	; 0x63be <__cmpdi2_s8>
     576:	09 f0       	breq	.+2      	; 0x57a <__LOCK_REGION_LENGTH__+0x17a>
     578:	7a cf       	rjmp	.-268    	; 0x46e <__LOCK_REGION_LENGTH__+0x6e>
     57a:	89 81       	ldd	r24, Y+1	; 0x01
     57c:	9a 81       	ldd	r25, Y+2	; 0x02
     57e:	fc 01       	movw	r30, r24
     580:	10 82       	st	Z, r1
     582:	89 81       	ldd	r24, Y+1	; 0x01
     584:	9a 81       	ldd	r25, Y+2	; 0x02
     586:	01 97       	sbiw	r24, 0x01	; 1
     588:	9e 83       	std	Y+6, r25	; 0x06
     58a:	8d 83       	std	Y+5, r24	; 0x05
     58c:	1c c0       	rjmp	.+56     	; 0x5c6 <__LOCK_REGION_LENGTH__+0x1c6>
     58e:	8b 81       	ldd	r24, Y+3	; 0x03
     590:	9c 81       	ldd	r25, Y+4	; 0x04
     592:	fc 01       	movw	r30, r24
     594:	80 81       	ld	r24, Z
     596:	89 8b       	std	Y+17, r24	; 0x11
     598:	8d 81       	ldd	r24, Y+5	; 0x05
     59a:	9e 81       	ldd	r25, Y+6	; 0x06
     59c:	fc 01       	movw	r30, r24
     59e:	20 81       	ld	r18, Z
     5a0:	8b 81       	ldd	r24, Y+3	; 0x03
     5a2:	9c 81       	ldd	r25, Y+4	; 0x04
     5a4:	fc 01       	movw	r30, r24
     5a6:	20 83       	st	Z, r18
     5a8:	8d 81       	ldd	r24, Y+5	; 0x05
     5aa:	9e 81       	ldd	r25, Y+6	; 0x06
     5ac:	29 89       	ldd	r18, Y+17	; 0x11
     5ae:	fc 01       	movw	r30, r24
     5b0:	20 83       	st	Z, r18
     5b2:	8b 81       	ldd	r24, Y+3	; 0x03
     5b4:	9c 81       	ldd	r25, Y+4	; 0x04
     5b6:	01 96       	adiw	r24, 0x01	; 1
     5b8:	9c 83       	std	Y+4, r25	; 0x04
     5ba:	8b 83       	std	Y+3, r24	; 0x03
     5bc:	8d 81       	ldd	r24, Y+5	; 0x05
     5be:	9e 81       	ldd	r25, Y+6	; 0x06
     5c0:	01 97       	sbiw	r24, 0x01	; 1
     5c2:	9e 83       	std	Y+6, r25	; 0x06
     5c4:	8d 83       	std	Y+5, r24	; 0x05
     5c6:	2b 81       	ldd	r18, Y+3	; 0x03
     5c8:	3c 81       	ldd	r19, Y+4	; 0x04
     5ca:	8d 81       	ldd	r24, Y+5	; 0x05
     5cc:	9e 81       	ldd	r25, Y+6	; 0x06
     5ce:	28 17       	cp	r18, r24
     5d0:	39 07       	cpc	r19, r25
     5d2:	e8 f2       	brcs	.-70     	; 0x58e <__LOCK_REGION_LENGTH__+0x18e>
     5d4:	89 81       	ldd	r24, Y+1	; 0x01
     5d6:	9a 81       	ldd	r25, Y+2	; 0x02
     5d8:	6c 96       	adiw	r28, 0x1c	; 28
     5da:	0f b6       	in	r0, 0x3f	; 63
     5dc:	f8 94       	cli
     5de:	de bf       	out	0x3e, r29	; 62
     5e0:	0f be       	out	0x3f, r0	; 63
     5e2:	cd bf       	out	0x3d, r28	; 61
     5e4:	df 91       	pop	r29
     5e6:	cf 91       	pop	r28
     5e8:	1f 91       	pop	r17
     5ea:	0f 91       	pop	r16
     5ec:	ff 90       	pop	r15
     5ee:	ef 90       	pop	r14
     5f0:	df 90       	pop	r13
     5f2:	cf 90       	pop	r12
     5f4:	bf 90       	pop	r11
     5f6:	af 90       	pop	r10
     5f8:	9f 90       	pop	r9
     5fa:	8f 90       	pop	r8
     5fc:	7f 90       	pop	r7
     5fe:	6f 90       	pop	r6
     600:	5f 90       	pop	r5
     602:	4f 90       	pop	r4
     604:	3f 90       	pop	r3
     606:	2f 90       	pop	r2
     608:	08 95       	ret

0000060a <i32toa>:
     60a:	6f 92       	push	r6
     60c:	7f 92       	push	r7
     60e:	8f 92       	push	r8
     610:	9f 92       	push	r9
     612:	af 92       	push	r10
     614:	bf 92       	push	r11
     616:	cf 92       	push	r12
     618:	df 92       	push	r13
     61a:	ef 92       	push	r14
     61c:	0f 93       	push	r16
     61e:	1f 93       	push	r17
     620:	cf 93       	push	r28
     622:	df 93       	push	r29
     624:	cd b7       	in	r28, 0x3d	; 61
     626:	de b7       	in	r29, 0x3e	; 62
     628:	27 97       	sbiw	r28, 0x07	; 7
     62a:	0f b6       	in	r0, 0x3f	; 63
     62c:	f8 94       	cli
     62e:	de bf       	out	0x3e, r29	; 62
     630:	0f be       	out	0x3f, r0	; 63
     632:	cd bf       	out	0x3d, r28	; 61
     634:	69 83       	std	Y+1, r22	; 0x01
     636:	7a 83       	std	Y+2, r23	; 0x02
     638:	8b 83       	std	Y+3, r24	; 0x03
     63a:	9c 83       	std	Y+4, r25	; 0x04
     63c:	5e 83       	std	Y+6, r21	; 0x06
     63e:	4d 83       	std	Y+5, r20	; 0x05
     640:	2f 83       	std	Y+7, r18	; 0x07
     642:	89 81       	ldd	r24, Y+1	; 0x01
     644:	9a 81       	ldd	r25, Y+2	; 0x02
     646:	ab 81       	ldd	r26, Y+3	; 0x03
     648:	bc 81       	ldd	r27, Y+4	; 0x04
     64a:	3c 01       	movw	r6, r24
     64c:	4d 01       	movw	r8, r26
     64e:	bb 0f       	add	r27, r27
     650:	88 0b       	sbc	r24, r24
     652:	98 2f       	mov	r25, r24
     654:	dc 01       	movw	r26, r24
     656:	a8 2e       	mov	r10, r24
     658:	b8 2e       	mov	r11, r24
     65a:	c8 2e       	mov	r12, r24
     65c:	d8 2e       	mov	r13, r24
     65e:	8d 81       	ldd	r24, Y+5	; 0x05
     660:	9e 81       	ldd	r25, Y+6	; 0x06
     662:	ef 80       	ldd	r14, Y+7	; 0x07
     664:	8c 01       	movw	r16, r24
     666:	26 2d       	mov	r18, r6
     668:	37 2d       	mov	r19, r7
     66a:	48 2d       	mov	r20, r8
     66c:	59 2d       	mov	r21, r9
     66e:	6a 2d       	mov	r22, r10
     670:	7b 2d       	mov	r23, r11
     672:	8c 2d       	mov	r24, r12
     674:	9d 2d       	mov	r25, r13
     676:	0e 94 a5 01 	call	0x34a	; 0x34a <i64toa>
     67a:	27 96       	adiw	r28, 0x07	; 7
     67c:	0f b6       	in	r0, 0x3f	; 63
     67e:	f8 94       	cli
     680:	de bf       	out	0x3e, r29	; 62
     682:	0f be       	out	0x3f, r0	; 63
     684:	cd bf       	out	0x3d, r28	; 61
     686:	df 91       	pop	r29
     688:	cf 91       	pop	r28
     68a:	1f 91       	pop	r17
     68c:	0f 91       	pop	r16
     68e:	ef 90       	pop	r14
     690:	df 90       	pop	r13
     692:	cf 90       	pop	r12
     694:	bf 90       	pop	r11
     696:	af 90       	pop	r10
     698:	9f 90       	pop	r9
     69a:	8f 90       	pop	r8
     69c:	7f 90       	pop	r7
     69e:	6f 90       	pop	r6
     6a0:	08 95       	ret

000006a2 <i16toa>:
     6a2:	6f 92       	push	r6
     6a4:	7f 92       	push	r7
     6a6:	8f 92       	push	r8
     6a8:	9f 92       	push	r9
     6aa:	af 92       	push	r10
     6ac:	bf 92       	push	r11
     6ae:	cf 92       	push	r12
     6b0:	df 92       	push	r13
     6b2:	ef 92       	push	r14
     6b4:	0f 93       	push	r16
     6b6:	1f 93       	push	r17
     6b8:	cf 93       	push	r28
     6ba:	df 93       	push	r29
     6bc:	00 d0       	rcall	.+0      	; 0x6be <i16toa+0x1c>
     6be:	00 d0       	rcall	.+0      	; 0x6c0 <i16toa+0x1e>
     6c0:	1f 92       	push	r1
     6c2:	cd b7       	in	r28, 0x3d	; 61
     6c4:	de b7       	in	r29, 0x3e	; 62
     6c6:	9a 83       	std	Y+2, r25	; 0x02
     6c8:	89 83       	std	Y+1, r24	; 0x01
     6ca:	7c 83       	std	Y+4, r23	; 0x04
     6cc:	6b 83       	std	Y+3, r22	; 0x03
     6ce:	4d 83       	std	Y+5, r20	; 0x05
     6d0:	89 81       	ldd	r24, Y+1	; 0x01
     6d2:	9a 81       	ldd	r25, Y+2	; 0x02
     6d4:	3c 01       	movw	r6, r24
     6d6:	89 2f       	mov	r24, r25
     6d8:	88 0f       	add	r24, r24
     6da:	88 0b       	sbc	r24, r24
     6dc:	88 2e       	mov	r8, r24
     6de:	98 2e       	mov	r9, r24
     6e0:	a8 2e       	mov	r10, r24
     6e2:	b8 2e       	mov	r11, r24
     6e4:	c8 2e       	mov	r12, r24
     6e6:	d8 2e       	mov	r13, r24
     6e8:	8b 81       	ldd	r24, Y+3	; 0x03
     6ea:	9c 81       	ldd	r25, Y+4	; 0x04
     6ec:	ed 80       	ldd	r14, Y+5	; 0x05
     6ee:	8c 01       	movw	r16, r24
     6f0:	26 2d       	mov	r18, r6
     6f2:	37 2d       	mov	r19, r7
     6f4:	48 2d       	mov	r20, r8
     6f6:	59 2d       	mov	r21, r9
     6f8:	6a 2d       	mov	r22, r10
     6fa:	7b 2d       	mov	r23, r11
     6fc:	8c 2d       	mov	r24, r12
     6fe:	9d 2d       	mov	r25, r13
     700:	0e 94 a5 01 	call	0x34a	; 0x34a <i64toa>
     704:	0f 90       	pop	r0
     706:	0f 90       	pop	r0
     708:	0f 90       	pop	r0
     70a:	0f 90       	pop	r0
     70c:	0f 90       	pop	r0
     70e:	df 91       	pop	r29
     710:	cf 91       	pop	r28
     712:	1f 91       	pop	r17
     714:	0f 91       	pop	r16
     716:	ef 90       	pop	r14
     718:	df 90       	pop	r13
     71a:	cf 90       	pop	r12
     71c:	bf 90       	pop	r11
     71e:	af 90       	pop	r10
     720:	9f 90       	pop	r9
     722:	8f 90       	pop	r8
     724:	7f 90       	pop	r7
     726:	6f 90       	pop	r6
     728:	08 95       	ret

0000072a <i8toa>:
     72a:	6f 92       	push	r6
     72c:	7f 92       	push	r7
     72e:	8f 92       	push	r8
     730:	9f 92       	push	r9
     732:	af 92       	push	r10
     734:	bf 92       	push	r11
     736:	cf 92       	push	r12
     738:	df 92       	push	r13
     73a:	ef 92       	push	r14
     73c:	0f 93       	push	r16
     73e:	1f 93       	push	r17
     740:	cf 93       	push	r28
     742:	df 93       	push	r29
     744:	00 d0       	rcall	.+0      	; 0x746 <i8toa+0x1c>
     746:	00 d0       	rcall	.+0      	; 0x748 <i8toa+0x1e>
     748:	cd b7       	in	r28, 0x3d	; 61
     74a:	de b7       	in	r29, 0x3e	; 62
     74c:	89 83       	std	Y+1, r24	; 0x01
     74e:	7b 83       	std	Y+3, r23	; 0x03
     750:	6a 83       	std	Y+2, r22	; 0x02
     752:	4c 83       	std	Y+4, r20	; 0x04
     754:	89 81       	ldd	r24, Y+1	; 0x01
     756:	68 2e       	mov	r6, r24
     758:	88 0f       	add	r24, r24
     75a:	88 0b       	sbc	r24, r24
     75c:	78 2e       	mov	r7, r24
     75e:	88 2e       	mov	r8, r24
     760:	98 2e       	mov	r9, r24
     762:	a8 2e       	mov	r10, r24
     764:	b8 2e       	mov	r11, r24
     766:	c8 2e       	mov	r12, r24
     768:	d8 2e       	mov	r13, r24
     76a:	8a 81       	ldd	r24, Y+2	; 0x02
     76c:	9b 81       	ldd	r25, Y+3	; 0x03
     76e:	ec 80       	ldd	r14, Y+4	; 0x04
     770:	8c 01       	movw	r16, r24
     772:	26 2d       	mov	r18, r6
     774:	37 2d       	mov	r19, r7
     776:	48 2d       	mov	r20, r8
     778:	59 2d       	mov	r21, r9
     77a:	6a 2d       	mov	r22, r10
     77c:	7b 2d       	mov	r23, r11
     77e:	8c 2d       	mov	r24, r12
     780:	9d 2d       	mov	r25, r13
     782:	0e 94 a5 01 	call	0x34a	; 0x34a <i64toa>
     786:	0f 90       	pop	r0
     788:	0f 90       	pop	r0
     78a:	0f 90       	pop	r0
     78c:	0f 90       	pop	r0
     78e:	df 91       	pop	r29
     790:	cf 91       	pop	r28
     792:	1f 91       	pop	r17
     794:	0f 91       	pop	r16
     796:	ef 90       	pop	r14
     798:	df 90       	pop	r13
     79a:	cf 90       	pop	r12
     79c:	bf 90       	pop	r11
     79e:	af 90       	pop	r10
     7a0:	9f 90       	pop	r9
     7a2:	8f 90       	pop	r8
     7a4:	7f 90       	pop	r7
     7a6:	6f 90       	pop	r6
     7a8:	08 95       	ret

000007aa <u64toa>:
     7aa:	2f 92       	push	r2
     7ac:	3f 92       	push	r3
     7ae:	4f 92       	push	r4
     7b0:	5f 92       	push	r5
     7b2:	6f 92       	push	r6
     7b4:	7f 92       	push	r7
     7b6:	8f 92       	push	r8
     7b8:	9f 92       	push	r9
     7ba:	af 92       	push	r10
     7bc:	bf 92       	push	r11
     7be:	cf 92       	push	r12
     7c0:	df 92       	push	r13
     7c2:	ef 92       	push	r14
     7c4:	ff 92       	push	r15
     7c6:	0f 93       	push	r16
     7c8:	1f 93       	push	r17
     7ca:	cf 93       	push	r28
     7cc:	df 93       	push	r29
     7ce:	cd b7       	in	r28, 0x3d	; 61
     7d0:	de b7       	in	r29, 0x3e	; 62
     7d2:	6c 97       	sbiw	r28, 0x1c	; 28
     7d4:	0f b6       	in	r0, 0x3f	; 63
     7d6:	f8 94       	cli
     7d8:	de bf       	out	0x3e, r29	; 62
     7da:	0f be       	out	0x3f, r0	; 63
     7dc:	cd bf       	out	0x3d, r28	; 61
     7de:	2a 8b       	std	Y+18, r18	; 0x12
     7e0:	3b 8b       	std	Y+19, r19	; 0x13
     7e2:	4c 8b       	std	Y+20, r20	; 0x14
     7e4:	5d 8b       	std	Y+21, r21	; 0x15
     7e6:	6e 8b       	std	Y+22, r22	; 0x16
     7e8:	7f 8b       	std	Y+23, r23	; 0x17
     7ea:	88 8f       	std	Y+24, r24	; 0x18
     7ec:	99 8f       	std	Y+25, r25	; 0x19
     7ee:	1b 8f       	std	Y+27, r17	; 0x1b
     7f0:	0a 8f       	std	Y+26, r16	; 0x1a
     7f2:	ec 8e       	std	Y+28, r14	; 0x1c
     7f4:	8a 8d       	ldd	r24, Y+26	; 0x1a
     7f6:	9b 8d       	ldd	r25, Y+27	; 0x1b
     7f8:	9a 83       	std	Y+2, r25	; 0x02
     7fa:	89 83       	std	Y+1, r24	; 0x01
     7fc:	1f 82       	std	Y+7, r1	; 0x07
     7fe:	18 86       	std	Y+8, r1	; 0x08
     800:	19 86       	std	Y+9, r1	; 0x09
     802:	1a 86       	std	Y+10, r1	; 0x0a
     804:	1b 86       	std	Y+11, r1	; 0x0b
     806:	1c 86       	std	Y+12, r1	; 0x0c
     808:	1d 86       	std	Y+13, r1	; 0x0d
     80a:	1e 86       	std	Y+14, r1	; 0x0e
     80c:	8a 8d       	ldd	r24, Y+26	; 0x1a
     80e:	9b 8d       	ldd	r25, Y+27	; 0x1b
     810:	fc 01       	movw	r30, r24
     812:	10 82       	st	Z, r1
     814:	8a 8d       	ldd	r24, Y+26	; 0x1a
     816:	9b 8d       	ldd	r25, Y+27	; 0x1b
     818:	9c 83       	std	Y+4, r25	; 0x04
     81a:	8b 83       	std	Y+3, r24	; 0x03
     81c:	8c 8d       	ldd	r24, Y+28	; 0x1c
     81e:	82 30       	cpi	r24, 0x02	; 2
     820:	18 f0       	brcs	.+6      	; 0x828 <u64toa+0x7e>
     822:	8c 8d       	ldd	r24, Y+28	; 0x1c
     824:	85 32       	cpi	r24, 0x25	; 37
     826:	18 f0       	brcs	.+6      	; 0x82e <u64toa+0x84>
     828:	8a 8d       	ldd	r24, Y+26	; 0x1a
     82a:	9b 8d       	ldd	r25, Y+27	; 0x1b
     82c:	c7 c0       	rjmp	.+398    	; 0x9bc <__stack+0xbd>
     82e:	8a 89       	ldd	r24, Y+18	; 0x12
     830:	8f 83       	std	Y+7, r24	; 0x07
     832:	8b 89       	ldd	r24, Y+19	; 0x13
     834:	88 87       	std	Y+8, r24	; 0x08
     836:	8c 89       	ldd	r24, Y+20	; 0x14
     838:	89 87       	std	Y+9, r24	; 0x09
     83a:	8d 89       	ldd	r24, Y+21	; 0x15
     83c:	8a 87       	std	Y+10, r24	; 0x0a
     83e:	8e 89       	ldd	r24, Y+22	; 0x16
     840:	8b 87       	std	Y+11, r24	; 0x0b
     842:	8f 89       	ldd	r24, Y+23	; 0x17
     844:	8c 87       	std	Y+12, r24	; 0x0c
     846:	88 8d       	ldd	r24, Y+24	; 0x18
     848:	8d 87       	std	Y+13, r24	; 0x0d
     84a:	89 8d       	ldd	r24, Y+25	; 0x19
     84c:	8e 87       	std	Y+14, r24	; 0x0e
     84e:	18 8a       	std	Y+16, r1	; 0x10
     850:	1f 86       	std	Y+15, r1	; 0x0f
     852:	8c 8d       	ldd	r24, Y+28	; 0x1c
     854:	28 2f       	mov	r18, r24
     856:	30 e0       	ldi	r19, 0x00	; 0
     858:	40 e0       	ldi	r20, 0x00	; 0
     85a:	50 e0       	ldi	r21, 0x00	; 0
     85c:	60 e0       	ldi	r22, 0x00	; 0
     85e:	70 e0       	ldi	r23, 0x00	; 0
     860:	cb 01       	movw	r24, r22
     862:	2f 80       	ldd	r2, Y+7	; 0x07
     864:	38 84       	ldd	r3, Y+8	; 0x08
     866:	49 84       	ldd	r4, Y+9	; 0x09
     868:	5a 84       	ldd	r5, Y+10	; 0x0a
     86a:	6b 84       	ldd	r6, Y+11	; 0x0b
     86c:	7c 84       	ldd	r7, Y+12	; 0x0c
     86e:	8d 84       	ldd	r8, Y+13	; 0x0d
     870:	9e 84       	ldd	r9, Y+14	; 0x0e
     872:	a2 2e       	mov	r10, r18
     874:	b3 2e       	mov	r11, r19
     876:	c4 2e       	mov	r12, r20
     878:	d5 2e       	mov	r13, r21
     87a:	e6 2e       	mov	r14, r22
     87c:	f7 2e       	mov	r15, r23
     87e:	08 2f       	mov	r16, r24
     880:	19 2f       	mov	r17, r25
     882:	22 2d       	mov	r18, r2
     884:	33 2d       	mov	r19, r3
     886:	44 2d       	mov	r20, r4
     888:	55 2d       	mov	r21, r5
     88a:	66 2d       	mov	r22, r6
     88c:	77 2d       	mov	r23, r7
     88e:	88 2d       	mov	r24, r8
     890:	99 2d       	mov	r25, r9
     892:	0e 94 12 31 	call	0x6224	; 0x6224 <__umoddi3>
     896:	a2 2e       	mov	r10, r18
     898:	b3 2e       	mov	r11, r19
     89a:	c4 2e       	mov	r12, r20
     89c:	d5 2e       	mov	r13, r21
     89e:	e6 2e       	mov	r14, r22
     8a0:	f7 2e       	mov	r15, r23
     8a2:	08 2f       	mov	r16, r24
     8a4:	19 2f       	mov	r17, r25
     8a6:	2a 2d       	mov	r18, r10
     8a8:	3b 2d       	mov	r19, r11
     8aa:	4c 2d       	mov	r20, r12
     8ac:	5d 2d       	mov	r21, r13
     8ae:	6e 2d       	mov	r22, r14
     8b0:	7f 2d       	mov	r23, r15
     8b2:	80 2f       	mov	r24, r16
     8b4:	91 2f       	mov	r25, r17
     8b6:	38 8b       	std	Y+16, r19	; 0x10
     8b8:	2f 87       	std	Y+15, r18	; 0x0f
     8ba:	89 81       	ldd	r24, Y+1	; 0x01
     8bc:	9a 81       	ldd	r25, Y+2	; 0x02
     8be:	9c 01       	movw	r18, r24
     8c0:	2f 5f       	subi	r18, 0xFF	; 255
     8c2:	3f 4f       	sbci	r19, 0xFF	; 255
     8c4:	3a 83       	std	Y+2, r19	; 0x02
     8c6:	29 83       	std	Y+1, r18	; 0x01
     8c8:	2f 85       	ldd	r18, Y+15	; 0x0f
     8ca:	38 89       	ldd	r19, Y+16	; 0x10
     8cc:	2a 30       	cpi	r18, 0x0A	; 10
     8ce:	31 05       	cpc	r19, r1
     8d0:	1c f4       	brge	.+6      	; 0x8d8 <u64toa+0x12e>
     8d2:	2f 85       	ldd	r18, Y+15	; 0x0f
     8d4:	20 5d       	subi	r18, 0xD0	; 208
     8d6:	02 c0       	rjmp	.+4      	; 0x8dc <u64toa+0x132>
     8d8:	2f 85       	ldd	r18, Y+15	; 0x0f
     8da:	29 5c       	subi	r18, 0xC9	; 201
     8dc:	fc 01       	movw	r30, r24
     8de:	20 83       	st	Z, r18
     8e0:	8c 8d       	ldd	r24, Y+28	; 0x1c
     8e2:	28 2f       	mov	r18, r24
     8e4:	30 e0       	ldi	r19, 0x00	; 0
     8e6:	40 e0       	ldi	r20, 0x00	; 0
     8e8:	50 e0       	ldi	r21, 0x00	; 0
     8ea:	60 e0       	ldi	r22, 0x00	; 0
     8ec:	70 e0       	ldi	r23, 0x00	; 0
     8ee:	cb 01       	movw	r24, r22
     8f0:	a2 2e       	mov	r10, r18
     8f2:	b3 2e       	mov	r11, r19
     8f4:	c4 2e       	mov	r12, r20
     8f6:	d5 2e       	mov	r13, r21
     8f8:	e6 2e       	mov	r14, r22
     8fa:	f7 2e       	mov	r15, r23
     8fc:	08 2f       	mov	r16, r24
     8fe:	19 2f       	mov	r17, r25
     900:	2f 81       	ldd	r18, Y+7	; 0x07
     902:	38 85       	ldd	r19, Y+8	; 0x08
     904:	49 85       	ldd	r20, Y+9	; 0x09
     906:	5a 85       	ldd	r21, Y+10	; 0x0a
     908:	6b 85       	ldd	r22, Y+11	; 0x0b
     90a:	7c 85       	ldd	r23, Y+12	; 0x0c
     90c:	8d 85       	ldd	r24, Y+13	; 0x0d
     90e:	9e 85       	ldd	r25, Y+14	; 0x0e
     910:	0e 94 14 31 	call	0x6228	; 0x6228 <__udivdi3>
     914:	a2 2e       	mov	r10, r18
     916:	b3 2e       	mov	r11, r19
     918:	c4 2e       	mov	r12, r20
     91a:	d5 2e       	mov	r13, r21
     91c:	e6 2e       	mov	r14, r22
     91e:	f7 2e       	mov	r15, r23
     920:	08 2f       	mov	r16, r24
     922:	19 2f       	mov	r17, r25
     924:	af 82       	std	Y+7, r10	; 0x07
     926:	b8 86       	std	Y+8, r11	; 0x08
     928:	c9 86       	std	Y+9, r12	; 0x09
     92a:	da 86       	std	Y+10, r13	; 0x0a
     92c:	eb 86       	std	Y+11, r14	; 0x0b
     92e:	fc 86       	std	Y+12, r15	; 0x0c
     930:	0d 87       	std	Y+13, r16	; 0x0d
     932:	1e 87       	std	Y+14, r17	; 0x0e
     934:	af 80       	ldd	r10, Y+7	; 0x07
     936:	b8 84       	ldd	r11, Y+8	; 0x08
     938:	c9 84       	ldd	r12, Y+9	; 0x09
     93a:	da 84       	ldd	r13, Y+10	; 0x0a
     93c:	eb 84       	ldd	r14, Y+11	; 0x0b
     93e:	fc 84       	ldd	r15, Y+12	; 0x0c
     940:	0d 85       	ldd	r16, Y+13	; 0x0d
     942:	1e 85       	ldd	r17, Y+14	; 0x0e
     944:	2a 2d       	mov	r18, r10
     946:	3b 2d       	mov	r19, r11
     948:	4c 2d       	mov	r20, r12
     94a:	5d 2d       	mov	r21, r13
     94c:	6e 2d       	mov	r22, r14
     94e:	7f 2d       	mov	r23, r15
     950:	80 2f       	mov	r24, r16
     952:	91 2f       	mov	r25, r17
     954:	a0 e0       	ldi	r26, 0x00	; 0
     956:	0e 94 df 31 	call	0x63be	; 0x63be <__cmpdi2_s8>
     95a:	09 f0       	breq	.+2      	; 0x95e <__stack+0x5f>
     95c:	7a cf       	rjmp	.-268    	; 0x852 <u64toa+0xa8>
     95e:	89 81       	ldd	r24, Y+1	; 0x01
     960:	9a 81       	ldd	r25, Y+2	; 0x02
     962:	fc 01       	movw	r30, r24
     964:	10 82       	st	Z, r1
     966:	89 81       	ldd	r24, Y+1	; 0x01
     968:	9a 81       	ldd	r25, Y+2	; 0x02
     96a:	01 97       	sbiw	r24, 0x01	; 1
     96c:	9e 83       	std	Y+6, r25	; 0x06
     96e:	8d 83       	std	Y+5, r24	; 0x05
     970:	1c c0       	rjmp	.+56     	; 0x9aa <__stack+0xab>
     972:	8b 81       	ldd	r24, Y+3	; 0x03
     974:	9c 81       	ldd	r25, Y+4	; 0x04
     976:	fc 01       	movw	r30, r24
     978:	80 81       	ld	r24, Z
     97a:	89 8b       	std	Y+17, r24	; 0x11
     97c:	8d 81       	ldd	r24, Y+5	; 0x05
     97e:	9e 81       	ldd	r25, Y+6	; 0x06
     980:	fc 01       	movw	r30, r24
     982:	20 81       	ld	r18, Z
     984:	8b 81       	ldd	r24, Y+3	; 0x03
     986:	9c 81       	ldd	r25, Y+4	; 0x04
     988:	fc 01       	movw	r30, r24
     98a:	20 83       	st	Z, r18
     98c:	8d 81       	ldd	r24, Y+5	; 0x05
     98e:	9e 81       	ldd	r25, Y+6	; 0x06
     990:	29 89       	ldd	r18, Y+17	; 0x11
     992:	fc 01       	movw	r30, r24
     994:	20 83       	st	Z, r18
     996:	8b 81       	ldd	r24, Y+3	; 0x03
     998:	9c 81       	ldd	r25, Y+4	; 0x04
     99a:	01 96       	adiw	r24, 0x01	; 1
     99c:	9c 83       	std	Y+4, r25	; 0x04
     99e:	8b 83       	std	Y+3, r24	; 0x03
     9a0:	8d 81       	ldd	r24, Y+5	; 0x05
     9a2:	9e 81       	ldd	r25, Y+6	; 0x06
     9a4:	01 97       	sbiw	r24, 0x01	; 1
     9a6:	9e 83       	std	Y+6, r25	; 0x06
     9a8:	8d 83       	std	Y+5, r24	; 0x05
     9aa:	2b 81       	ldd	r18, Y+3	; 0x03
     9ac:	3c 81       	ldd	r19, Y+4	; 0x04
     9ae:	8d 81       	ldd	r24, Y+5	; 0x05
     9b0:	9e 81       	ldd	r25, Y+6	; 0x06
     9b2:	28 17       	cp	r18, r24
     9b4:	39 07       	cpc	r19, r25
     9b6:	e8 f2       	brcs	.-70     	; 0x972 <__stack+0x73>
     9b8:	89 81       	ldd	r24, Y+1	; 0x01
     9ba:	9a 81       	ldd	r25, Y+2	; 0x02
     9bc:	6c 96       	adiw	r28, 0x1c	; 28
     9be:	0f b6       	in	r0, 0x3f	; 63
     9c0:	f8 94       	cli
     9c2:	de bf       	out	0x3e, r29	; 62
     9c4:	0f be       	out	0x3f, r0	; 63
     9c6:	cd bf       	out	0x3d, r28	; 61
     9c8:	df 91       	pop	r29
     9ca:	cf 91       	pop	r28
     9cc:	1f 91       	pop	r17
     9ce:	0f 91       	pop	r16
     9d0:	ff 90       	pop	r15
     9d2:	ef 90       	pop	r14
     9d4:	df 90       	pop	r13
     9d6:	cf 90       	pop	r12
     9d8:	bf 90       	pop	r11
     9da:	af 90       	pop	r10
     9dc:	9f 90       	pop	r9
     9de:	8f 90       	pop	r8
     9e0:	7f 90       	pop	r7
     9e2:	6f 90       	pop	r6
     9e4:	5f 90       	pop	r5
     9e6:	4f 90       	pop	r4
     9e8:	3f 90       	pop	r3
     9ea:	2f 90       	pop	r2
     9ec:	08 95       	ret

000009ee <u32toa>:
     9ee:	6f 92       	push	r6
     9f0:	7f 92       	push	r7
     9f2:	8f 92       	push	r8
     9f4:	9f 92       	push	r9
     9f6:	af 92       	push	r10
     9f8:	bf 92       	push	r11
     9fa:	cf 92       	push	r12
     9fc:	df 92       	push	r13
     9fe:	ef 92       	push	r14
     a00:	0f 93       	push	r16
     a02:	1f 93       	push	r17
     a04:	cf 93       	push	r28
     a06:	df 93       	push	r29
     a08:	cd b7       	in	r28, 0x3d	; 61
     a0a:	de b7       	in	r29, 0x3e	; 62
     a0c:	2b 97       	sbiw	r28, 0x0b	; 11
     a0e:	0f b6       	in	r0, 0x3f	; 63
     a10:	f8 94       	cli
     a12:	de bf       	out	0x3e, r29	; 62
     a14:	0f be       	out	0x3f, r0	; 63
     a16:	cd bf       	out	0x3d, r28	; 61
     a18:	29 83       	std	Y+1, r18	; 0x01
     a1a:	3a 83       	std	Y+2, r19	; 0x02
     a1c:	4b 83       	std	Y+3, r20	; 0x03
     a1e:	5c 83       	std	Y+4, r21	; 0x04
     a20:	6d 83       	std	Y+5, r22	; 0x05
     a22:	7e 83       	std	Y+6, r23	; 0x06
     a24:	8f 83       	std	Y+7, r24	; 0x07
     a26:	98 87       	std	Y+8, r25	; 0x08
     a28:	1a 87       	std	Y+10, r17	; 0x0a
     a2a:	09 87       	std	Y+9, r16	; 0x09
     a2c:	eb 86       	std	Y+11, r14	; 0x0b
     a2e:	89 85       	ldd	r24, Y+9	; 0x09
     a30:	9a 85       	ldd	r25, Y+10	; 0x0a
     a32:	69 80       	ldd	r6, Y+1	; 0x01
     a34:	7a 80       	ldd	r7, Y+2	; 0x02
     a36:	8b 80       	ldd	r8, Y+3	; 0x03
     a38:	9c 80       	ldd	r9, Y+4	; 0x04
     a3a:	ad 80       	ldd	r10, Y+5	; 0x05
     a3c:	be 80       	ldd	r11, Y+6	; 0x06
     a3e:	cf 80       	ldd	r12, Y+7	; 0x07
     a40:	d8 84       	ldd	r13, Y+8	; 0x08
     a42:	eb 84       	ldd	r14, Y+11	; 0x0b
     a44:	8c 01       	movw	r16, r24
     a46:	26 2d       	mov	r18, r6
     a48:	37 2d       	mov	r19, r7
     a4a:	48 2d       	mov	r20, r8
     a4c:	59 2d       	mov	r21, r9
     a4e:	6a 2d       	mov	r22, r10
     a50:	7b 2d       	mov	r23, r11
     a52:	8c 2d       	mov	r24, r12
     a54:	9d 2d       	mov	r25, r13
     a56:	0e 94 d5 03 	call	0x7aa	; 0x7aa <u64toa>
     a5a:	2b 96       	adiw	r28, 0x0b	; 11
     a5c:	0f b6       	in	r0, 0x3f	; 63
     a5e:	f8 94       	cli
     a60:	de bf       	out	0x3e, r29	; 62
     a62:	0f be       	out	0x3f, r0	; 63
     a64:	cd bf       	out	0x3d, r28	; 61
     a66:	df 91       	pop	r29
     a68:	cf 91       	pop	r28
     a6a:	1f 91       	pop	r17
     a6c:	0f 91       	pop	r16
     a6e:	ef 90       	pop	r14
     a70:	df 90       	pop	r13
     a72:	cf 90       	pop	r12
     a74:	bf 90       	pop	r11
     a76:	af 90       	pop	r10
     a78:	9f 90       	pop	r9
     a7a:	8f 90       	pop	r8
     a7c:	7f 90       	pop	r7
     a7e:	6f 90       	pop	r6
     a80:	08 95       	ret

00000a82 <u16toa>:
     a82:	6f 92       	push	r6
     a84:	7f 92       	push	r7
     a86:	8f 92       	push	r8
     a88:	9f 92       	push	r9
     a8a:	af 92       	push	r10
     a8c:	bf 92       	push	r11
     a8e:	cf 92       	push	r12
     a90:	df 92       	push	r13
     a92:	ef 92       	push	r14
     a94:	0f 93       	push	r16
     a96:	1f 93       	push	r17
     a98:	cf 93       	push	r28
     a9a:	df 93       	push	r29
     a9c:	cd b7       	in	r28, 0x3d	; 61
     a9e:	de b7       	in	r29, 0x3e	; 62
     aa0:	2b 97       	sbiw	r28, 0x0b	; 11
     aa2:	0f b6       	in	r0, 0x3f	; 63
     aa4:	f8 94       	cli
     aa6:	de bf       	out	0x3e, r29	; 62
     aa8:	0f be       	out	0x3f, r0	; 63
     aaa:	cd bf       	out	0x3d, r28	; 61
     aac:	29 83       	std	Y+1, r18	; 0x01
     aae:	3a 83       	std	Y+2, r19	; 0x02
     ab0:	4b 83       	std	Y+3, r20	; 0x03
     ab2:	5c 83       	std	Y+4, r21	; 0x04
     ab4:	6d 83       	std	Y+5, r22	; 0x05
     ab6:	7e 83       	std	Y+6, r23	; 0x06
     ab8:	8f 83       	std	Y+7, r24	; 0x07
     aba:	98 87       	std	Y+8, r25	; 0x08
     abc:	1a 87       	std	Y+10, r17	; 0x0a
     abe:	09 87       	std	Y+9, r16	; 0x09
     ac0:	eb 86       	std	Y+11, r14	; 0x0b
     ac2:	89 85       	ldd	r24, Y+9	; 0x09
     ac4:	9a 85       	ldd	r25, Y+10	; 0x0a
     ac6:	69 80       	ldd	r6, Y+1	; 0x01
     ac8:	7a 80       	ldd	r7, Y+2	; 0x02
     aca:	8b 80       	ldd	r8, Y+3	; 0x03
     acc:	9c 80       	ldd	r9, Y+4	; 0x04
     ace:	ad 80       	ldd	r10, Y+5	; 0x05
     ad0:	be 80       	ldd	r11, Y+6	; 0x06
     ad2:	cf 80       	ldd	r12, Y+7	; 0x07
     ad4:	d8 84       	ldd	r13, Y+8	; 0x08
     ad6:	eb 84       	ldd	r14, Y+11	; 0x0b
     ad8:	8c 01       	movw	r16, r24
     ada:	26 2d       	mov	r18, r6
     adc:	37 2d       	mov	r19, r7
     ade:	48 2d       	mov	r20, r8
     ae0:	59 2d       	mov	r21, r9
     ae2:	6a 2d       	mov	r22, r10
     ae4:	7b 2d       	mov	r23, r11
     ae6:	8c 2d       	mov	r24, r12
     ae8:	9d 2d       	mov	r25, r13
     aea:	0e 94 d5 03 	call	0x7aa	; 0x7aa <u64toa>
     aee:	2b 96       	adiw	r28, 0x0b	; 11
     af0:	0f b6       	in	r0, 0x3f	; 63
     af2:	f8 94       	cli
     af4:	de bf       	out	0x3e, r29	; 62
     af6:	0f be       	out	0x3f, r0	; 63
     af8:	cd bf       	out	0x3d, r28	; 61
     afa:	df 91       	pop	r29
     afc:	cf 91       	pop	r28
     afe:	1f 91       	pop	r17
     b00:	0f 91       	pop	r16
     b02:	ef 90       	pop	r14
     b04:	df 90       	pop	r13
     b06:	cf 90       	pop	r12
     b08:	bf 90       	pop	r11
     b0a:	af 90       	pop	r10
     b0c:	9f 90       	pop	r9
     b0e:	8f 90       	pop	r8
     b10:	7f 90       	pop	r7
     b12:	6f 90       	pop	r6
     b14:	08 95       	ret

00000b16 <u8toa>:
     b16:	6f 92       	push	r6
     b18:	7f 92       	push	r7
     b1a:	8f 92       	push	r8
     b1c:	9f 92       	push	r9
     b1e:	af 92       	push	r10
     b20:	bf 92       	push	r11
     b22:	cf 92       	push	r12
     b24:	df 92       	push	r13
     b26:	ef 92       	push	r14
     b28:	0f 93       	push	r16
     b2a:	1f 93       	push	r17
     b2c:	cf 93       	push	r28
     b2e:	df 93       	push	r29
     b30:	cd b7       	in	r28, 0x3d	; 61
     b32:	de b7       	in	r29, 0x3e	; 62
     b34:	2b 97       	sbiw	r28, 0x0b	; 11
     b36:	0f b6       	in	r0, 0x3f	; 63
     b38:	f8 94       	cli
     b3a:	de bf       	out	0x3e, r29	; 62
     b3c:	0f be       	out	0x3f, r0	; 63
     b3e:	cd bf       	out	0x3d, r28	; 61
     b40:	29 83       	std	Y+1, r18	; 0x01
     b42:	3a 83       	std	Y+2, r19	; 0x02
     b44:	4b 83       	std	Y+3, r20	; 0x03
     b46:	5c 83       	std	Y+4, r21	; 0x04
     b48:	6d 83       	std	Y+5, r22	; 0x05
     b4a:	7e 83       	std	Y+6, r23	; 0x06
     b4c:	8f 83       	std	Y+7, r24	; 0x07
     b4e:	98 87       	std	Y+8, r25	; 0x08
     b50:	1a 87       	std	Y+10, r17	; 0x0a
     b52:	09 87       	std	Y+9, r16	; 0x09
     b54:	eb 86       	std	Y+11, r14	; 0x0b
     b56:	89 85       	ldd	r24, Y+9	; 0x09
     b58:	9a 85       	ldd	r25, Y+10	; 0x0a
     b5a:	69 80       	ldd	r6, Y+1	; 0x01
     b5c:	7a 80       	ldd	r7, Y+2	; 0x02
     b5e:	8b 80       	ldd	r8, Y+3	; 0x03
     b60:	9c 80       	ldd	r9, Y+4	; 0x04
     b62:	ad 80       	ldd	r10, Y+5	; 0x05
     b64:	be 80       	ldd	r11, Y+6	; 0x06
     b66:	cf 80       	ldd	r12, Y+7	; 0x07
     b68:	d8 84       	ldd	r13, Y+8	; 0x08
     b6a:	eb 84       	ldd	r14, Y+11	; 0x0b
     b6c:	8c 01       	movw	r16, r24
     b6e:	26 2d       	mov	r18, r6
     b70:	37 2d       	mov	r19, r7
     b72:	48 2d       	mov	r20, r8
     b74:	59 2d       	mov	r21, r9
     b76:	6a 2d       	mov	r22, r10
     b78:	7b 2d       	mov	r23, r11
     b7a:	8c 2d       	mov	r24, r12
     b7c:	9d 2d       	mov	r25, r13
     b7e:	0e 94 d5 03 	call	0x7aa	; 0x7aa <u64toa>
     b82:	2b 96       	adiw	r28, 0x0b	; 11
     b84:	0f b6       	in	r0, 0x3f	; 63
     b86:	f8 94       	cli
     b88:	de bf       	out	0x3e, r29	; 62
     b8a:	0f be       	out	0x3f, r0	; 63
     b8c:	cd bf       	out	0x3d, r28	; 61
     b8e:	df 91       	pop	r29
     b90:	cf 91       	pop	r28
     b92:	1f 91       	pop	r17
     b94:	0f 91       	pop	r16
     b96:	ef 90       	pop	r14
     b98:	df 90       	pop	r13
     b9a:	cf 90       	pop	r12
     b9c:	bf 90       	pop	r11
     b9e:	af 90       	pop	r10
     ba0:	9f 90       	pop	r9
     ba2:	8f 90       	pop	r8
     ba4:	7f 90       	pop	r7
     ba6:	6f 90       	pop	r6
     ba8:	08 95       	ret

00000baa <atou32>:
     baa:	cf 92       	push	r12
     bac:	df 92       	push	r13
     bae:	ef 92       	push	r14
     bb0:	ff 92       	push	r15
     bb2:	cf 93       	push	r28
     bb4:	df 93       	push	r29
     bb6:	cd b7       	in	r28, 0x3d	; 61
     bb8:	de b7       	in	r29, 0x3e	; 62
     bba:	2a 97       	sbiw	r28, 0x0a	; 10
     bbc:	0f b6       	in	r0, 0x3f	; 63
     bbe:	f8 94       	cli
     bc0:	de bf       	out	0x3e, r29	; 62
     bc2:	0f be       	out	0x3f, r0	; 63
     bc4:	cd bf       	out	0x3d, r28	; 61
     bc6:	9f 83       	std	Y+7, r25	; 0x07
     bc8:	8e 83       	std	Y+6, r24	; 0x06
     bca:	68 87       	std	Y+8, r22	; 0x08
     bcc:	5a 87       	std	Y+10, r21	; 0x0a
     bce:	49 87       	std	Y+9, r20	; 0x09
     bd0:	19 82       	std	Y+1, r1	; 0x01
     bd2:	1a 82       	std	Y+2, r1	; 0x02
     bd4:	1b 82       	std	Y+3, r1	; 0x03
     bd6:	1c 82       	std	Y+4, r1	; 0x04
     bd8:	1e c0       	rjmp	.+60     	; 0xc16 <atou32+0x6c>
     bda:	88 85       	ldd	r24, Y+8	; 0x08
     bdc:	28 2f       	mov	r18, r24
     bde:	30 e0       	ldi	r19, 0x00	; 0
     be0:	40 e0       	ldi	r20, 0x00	; 0
     be2:	50 e0       	ldi	r21, 0x00	; 0
     be4:	89 81       	ldd	r24, Y+1	; 0x01
     be6:	9a 81       	ldd	r25, Y+2	; 0x02
     be8:	ab 81       	ldd	r26, Y+3	; 0x03
     bea:	bc 81       	ldd	r27, Y+4	; 0x04
     bec:	bc 01       	movw	r22, r24
     bee:	cd 01       	movw	r24, r26
     bf0:	0e 94 49 30 	call	0x6092	; 0x6092 <__mulsi3>
     bf4:	6b 01       	movw	r12, r22
     bf6:	7c 01       	movw	r14, r24
     bf8:	8d 81       	ldd	r24, Y+5	; 0x05
     bfa:	0e 94 93 01 	call	0x326	; 0x326 <hex2half>
     bfe:	88 2f       	mov	r24, r24
     c00:	90 e0       	ldi	r25, 0x00	; 0
     c02:	a0 e0       	ldi	r26, 0x00	; 0
     c04:	b0 e0       	ldi	r27, 0x00	; 0
     c06:	8c 0d       	add	r24, r12
     c08:	9d 1d       	adc	r25, r13
     c0a:	ae 1d       	adc	r26, r14
     c0c:	bf 1d       	adc	r27, r15
     c0e:	89 83       	std	Y+1, r24	; 0x01
     c10:	9a 83       	std	Y+2, r25	; 0x02
     c12:	ab 83       	std	Y+3, r26	; 0x03
     c14:	bc 83       	std	Y+4, r27	; 0x04
     c16:	8e 81       	ldd	r24, Y+6	; 0x06
     c18:	9f 81       	ldd	r25, Y+7	; 0x07
     c1a:	9c 01       	movw	r18, r24
     c1c:	2f 5f       	subi	r18, 0xFF	; 255
     c1e:	3f 4f       	sbci	r19, 0xFF	; 255
     c20:	3f 83       	std	Y+7, r19	; 0x07
     c22:	2e 83       	std	Y+6, r18	; 0x06
     c24:	fc 01       	movw	r30, r24
     c26:	80 81       	ld	r24, Z
     c28:	8d 83       	std	Y+5, r24	; 0x05
     c2a:	8d 81       	ldd	r24, Y+5	; 0x05
     c2c:	08 2e       	mov	r0, r24
     c2e:	00 0c       	add	r0, r0
     c30:	99 0b       	sbc	r25, r25
     c32:	0e 94 d2 34 	call	0x69a4	; 0x69a4 <isxdigit>
     c36:	89 2b       	or	r24, r25
     c38:	81 f6       	brne	.-96     	; 0xbda <atou32+0x30>
     c3a:	89 85       	ldd	r24, Y+9	; 0x09
     c3c:	9a 85       	ldd	r25, Y+10	; 0x0a
     c3e:	89 2b       	or	r24, r25
     c40:	51 f0       	breq	.+20     	; 0xc56 <atou32+0xac>
     c42:	8e 81       	ldd	r24, Y+6	; 0x06
     c44:	9f 81       	ldd	r25, Y+7	; 0x07
     c46:	9c 01       	movw	r18, r24
     c48:	21 50       	subi	r18, 0x01	; 1
     c4a:	31 09       	sbc	r19, r1
     c4c:	89 85       	ldd	r24, Y+9	; 0x09
     c4e:	9a 85       	ldd	r25, Y+10	; 0x0a
     c50:	fc 01       	movw	r30, r24
     c52:	31 83       	std	Z+1, r19	; 0x01
     c54:	20 83       	st	Z, r18
     c56:	89 81       	ldd	r24, Y+1	; 0x01
     c58:	9a 81       	ldd	r25, Y+2	; 0x02
     c5a:	ab 81       	ldd	r26, Y+3	; 0x03
     c5c:	bc 81       	ldd	r27, Y+4	; 0x04
     c5e:	bc 01       	movw	r22, r24
     c60:	cd 01       	movw	r24, r26
     c62:	2a 96       	adiw	r28, 0x0a	; 10
     c64:	0f b6       	in	r0, 0x3f	; 63
     c66:	f8 94       	cli
     c68:	de bf       	out	0x3e, r29	; 62
     c6a:	0f be       	out	0x3f, r0	; 63
     c6c:	cd bf       	out	0x3d, r28	; 61
     c6e:	df 91       	pop	r29
     c70:	cf 91       	pop	r28
     c72:	ff 90       	pop	r15
     c74:	ef 90       	pop	r14
     c76:	df 90       	pop	r13
     c78:	cf 90       	pop	r12
     c7a:	08 95       	ret

00000c7c <atou64>:
     c7c:	2f 92       	push	r2
     c7e:	3f 92       	push	r3
     c80:	4f 92       	push	r4
     c82:	5f 92       	push	r5
     c84:	6f 92       	push	r6
     c86:	7f 92       	push	r7
     c88:	8f 92       	push	r8
     c8a:	9f 92       	push	r9
     c8c:	af 92       	push	r10
     c8e:	bf 92       	push	r11
     c90:	cf 92       	push	r12
     c92:	df 92       	push	r13
     c94:	ef 92       	push	r14
     c96:	ff 92       	push	r15
     c98:	0f 93       	push	r16
     c9a:	1f 93       	push	r17
     c9c:	cf 93       	push	r28
     c9e:	df 93       	push	r29
     ca0:	cd b7       	in	r28, 0x3d	; 61
     ca2:	de b7       	in	r29, 0x3e	; 62
     ca4:	66 97       	sbiw	r28, 0x16	; 22
     ca6:	0f b6       	in	r0, 0x3f	; 63
     ca8:	f8 94       	cli
     caa:	de bf       	out	0x3e, r29	; 62
     cac:	0f be       	out	0x3f, r0	; 63
     cae:	cd bf       	out	0x3d, r28	; 61
     cb0:	9b 87       	std	Y+11, r25	; 0x0b
     cb2:	8a 87       	std	Y+10, r24	; 0x0a
     cb4:	6c 87       	std	Y+12, r22	; 0x0c
     cb6:	5e 87       	std	Y+14, r21	; 0x0e
     cb8:	4d 87       	std	Y+13, r20	; 0x0d
     cba:	19 82       	std	Y+1, r1	; 0x01
     cbc:	1a 82       	std	Y+2, r1	; 0x02
     cbe:	1b 82       	std	Y+3, r1	; 0x03
     cc0:	1c 82       	std	Y+4, r1	; 0x04
     cc2:	1d 82       	std	Y+5, r1	; 0x05
     cc4:	1e 82       	std	Y+6, r1	; 0x06
     cc6:	1f 82       	std	Y+7, r1	; 0x07
     cc8:	18 86       	std	Y+8, r1	; 0x08
     cca:	4e c0       	rjmp	.+156    	; 0xd68 <atou64+0xec>
     ccc:	8c 85       	ldd	r24, Y+12	; 0x0c
     cce:	28 2e       	mov	r2, r24
     cd0:	31 2c       	mov	r3, r1
     cd2:	41 2c       	mov	r4, r1
     cd4:	51 2c       	mov	r5, r1
     cd6:	61 2c       	mov	r6, r1
     cd8:	71 2c       	mov	r7, r1
     cda:	43 01       	movw	r8, r6
     cdc:	a9 80       	ldd	r10, Y+1	; 0x01
     cde:	ba 80       	ldd	r11, Y+2	; 0x02
     ce0:	cb 80       	ldd	r12, Y+3	; 0x03
     ce2:	dc 80       	ldd	r13, Y+4	; 0x04
     ce4:	ed 80       	ldd	r14, Y+5	; 0x05
     ce6:	fe 80       	ldd	r15, Y+6	; 0x06
     ce8:	0f 81       	ldd	r16, Y+7	; 0x07
     cea:	18 85       	ldd	r17, Y+8	; 0x08
     cec:	22 2d       	mov	r18, r2
     cee:	33 2d       	mov	r19, r3
     cf0:	44 2d       	mov	r20, r4
     cf2:	55 2d       	mov	r21, r5
     cf4:	66 2d       	mov	r22, r6
     cf6:	77 2d       	mov	r23, r7
     cf8:	88 2d       	mov	r24, r8
     cfa:	99 2d       	mov	r25, r9
     cfc:	0e 94 b9 30 	call	0x6172	; 0x6172 <__muldi3>
     d00:	a2 2e       	mov	r10, r18
     d02:	b3 2e       	mov	r11, r19
     d04:	c4 2e       	mov	r12, r20
     d06:	d5 2e       	mov	r13, r21
     d08:	e6 2e       	mov	r14, r22
     d0a:	f7 2e       	mov	r15, r23
     d0c:	08 2f       	mov	r16, r24
     d0e:	19 2f       	mov	r17, r25
     d10:	af 86       	std	Y+15, r10	; 0x0f
     d12:	b8 8a       	std	Y+16, r11	; 0x10
     d14:	c9 8a       	std	Y+17, r12	; 0x11
     d16:	da 8a       	std	Y+18, r13	; 0x12
     d18:	eb 8a       	std	Y+19, r14	; 0x13
     d1a:	fc 8a       	std	Y+20, r15	; 0x14
     d1c:	0d 8b       	std	Y+21, r16	; 0x15
     d1e:	1e 8b       	std	Y+22, r17	; 0x16
     d20:	89 85       	ldd	r24, Y+9	; 0x09
     d22:	0e 94 93 01 	call	0x326	; 0x326 <hex2half>
     d26:	28 2e       	mov	r2, r24
     d28:	31 2c       	mov	r3, r1
     d2a:	41 2c       	mov	r4, r1
     d2c:	51 2c       	mov	r5, r1
     d2e:	61 2c       	mov	r6, r1
     d30:	71 2c       	mov	r7, r1
     d32:	43 01       	movw	r8, r6
     d34:	2f 85       	ldd	r18, Y+15	; 0x0f
     d36:	38 89       	ldd	r19, Y+16	; 0x10
     d38:	49 89       	ldd	r20, Y+17	; 0x11
     d3a:	5a 89       	ldd	r21, Y+18	; 0x12
     d3c:	6b 89       	ldd	r22, Y+19	; 0x13
     d3e:	7c 89       	ldd	r23, Y+20	; 0x14
     d40:	8d 89       	ldd	r24, Y+21	; 0x15
     d42:	9e 89       	ldd	r25, Y+22	; 0x16
     d44:	a2 2c       	mov	r10, r2
     d46:	b3 2c       	mov	r11, r3
     d48:	c4 2c       	mov	r12, r4
     d4a:	d5 2c       	mov	r13, r5
     d4c:	e6 2c       	mov	r14, r6
     d4e:	f7 2c       	mov	r15, r7
     d50:	08 2d       	mov	r16, r8
     d52:	19 2d       	mov	r17, r9
     d54:	0e 94 b8 31 	call	0x6370	; 0x6370 <__adddi3>
     d58:	29 83       	std	Y+1, r18	; 0x01
     d5a:	3a 83       	std	Y+2, r19	; 0x02
     d5c:	4b 83       	std	Y+3, r20	; 0x03
     d5e:	5c 83       	std	Y+4, r21	; 0x04
     d60:	6d 83       	std	Y+5, r22	; 0x05
     d62:	7e 83       	std	Y+6, r23	; 0x06
     d64:	8f 83       	std	Y+7, r24	; 0x07
     d66:	98 87       	std	Y+8, r25	; 0x08
     d68:	8a 85       	ldd	r24, Y+10	; 0x0a
     d6a:	9b 85       	ldd	r25, Y+11	; 0x0b
     d6c:	9c 01       	movw	r18, r24
     d6e:	2f 5f       	subi	r18, 0xFF	; 255
     d70:	3f 4f       	sbci	r19, 0xFF	; 255
     d72:	3b 87       	std	Y+11, r19	; 0x0b
     d74:	2a 87       	std	Y+10, r18	; 0x0a
     d76:	fc 01       	movw	r30, r24
     d78:	80 81       	ld	r24, Z
     d7a:	89 87       	std	Y+9, r24	; 0x09
     d7c:	89 85       	ldd	r24, Y+9	; 0x09
     d7e:	08 2e       	mov	r0, r24
     d80:	00 0c       	add	r0, r0
     d82:	99 0b       	sbc	r25, r25
     d84:	0e 94 d2 34 	call	0x69a4	; 0x69a4 <isxdigit>
     d88:	89 2b       	or	r24, r25
     d8a:	09 f0       	breq	.+2      	; 0xd8e <atou64+0x112>
     d8c:	9f cf       	rjmp	.-194    	; 0xccc <atou64+0x50>
     d8e:	8d 85       	ldd	r24, Y+13	; 0x0d
     d90:	9e 85       	ldd	r25, Y+14	; 0x0e
     d92:	89 2b       	or	r24, r25
     d94:	51 f0       	breq	.+20     	; 0xdaa <atou64+0x12e>
     d96:	8a 85       	ldd	r24, Y+10	; 0x0a
     d98:	9b 85       	ldd	r25, Y+11	; 0x0b
     d9a:	9c 01       	movw	r18, r24
     d9c:	21 50       	subi	r18, 0x01	; 1
     d9e:	31 09       	sbc	r19, r1
     da0:	8d 85       	ldd	r24, Y+13	; 0x0d
     da2:	9e 85       	ldd	r25, Y+14	; 0x0e
     da4:	fc 01       	movw	r30, r24
     da6:	31 83       	std	Z+1, r19	; 0x01
     da8:	20 83       	st	Z, r18
     daa:	29 81       	ldd	r18, Y+1	; 0x01
     dac:	3a 81       	ldd	r19, Y+2	; 0x02
     dae:	4b 81       	ldd	r20, Y+3	; 0x03
     db0:	5c 81       	ldd	r21, Y+4	; 0x04
     db2:	6d 81       	ldd	r22, Y+5	; 0x05
     db4:	7e 81       	ldd	r23, Y+6	; 0x06
     db6:	8f 81       	ldd	r24, Y+7	; 0x07
     db8:	98 85       	ldd	r25, Y+8	; 0x08
     dba:	a2 2e       	mov	r10, r18
     dbc:	b3 2e       	mov	r11, r19
     dbe:	c4 2e       	mov	r12, r20
     dc0:	d5 2e       	mov	r13, r21
     dc2:	e6 2e       	mov	r14, r22
     dc4:	f7 2e       	mov	r15, r23
     dc6:	08 2f       	mov	r16, r24
     dc8:	19 2f       	mov	r17, r25
     dca:	2a 2d       	mov	r18, r10
     dcc:	3b 2d       	mov	r19, r11
     dce:	4c 2d       	mov	r20, r12
     dd0:	5d 2d       	mov	r21, r13
     dd2:	6e 2d       	mov	r22, r14
     dd4:	7f 2d       	mov	r23, r15
     dd6:	80 2f       	mov	r24, r16
     dd8:	91 2f       	mov	r25, r17
     dda:	66 96       	adiw	r28, 0x16	; 22
     ddc:	0f b6       	in	r0, 0x3f	; 63
     dde:	f8 94       	cli
     de0:	de bf       	out	0x3e, r29	; 62
     de2:	0f be       	out	0x3f, r0	; 63
     de4:	cd bf       	out	0x3d, r28	; 61
     de6:	df 91       	pop	r29
     de8:	cf 91       	pop	r28
     dea:	1f 91       	pop	r17
     dec:	0f 91       	pop	r16
     dee:	ff 90       	pop	r15
     df0:	ef 90       	pop	r14
     df2:	df 90       	pop	r13
     df4:	cf 90       	pop	r12
     df6:	bf 90       	pop	r11
     df8:	af 90       	pop	r10
     dfa:	9f 90       	pop	r9
     dfc:	8f 90       	pop	r8
     dfe:	7f 90       	pop	r7
     e00:	6f 90       	pop	r6
     e02:	5f 90       	pop	r5
     e04:	4f 90       	pop	r4
     e06:	3f 90       	pop	r3
     e08:	2f 90       	pop	r2
     e0a:	08 95       	ret

00000e0c <atoi32>:
     e0c:	cf 93       	push	r28
     e0e:	df 93       	push	r29
     e10:	cd b7       	in	r28, 0x3d	; 61
     e12:	de b7       	in	r29, 0x3e	; 62
     e14:	2a 97       	sbiw	r28, 0x0a	; 10
     e16:	0f b6       	in	r0, 0x3f	; 63
     e18:	f8 94       	cli
     e1a:	de bf       	out	0x3e, r29	; 62
     e1c:	0f be       	out	0x3f, r0	; 63
     e1e:	cd bf       	out	0x3d, r28	; 61
     e20:	9f 83       	std	Y+7, r25	; 0x07
     e22:	8e 83       	std	Y+6, r24	; 0x06
     e24:	68 87       	std	Y+8, r22	; 0x08
     e26:	5a 87       	std	Y+10, r21	; 0x0a
     e28:	49 87       	std	Y+9, r20	; 0x09
     e2a:	8e 81       	ldd	r24, Y+6	; 0x06
     e2c:	9f 81       	ldd	r25, Y+7	; 0x07
     e2e:	fc 01       	movw	r30, r24
     e30:	90 81       	ld	r25, Z
     e32:	81 e0       	ldi	r24, 0x01	; 1
     e34:	9d 32       	cpi	r25, 0x2D	; 45
     e36:	09 f0       	breq	.+2      	; 0xe3a <atoi32+0x2e>
     e38:	80 e0       	ldi	r24, 0x00	; 0
     e3a:	89 83       	std	Y+1, r24	; 0x01
     e3c:	89 81       	ldd	r24, Y+1	; 0x01
     e3e:	88 23       	and	r24, r24
     e40:	29 f0       	breq	.+10     	; 0xe4c <atoi32+0x40>
     e42:	8e 81       	ldd	r24, Y+6	; 0x06
     e44:	9f 81       	ldd	r25, Y+7	; 0x07
     e46:	01 96       	adiw	r24, 0x01	; 1
     e48:	9f 83       	std	Y+7, r25	; 0x07
     e4a:	8e 83       	std	Y+6, r24	; 0x06
     e4c:	29 85       	ldd	r18, Y+9	; 0x09
     e4e:	3a 85       	ldd	r19, Y+10	; 0x0a
     e50:	8e 81       	ldd	r24, Y+6	; 0x06
     e52:	9f 81       	ldd	r25, Y+7	; 0x07
     e54:	a9 01       	movw	r20, r18
     e56:	68 85       	ldd	r22, Y+8	; 0x08
     e58:	0e 94 d5 05 	call	0xbaa	; 0xbaa <atou32>
     e5c:	dc 01       	movw	r26, r24
     e5e:	cb 01       	movw	r24, r22
     e60:	8a 83       	std	Y+2, r24	; 0x02
     e62:	9b 83       	std	Y+3, r25	; 0x03
     e64:	ac 83       	std	Y+4, r26	; 0x04
     e66:	bd 83       	std	Y+5, r27	; 0x05
     e68:	89 81       	ldd	r24, Y+1	; 0x01
     e6a:	88 23       	and	r24, r24
     e6c:	61 f0       	breq	.+24     	; 0xe86 <atoi32+0x7a>
     e6e:	8a 81       	ldd	r24, Y+2	; 0x02
     e70:	9b 81       	ldd	r25, Y+3	; 0x03
     e72:	ac 81       	ldd	r26, Y+4	; 0x04
     e74:	bd 81       	ldd	r27, Y+5	; 0x05
     e76:	b0 95       	com	r27
     e78:	a0 95       	com	r26
     e7a:	90 95       	com	r25
     e7c:	81 95       	neg	r24
     e7e:	9f 4f       	sbci	r25, 0xFF	; 255
     e80:	af 4f       	sbci	r26, 0xFF	; 255
     e82:	bf 4f       	sbci	r27, 0xFF	; 255
     e84:	04 c0       	rjmp	.+8      	; 0xe8e <atoi32+0x82>
     e86:	8a 81       	ldd	r24, Y+2	; 0x02
     e88:	9b 81       	ldd	r25, Y+3	; 0x03
     e8a:	ac 81       	ldd	r26, Y+4	; 0x04
     e8c:	bd 81       	ldd	r27, Y+5	; 0x05
     e8e:	bc 01       	movw	r22, r24
     e90:	cd 01       	movw	r24, r26
     e92:	2a 96       	adiw	r28, 0x0a	; 10
     e94:	0f b6       	in	r0, 0x3f	; 63
     e96:	f8 94       	cli
     e98:	de bf       	out	0x3e, r29	; 62
     e9a:	0f be       	out	0x3f, r0	; 63
     e9c:	cd bf       	out	0x3d, r28	; 61
     e9e:	df 91       	pop	r29
     ea0:	cf 91       	pop	r28
     ea2:	08 95       	ret

00000ea4 <atoi64>:
     ea4:	2f 92       	push	r2
     ea6:	3f 92       	push	r3
     ea8:	4f 92       	push	r4
     eaa:	5f 92       	push	r5
     eac:	6f 92       	push	r6
     eae:	7f 92       	push	r7
     eb0:	8f 92       	push	r8
     eb2:	9f 92       	push	r9
     eb4:	af 92       	push	r10
     eb6:	bf 92       	push	r11
     eb8:	cf 92       	push	r12
     eba:	df 92       	push	r13
     ebc:	ef 92       	push	r14
     ebe:	ff 92       	push	r15
     ec0:	0f 93       	push	r16
     ec2:	1f 93       	push	r17
     ec4:	cf 93       	push	r28
     ec6:	df 93       	push	r29
     ec8:	cd b7       	in	r28, 0x3d	; 61
     eca:	de b7       	in	r29, 0x3e	; 62
     ecc:	2e 97       	sbiw	r28, 0x0e	; 14
     ece:	0f b6       	in	r0, 0x3f	; 63
     ed0:	f8 94       	cli
     ed2:	de bf       	out	0x3e, r29	; 62
     ed4:	0f be       	out	0x3f, r0	; 63
     ed6:	cd bf       	out	0x3d, r28	; 61
     ed8:	9b 87       	std	Y+11, r25	; 0x0b
     eda:	8a 87       	std	Y+10, r24	; 0x0a
     edc:	6c 87       	std	Y+12, r22	; 0x0c
     ede:	5e 87       	std	Y+14, r21	; 0x0e
     ee0:	4d 87       	std	Y+13, r20	; 0x0d
     ee2:	8a 85       	ldd	r24, Y+10	; 0x0a
     ee4:	9b 85       	ldd	r25, Y+11	; 0x0b
     ee6:	fc 01       	movw	r30, r24
     ee8:	90 81       	ld	r25, Z
     eea:	81 e0       	ldi	r24, 0x01	; 1
     eec:	9d 32       	cpi	r25, 0x2D	; 45
     eee:	09 f0       	breq	.+2      	; 0xef2 <atoi64+0x4e>
     ef0:	80 e0       	ldi	r24, 0x00	; 0
     ef2:	89 83       	std	Y+1, r24	; 0x01
     ef4:	89 81       	ldd	r24, Y+1	; 0x01
     ef6:	88 23       	and	r24, r24
     ef8:	29 f0       	breq	.+10     	; 0xf04 <atoi64+0x60>
     efa:	8a 85       	ldd	r24, Y+10	; 0x0a
     efc:	9b 85       	ldd	r25, Y+11	; 0x0b
     efe:	01 96       	adiw	r24, 0x01	; 1
     f00:	9b 87       	std	Y+11, r25	; 0x0b
     f02:	8a 87       	std	Y+10, r24	; 0x0a
     f04:	2d 85       	ldd	r18, Y+13	; 0x0d
     f06:	3e 85       	ldd	r19, Y+14	; 0x0e
     f08:	8a 85       	ldd	r24, Y+10	; 0x0a
     f0a:	9b 85       	ldd	r25, Y+11	; 0x0b
     f0c:	a9 01       	movw	r20, r18
     f0e:	6c 85       	ldd	r22, Y+12	; 0x0c
     f10:	0e 94 3e 06 	call	0xc7c	; 0xc7c <atou64>
     f14:	a2 2e       	mov	r10, r18
     f16:	b3 2e       	mov	r11, r19
     f18:	c4 2e       	mov	r12, r20
     f1a:	d5 2e       	mov	r13, r21
     f1c:	e6 2e       	mov	r14, r22
     f1e:	f7 2e       	mov	r15, r23
     f20:	08 2f       	mov	r16, r24
     f22:	19 2f       	mov	r17, r25
     f24:	aa 82       	std	Y+2, r10	; 0x02
     f26:	bb 82       	std	Y+3, r11	; 0x03
     f28:	cc 82       	std	Y+4, r12	; 0x04
     f2a:	dd 82       	std	Y+5, r13	; 0x05
     f2c:	ee 82       	std	Y+6, r14	; 0x06
     f2e:	ff 82       	std	Y+7, r15	; 0x07
     f30:	08 87       	std	Y+8, r16	; 0x08
     f32:	19 87       	std	Y+9, r17	; 0x09
     f34:	89 81       	ldd	r24, Y+1	; 0x01
     f36:	88 23       	and	r24, r24
     f38:	99 f0       	breq	.+38     	; 0xf60 <atoi64+0xbc>
     f3a:	2a 81       	ldd	r18, Y+2	; 0x02
     f3c:	3b 81       	ldd	r19, Y+3	; 0x03
     f3e:	4c 81       	ldd	r20, Y+4	; 0x04
     f40:	5d 81       	ldd	r21, Y+5	; 0x05
     f42:	6e 81       	ldd	r22, Y+6	; 0x06
     f44:	7f 81       	ldd	r23, Y+7	; 0x07
     f46:	88 85       	ldd	r24, Y+8	; 0x08
     f48:	99 85       	ldd	r25, Y+9	; 0x09
     f4a:	0e 94 71 31 	call	0x62e2	; 0x62e2 <__negdi2>
     f4e:	a2 2e       	mov	r10, r18
     f50:	b3 2e       	mov	r11, r19
     f52:	c4 2e       	mov	r12, r20
     f54:	d5 2e       	mov	r13, r21
     f56:	e6 2e       	mov	r14, r22
     f58:	f7 2e       	mov	r15, r23
     f5a:	08 2f       	mov	r16, r24
     f5c:	19 2f       	mov	r17, r25
     f5e:	08 c0       	rjmp	.+16     	; 0xf70 <atoi64+0xcc>
     f60:	aa 80       	ldd	r10, Y+2	; 0x02
     f62:	bb 80       	ldd	r11, Y+3	; 0x03
     f64:	cc 80       	ldd	r12, Y+4	; 0x04
     f66:	dd 80       	ldd	r13, Y+5	; 0x05
     f68:	ee 80       	ldd	r14, Y+6	; 0x06
     f6a:	ff 80       	ldd	r15, Y+7	; 0x07
     f6c:	08 85       	ldd	r16, Y+8	; 0x08
     f6e:	19 85       	ldd	r17, Y+9	; 0x09
     f70:	2a 2c       	mov	r2, r10
     f72:	3b 2c       	mov	r3, r11
     f74:	4c 2c       	mov	r4, r12
     f76:	5d 2c       	mov	r5, r13
     f78:	6e 2c       	mov	r6, r14
     f7a:	7f 2c       	mov	r7, r15
     f7c:	80 2e       	mov	r8, r16
     f7e:	91 2e       	mov	r9, r17
     f80:	22 2d       	mov	r18, r2
     f82:	33 2d       	mov	r19, r3
     f84:	44 2d       	mov	r20, r4
     f86:	55 2d       	mov	r21, r5
     f88:	66 2d       	mov	r22, r6
     f8a:	77 2d       	mov	r23, r7
     f8c:	88 2d       	mov	r24, r8
     f8e:	99 2d       	mov	r25, r9
     f90:	2e 96       	adiw	r28, 0x0e	; 14
     f92:	0f b6       	in	r0, 0x3f	; 63
     f94:	f8 94       	cli
     f96:	de bf       	out	0x3e, r29	; 62
     f98:	0f be       	out	0x3f, r0	; 63
     f9a:	cd bf       	out	0x3d, r28	; 61
     f9c:	df 91       	pop	r29
     f9e:	cf 91       	pop	r28
     fa0:	1f 91       	pop	r17
     fa2:	0f 91       	pop	r16
     fa4:	ff 90       	pop	r15
     fa6:	ef 90       	pop	r14
     fa8:	df 90       	pop	r13
     faa:	cf 90       	pop	r12
     fac:	bf 90       	pop	r11
     fae:	af 90       	pop	r10
     fb0:	9f 90       	pop	r9
     fb2:	8f 90       	pop	r8
     fb4:	7f 90       	pop	r7
     fb6:	6f 90       	pop	r6
     fb8:	5f 90       	pop	r5
     fba:	4f 90       	pop	r4
     fbc:	3f 90       	pop	r3
     fbe:	2f 90       	pop	r2
     fc0:	08 95       	ret

00000fc2 <f32toa>:
     fc2:	cf 92       	push	r12
     fc4:	df 92       	push	r13
     fc6:	ef 92       	push	r14
     fc8:	ff 92       	push	r15
     fca:	0f 93       	push	r16
     fcc:	1f 93       	push	r17
     fce:	cf 93       	push	r28
     fd0:	df 93       	push	r29
     fd2:	cd b7       	in	r28, 0x3d	; 61
     fd4:	de b7       	in	r29, 0x3e	; 62
     fd6:	62 97       	sbiw	r28, 0x12	; 18
     fd8:	0f b6       	in	r0, 0x3f	; 63
     fda:	f8 94       	cli
     fdc:	de bf       	out	0x3e, r29	; 62
     fde:	0f be       	out	0x3f, r0	; 63
     fe0:	cd bf       	out	0x3d, r28	; 61
     fe2:	6c 87       	std	Y+12, r22	; 0x0c
     fe4:	7d 87       	std	Y+13, r23	; 0x0d
     fe6:	8e 87       	std	Y+14, r24	; 0x0e
     fe8:	9f 87       	std	Y+15, r25	; 0x0f
     fea:	59 8b       	std	Y+17, r21	; 0x11
     fec:	48 8b       	std	Y+16, r20	; 0x10
     fee:	2a 8b       	std	Y+18, r18	; 0x12
     ff0:	88 89       	ldd	r24, Y+16	; 0x10
     ff2:	99 89       	ldd	r25, Y+17	; 0x11
     ff4:	9a 83       	std	Y+2, r25	; 0x02
     ff6:	89 83       	std	Y+1, r24	; 0x01
     ff8:	89 81       	ldd	r24, Y+1	; 0x01
     ffa:	9a 81       	ldd	r25, Y+2	; 0x02
     ffc:	9c 83       	std	Y+4, r25	; 0x04
     ffe:	8b 83       	std	Y+3, r24	; 0x03
    1000:	8c 85       	ldd	r24, Y+12	; 0x0c
    1002:	9d 85       	ldd	r25, Y+13	; 0x0d
    1004:	ae 85       	ldd	r26, Y+14	; 0x0e
    1006:	bf 85       	ldd	r27, Y+15	; 0x0f
    1008:	6c 01       	movw	r12, r24
    100a:	7d 01       	movw	r14, r26
    100c:	e8 94       	clt
    100e:	f7 f8       	bld	r15, 7
    1010:	11 e0       	ldi	r17, 0x01	; 1
    1012:	2f ef       	ldi	r18, 0xFF	; 255
    1014:	3f ef       	ldi	r19, 0xFF	; 255
    1016:	4f e7       	ldi	r20, 0x7F	; 127
    1018:	5f e7       	ldi	r21, 0x7F	; 127
    101a:	c7 01       	movw	r24, r14
    101c:	b6 01       	movw	r22, r12
    101e:	0e 94 c8 34 	call	0x6990	; 0x6990 <__unordsf2>
    1022:	88 23       	and	r24, r24
    1024:	59 f4       	brne	.+22     	; 0x103c <f32toa+0x7a>
    1026:	2f ef       	ldi	r18, 0xFF	; 255
    1028:	3f ef       	ldi	r19, 0xFF	; 255
    102a:	4f e7       	ldi	r20, 0x7F	; 127
    102c:	5f e7       	ldi	r21, 0x7F	; 127
    102e:	c7 01       	movw	r24, r14
    1030:	b6 01       	movw	r22, r12
    1032:	0e 94 67 32 	call	0x64ce	; 0x64ce <__cmpsf2>
    1036:	18 16       	cp	r1, r24
    1038:	0c f4       	brge	.+2      	; 0x103c <f32toa+0x7a>
    103a:	10 e0       	ldi	r17, 0x00	; 0
    103c:	81 e0       	ldi	r24, 0x01	; 1
    103e:	81 27       	eor	r24, r17
    1040:	88 23       	and	r24, r24
    1042:	19 f1       	breq	.+70     	; 0x108a <f32toa+0xc8>
    1044:	08 89       	ldd	r16, Y+16	; 0x10
    1046:	19 89       	ldd	r17, Y+17	; 0x11
    1048:	c8 01       	movw	r24, r16
    104a:	01 96       	adiw	r24, 0x01	; 1
    104c:	99 8b       	std	Y+17, r25	; 0x11
    104e:	88 8b       	std	Y+16, r24	; 0x10
    1050:	20 e0       	ldi	r18, 0x00	; 0
    1052:	30 e0       	ldi	r19, 0x00	; 0
    1054:	a9 01       	movw	r20, r18
    1056:	6c 85       	ldd	r22, Y+12	; 0x0c
    1058:	7d 85       	ldd	r23, Y+13	; 0x0d
    105a:	8e 85       	ldd	r24, Y+14	; 0x0e
    105c:	9f 85       	ldd	r25, Y+15	; 0x0f
    105e:	0e 94 56 34 	call	0x68ac	; 0x68ac <__gesf2>
    1062:	18 16       	cp	r1, r24
    1064:	14 f4       	brge	.+4      	; 0x106a <f32toa+0xa8>
    1066:	8b e2       	ldi	r24, 0x2B	; 43
    1068:	01 c0       	rjmp	.+2      	; 0x106c <f32toa+0xaa>
    106a:	8d e2       	ldi	r24, 0x2D	; 45
    106c:	f8 01       	movw	r30, r16
    106e:	80 83       	st	Z, r24
    1070:	88 89       	ldd	r24, Y+16	; 0x10
    1072:	99 89       	ldd	r25, Y+17	; 0x11
    1074:	29 e6       	ldi	r18, 0x69	; 105
    1076:	3e e6       	ldi	r19, 0x6E	; 110
    1078:	fc 01       	movw	r30, r24
    107a:	31 83       	std	Z+1, r19	; 0x01
    107c:	20 83       	st	Z, r18
    107e:	26 e6       	ldi	r18, 0x66	; 102
    1080:	30 e0       	ldi	r19, 0x00	; 0
    1082:	fc 01       	movw	r30, r24
    1084:	33 83       	std	Z+3, r19	; 0x03
    1086:	22 83       	std	Z+2, r18	; 0x02
    1088:	ac c1       	rjmp	.+856    	; 0x13e2 <f32toa+0x420>
    108a:	8c 85       	ldd	r24, Y+12	; 0x0c
    108c:	9d 85       	ldd	r25, Y+13	; 0x0d
    108e:	ae 85       	ldd	r26, Y+14	; 0x0e
    1090:	bf 85       	ldd	r27, Y+15	; 0x0f
    1092:	9c 01       	movw	r18, r24
    1094:	ad 01       	movw	r20, r26
    1096:	bc 01       	movw	r22, r24
    1098:	cd 01       	movw	r24, r26
    109a:	0e 94 c8 34 	call	0x6990	; 0x6990 <__unordsf2>
    109e:	88 23       	and	r24, r24
    10a0:	69 f0       	breq	.+26     	; 0x10bc <f32toa+0xfa>
    10a2:	88 89       	ldd	r24, Y+16	; 0x10
    10a4:	99 89       	ldd	r25, Y+17	; 0x11
    10a6:	2e e6       	ldi	r18, 0x6E	; 110
    10a8:	31 e6       	ldi	r19, 0x61	; 97
    10aa:	fc 01       	movw	r30, r24
    10ac:	31 83       	std	Z+1, r19	; 0x01
    10ae:	20 83       	st	Z, r18
    10b0:	2e e6       	ldi	r18, 0x6E	; 110
    10b2:	30 e0       	ldi	r19, 0x00	; 0
    10b4:	fc 01       	movw	r30, r24
    10b6:	33 83       	std	Z+3, r19	; 0x03
    10b8:	22 83       	std	Z+2, r18	; 0x02
    10ba:	93 c1       	rjmp	.+806    	; 0x13e2 <f32toa+0x420>
    10bc:	8a 89       	ldd	r24, Y+18	; 0x12
    10be:	8b 30       	cpi	r24, 0x0B	; 11
    10c0:	14 f0       	brlt	.+4      	; 0x10c6 <f32toa+0x104>
    10c2:	8a e0       	ldi	r24, 0x0A	; 10
    10c4:	8a 8b       	std	Y+18, r24	; 0x12
    10c6:	20 e0       	ldi	r18, 0x00	; 0
    10c8:	30 e0       	ldi	r19, 0x00	; 0
    10ca:	a9 01       	movw	r20, r18
    10cc:	6c 85       	ldd	r22, Y+12	; 0x0c
    10ce:	7d 85       	ldd	r23, Y+13	; 0x0d
    10d0:	8e 85       	ldd	r24, Y+14	; 0x0e
    10d2:	9f 85       	ldd	r25, Y+15	; 0x0f
    10d4:	0e 94 67 32 	call	0x64ce	; 0x64ce <__cmpsf2>
    10d8:	88 23       	and	r24, r24
    10da:	9c f4       	brge	.+38     	; 0x1102 <f32toa+0x140>
    10dc:	8c 85       	ldd	r24, Y+12	; 0x0c
    10de:	9d 85       	ldd	r25, Y+13	; 0x0d
    10e0:	ae 85       	ldd	r26, Y+14	; 0x0e
    10e2:	bf 85       	ldd	r27, Y+15	; 0x0f
    10e4:	b0 58       	subi	r27, 0x80	; 128
    10e6:	8c 87       	std	Y+12, r24	; 0x0c
    10e8:	9d 87       	std	Y+13, r25	; 0x0d
    10ea:	ae 87       	std	Y+14, r26	; 0x0e
    10ec:	bf 87       	std	Y+15, r27	; 0x0f
    10ee:	89 81       	ldd	r24, Y+1	; 0x01
    10f0:	9a 81       	ldd	r25, Y+2	; 0x02
    10f2:	9c 01       	movw	r18, r24
    10f4:	2f 5f       	subi	r18, 0xFF	; 255
    10f6:	3f 4f       	sbci	r19, 0xFF	; 255
    10f8:	3a 83       	std	Y+2, r19	; 0x02
    10fa:	29 83       	std	Y+1, r18	; 0x01
    10fc:	2d e2       	ldi	r18, 0x2D	; 45
    10fe:	fc 01       	movw	r30, r24
    1100:	20 83       	st	Z, r18
    1102:	8a 89       	ldd	r24, Y+18	; 0x12
    1104:	88 23       	and	r24, r24
    1106:	0c f0       	brlt	.+2      	; 0x110a <f32toa+0x148>
    1108:	5b c0       	rjmp	.+182    	; 0x11c0 <f32toa+0x1fe>
    110a:	20 e0       	ldi	r18, 0x00	; 0
    110c:	30 e0       	ldi	r19, 0x00	; 0
    110e:	40 e8       	ldi	r20, 0x80	; 128
    1110:	5f e3       	ldi	r21, 0x3F	; 63
    1112:	6c 85       	ldd	r22, Y+12	; 0x0c
    1114:	7d 85       	ldd	r23, Y+13	; 0x0d
    1116:	8e 85       	ldd	r24, Y+14	; 0x0e
    1118:	9f 85       	ldd	r25, Y+15	; 0x0f
    111a:	0e 94 67 32 	call	0x64ce	; 0x64ce <__cmpsf2>
    111e:	88 23       	and	r24, r24
    1120:	1c f4       	brge	.+6      	; 0x1128 <f32toa+0x166>
    1122:	86 e0       	ldi	r24, 0x06	; 6
    1124:	8a 8b       	std	Y+18, r24	; 0x12
    1126:	4c c0       	rjmp	.+152    	; 0x11c0 <f32toa+0x1fe>
    1128:	20 e0       	ldi	r18, 0x00	; 0
    112a:	30 e0       	ldi	r19, 0x00	; 0
    112c:	40 e2       	ldi	r20, 0x20	; 32
    112e:	51 e4       	ldi	r21, 0x41	; 65
    1130:	6c 85       	ldd	r22, Y+12	; 0x0c
    1132:	7d 85       	ldd	r23, Y+13	; 0x0d
    1134:	8e 85       	ldd	r24, Y+14	; 0x0e
    1136:	9f 85       	ldd	r25, Y+15	; 0x0f
    1138:	0e 94 67 32 	call	0x64ce	; 0x64ce <__cmpsf2>
    113c:	88 23       	and	r24, r24
    113e:	1c f4       	brge	.+6      	; 0x1146 <f32toa+0x184>
    1140:	85 e0       	ldi	r24, 0x05	; 5
    1142:	8a 8b       	std	Y+18, r24	; 0x12
    1144:	3d c0       	rjmp	.+122    	; 0x11c0 <f32toa+0x1fe>
    1146:	20 e0       	ldi	r18, 0x00	; 0
    1148:	30 e0       	ldi	r19, 0x00	; 0
    114a:	48 ec       	ldi	r20, 0xC8	; 200
    114c:	52 e4       	ldi	r21, 0x42	; 66
    114e:	6c 85       	ldd	r22, Y+12	; 0x0c
    1150:	7d 85       	ldd	r23, Y+13	; 0x0d
    1152:	8e 85       	ldd	r24, Y+14	; 0x0e
    1154:	9f 85       	ldd	r25, Y+15	; 0x0f
    1156:	0e 94 67 32 	call	0x64ce	; 0x64ce <__cmpsf2>
    115a:	88 23       	and	r24, r24
    115c:	1c f4       	brge	.+6      	; 0x1164 <f32toa+0x1a2>
    115e:	84 e0       	ldi	r24, 0x04	; 4
    1160:	8a 8b       	std	Y+18, r24	; 0x12
    1162:	2e c0       	rjmp	.+92     	; 0x11c0 <f32toa+0x1fe>
    1164:	20 e0       	ldi	r18, 0x00	; 0
    1166:	30 e0       	ldi	r19, 0x00	; 0
    1168:	4a e7       	ldi	r20, 0x7A	; 122
    116a:	54 e4       	ldi	r21, 0x44	; 68
    116c:	6c 85       	ldd	r22, Y+12	; 0x0c
    116e:	7d 85       	ldd	r23, Y+13	; 0x0d
    1170:	8e 85       	ldd	r24, Y+14	; 0x0e
    1172:	9f 85       	ldd	r25, Y+15	; 0x0f
    1174:	0e 94 67 32 	call	0x64ce	; 0x64ce <__cmpsf2>
    1178:	88 23       	and	r24, r24
    117a:	1c f4       	brge	.+6      	; 0x1182 <f32toa+0x1c0>
    117c:	83 e0       	ldi	r24, 0x03	; 3
    117e:	8a 8b       	std	Y+18, r24	; 0x12
    1180:	1f c0       	rjmp	.+62     	; 0x11c0 <f32toa+0x1fe>
    1182:	20 e0       	ldi	r18, 0x00	; 0
    1184:	30 e4       	ldi	r19, 0x40	; 64
    1186:	4c e1       	ldi	r20, 0x1C	; 28
    1188:	56 e4       	ldi	r21, 0x46	; 70
    118a:	6c 85       	ldd	r22, Y+12	; 0x0c
    118c:	7d 85       	ldd	r23, Y+13	; 0x0d
    118e:	8e 85       	ldd	r24, Y+14	; 0x0e
    1190:	9f 85       	ldd	r25, Y+15	; 0x0f
    1192:	0e 94 67 32 	call	0x64ce	; 0x64ce <__cmpsf2>
    1196:	88 23       	and	r24, r24
    1198:	1c f4       	brge	.+6      	; 0x11a0 <f32toa+0x1de>
    119a:	82 e0       	ldi	r24, 0x02	; 2
    119c:	8a 8b       	std	Y+18, r24	; 0x12
    119e:	10 c0       	rjmp	.+32     	; 0x11c0 <f32toa+0x1fe>
    11a0:	20 e0       	ldi	r18, 0x00	; 0
    11a2:	30 e5       	ldi	r19, 0x50	; 80
    11a4:	43 ec       	ldi	r20, 0xC3	; 195
    11a6:	57 e4       	ldi	r21, 0x47	; 71
    11a8:	6c 85       	ldd	r22, Y+12	; 0x0c
    11aa:	7d 85       	ldd	r23, Y+13	; 0x0d
    11ac:	8e 85       	ldd	r24, Y+14	; 0x0e
    11ae:	9f 85       	ldd	r25, Y+15	; 0x0f
    11b0:	0e 94 67 32 	call	0x64ce	; 0x64ce <__cmpsf2>
    11b4:	88 23       	and	r24, r24
    11b6:	1c f4       	brge	.+6      	; 0x11be <f32toa+0x1fc>
    11b8:	81 e0       	ldi	r24, 0x01	; 1
    11ba:	8a 8b       	std	Y+18, r24	; 0x12
    11bc:	01 c0       	rjmp	.+2      	; 0x11c0 <f32toa+0x1fe>
    11be:	1a 8a       	std	Y+18, r1	; 0x12
    11c0:	8a 89       	ldd	r24, Y+18	; 0x12
    11c2:	88 23       	and	r24, r24
    11c4:	e9 f0       	breq	.+58     	; 0x1200 <f32toa+0x23e>
    11c6:	8a 89       	ldd	r24, Y+18	; 0x12
    11c8:	08 2e       	mov	r0, r24
    11ca:	00 0c       	add	r0, r0
    11cc:	99 0b       	sbc	r25, r25
    11ce:	88 0f       	add	r24, r24
    11d0:	99 1f       	adc	r25, r25
    11d2:	88 0f       	add	r24, r24
    11d4:	99 1f       	adc	r25, r25
    11d6:	80 5e       	subi	r24, 0xE0	; 224
    11d8:	9e 4f       	sbci	r25, 0xFE	; 254
    11da:	fc 01       	movw	r30, r24
    11dc:	80 81       	ld	r24, Z
    11de:	91 81       	ldd	r25, Z+1	; 0x01
    11e0:	a2 81       	ldd	r26, Z+2	; 0x02
    11e2:	b3 81       	ldd	r27, Z+3	; 0x03
    11e4:	9c 01       	movw	r18, r24
    11e6:	ad 01       	movw	r20, r26
    11e8:	6c 85       	ldd	r22, Y+12	; 0x0c
    11ea:	7d 85       	ldd	r23, Y+13	; 0x0d
    11ec:	8e 85       	ldd	r24, Y+14	; 0x0e
    11ee:	9f 85       	ldd	r25, Y+15	; 0x0f
    11f0:	0e 94 fb 31 	call	0x63f6	; 0x63f6 <__addsf3>
    11f4:	dc 01       	movw	r26, r24
    11f6:	cb 01       	movw	r24, r22
    11f8:	8c 87       	std	Y+12, r24	; 0x0c
    11fa:	9d 87       	std	Y+13, r25	; 0x0d
    11fc:	ae 87       	std	Y+14, r26	; 0x0e
    11fe:	bf 87       	std	Y+15, r27	; 0x0f
    1200:	6c 85       	ldd	r22, Y+12	; 0x0c
    1202:	7d 85       	ldd	r23, Y+13	; 0x0d
    1204:	8e 85       	ldd	r24, Y+14	; 0x0e
    1206:	9f 85       	ldd	r25, Y+15	; 0x0f
    1208:	0e 94 1a 33 	call	0x6634	; 0x6634 <__fixsfsi>
    120c:	dc 01       	movw	r26, r24
    120e:	cb 01       	movw	r24, r22
    1210:	8d 83       	std	Y+5, r24	; 0x05
    1212:	9e 83       	std	Y+6, r25	; 0x06
    1214:	af 83       	std	Y+7, r26	; 0x07
    1216:	b8 87       	std	Y+8, r27	; 0x08
    1218:	6d 81       	ldd	r22, Y+5	; 0x05
    121a:	7e 81       	ldd	r23, Y+6	; 0x06
    121c:	8f 81       	ldd	r24, Y+7	; 0x07
    121e:	98 85       	ldd	r25, Y+8	; 0x08
    1220:	0e 94 58 33 	call	0x66b0	; 0x66b0 <__floatsisf>
    1224:	dc 01       	movw	r26, r24
    1226:	cb 01       	movw	r24, r22
    1228:	9c 01       	movw	r18, r24
    122a:	ad 01       	movw	r20, r26
    122c:	6c 85       	ldd	r22, Y+12	; 0x0c
    122e:	7d 85       	ldd	r23, Y+13	; 0x0d
    1230:	8e 85       	ldd	r24, Y+14	; 0x0e
    1232:	9f 85       	ldd	r25, Y+15	; 0x0f
    1234:	0e 94 fa 31 	call	0x63f4	; 0x63f4 <__subsf3>
    1238:	dc 01       	movw	r26, r24
    123a:	cb 01       	movw	r24, r22
    123c:	8c 87       	std	Y+12, r24	; 0x0c
    123e:	9d 87       	std	Y+13, r25	; 0x0d
    1240:	ae 87       	std	Y+14, r26	; 0x0e
    1242:	bf 87       	std	Y+15, r27	; 0x0f
    1244:	8d 81       	ldd	r24, Y+5	; 0x05
    1246:	9e 81       	ldd	r25, Y+6	; 0x06
    1248:	af 81       	ldd	r26, Y+7	; 0x07
    124a:	b8 85       	ldd	r27, Y+8	; 0x08
    124c:	89 2b       	or	r24, r25
    124e:	8a 2b       	or	r24, r26
    1250:	8b 2b       	or	r24, r27
    1252:	59 f4       	brne	.+22     	; 0x126a <f32toa+0x2a8>
    1254:	89 81       	ldd	r24, Y+1	; 0x01
    1256:	9a 81       	ldd	r25, Y+2	; 0x02
    1258:	9c 01       	movw	r18, r24
    125a:	2f 5f       	subi	r18, 0xFF	; 255
    125c:	3f 4f       	sbci	r19, 0xFF	; 255
    125e:	3a 83       	std	Y+2, r19	; 0x02
    1260:	29 83       	std	Y+1, r18	; 0x01
    1262:	20 e3       	ldi	r18, 0x30	; 48
    1264:	fc 01       	movw	r30, r24
    1266:	20 83       	st	Z, r18
    1268:	62 c0       	rjmp	.+196    	; 0x132e <f32toa+0x36c>
    126a:	89 81       	ldd	r24, Y+1	; 0x01
    126c:	9a 81       	ldd	r25, Y+2	; 0x02
    126e:	9c 83       	std	Y+4, r25	; 0x04
    1270:	8b 83       	std	Y+3, r24	; 0x03
    1272:	29 c0       	rjmp	.+82     	; 0x12c6 <f32toa+0x304>
    1274:	0b 81       	ldd	r16, Y+3	; 0x03
    1276:	1c 81       	ldd	r17, Y+4	; 0x04
    1278:	c8 01       	movw	r24, r16
    127a:	01 96       	adiw	r24, 0x01	; 1
    127c:	9c 83       	std	Y+4, r25	; 0x04
    127e:	8b 83       	std	Y+3, r24	; 0x03
    1280:	8d 81       	ldd	r24, Y+5	; 0x05
    1282:	9e 81       	ldd	r25, Y+6	; 0x06
    1284:	af 81       	ldd	r26, Y+7	; 0x07
    1286:	b8 85       	ldd	r27, Y+8	; 0x08
    1288:	2a e0       	ldi	r18, 0x0A	; 10
    128a:	30 e0       	ldi	r19, 0x00	; 0
    128c:	40 e0       	ldi	r20, 0x00	; 0
    128e:	50 e0       	ldi	r21, 0x00	; 0
    1290:	bc 01       	movw	r22, r24
    1292:	cd 01       	movw	r24, r26
    1294:	0e 94 8f 30 	call	0x611e	; 0x611e <__divmodsi4>
    1298:	dc 01       	movw	r26, r24
    129a:	cb 01       	movw	r24, r22
    129c:	80 5d       	subi	r24, 0xD0	; 208
    129e:	f8 01       	movw	r30, r16
    12a0:	80 83       	st	Z, r24
    12a2:	8d 81       	ldd	r24, Y+5	; 0x05
    12a4:	9e 81       	ldd	r25, Y+6	; 0x06
    12a6:	af 81       	ldd	r26, Y+7	; 0x07
    12a8:	b8 85       	ldd	r27, Y+8	; 0x08
    12aa:	2a e0       	ldi	r18, 0x0A	; 10
    12ac:	30 e0       	ldi	r19, 0x00	; 0
    12ae:	40 e0       	ldi	r20, 0x00	; 0
    12b0:	50 e0       	ldi	r21, 0x00	; 0
    12b2:	bc 01       	movw	r22, r24
    12b4:	cd 01       	movw	r24, r26
    12b6:	0e 94 8f 30 	call	0x611e	; 0x611e <__divmodsi4>
    12ba:	da 01       	movw	r26, r20
    12bc:	c9 01       	movw	r24, r18
    12be:	8d 83       	std	Y+5, r24	; 0x05
    12c0:	9e 83       	std	Y+6, r25	; 0x06
    12c2:	af 83       	std	Y+7, r26	; 0x07
    12c4:	b8 87       	std	Y+8, r27	; 0x08
    12c6:	8d 81       	ldd	r24, Y+5	; 0x05
    12c8:	9e 81       	ldd	r25, Y+6	; 0x06
    12ca:	af 81       	ldd	r26, Y+7	; 0x07
    12cc:	b8 85       	ldd	r27, Y+8	; 0x08
    12ce:	89 2b       	or	r24, r25
    12d0:	8a 2b       	or	r24, r26
    12d2:	8b 2b       	or	r24, r27
    12d4:	79 f6       	brne	.-98     	; 0x1274 <f32toa+0x2b2>
    12d6:	8b 81       	ldd	r24, Y+3	; 0x03
    12d8:	9c 81       	ldd	r25, Y+4	; 0x04
    12da:	9a 87       	std	Y+10, r25	; 0x0a
    12dc:	89 87       	std	Y+9, r24	; 0x09
    12de:	1c c0       	rjmp	.+56     	; 0x1318 <f32toa+0x356>
    12e0:	8b 81       	ldd	r24, Y+3	; 0x03
    12e2:	9c 81       	ldd	r25, Y+4	; 0x04
    12e4:	01 97       	sbiw	r24, 0x01	; 1
    12e6:	9c 83       	std	Y+4, r25	; 0x04
    12e8:	8b 83       	std	Y+3, r24	; 0x03
    12ea:	8b 81       	ldd	r24, Y+3	; 0x03
    12ec:	9c 81       	ldd	r25, Y+4	; 0x04
    12ee:	fc 01       	movw	r30, r24
    12f0:	80 81       	ld	r24, Z
    12f2:	8b 87       	std	Y+11, r24	; 0x0b
    12f4:	89 81       	ldd	r24, Y+1	; 0x01
    12f6:	9a 81       	ldd	r25, Y+2	; 0x02
    12f8:	fc 01       	movw	r30, r24
    12fa:	20 81       	ld	r18, Z
    12fc:	8b 81       	ldd	r24, Y+3	; 0x03
    12fe:	9c 81       	ldd	r25, Y+4	; 0x04
    1300:	fc 01       	movw	r30, r24
    1302:	20 83       	st	Z, r18
    1304:	89 81       	ldd	r24, Y+1	; 0x01
    1306:	9a 81       	ldd	r25, Y+2	; 0x02
    1308:	9c 01       	movw	r18, r24
    130a:	2f 5f       	subi	r18, 0xFF	; 255
    130c:	3f 4f       	sbci	r19, 0xFF	; 255
    130e:	3a 83       	std	Y+2, r19	; 0x02
    1310:	29 83       	std	Y+1, r18	; 0x01
    1312:	2b 85       	ldd	r18, Y+11	; 0x0b
    1314:	fc 01       	movw	r30, r24
    1316:	20 83       	st	Z, r18
    1318:	2b 81       	ldd	r18, Y+3	; 0x03
    131a:	3c 81       	ldd	r19, Y+4	; 0x04
    131c:	89 81       	ldd	r24, Y+1	; 0x01
    131e:	9a 81       	ldd	r25, Y+2	; 0x02
    1320:	82 17       	cp	r24, r18
    1322:	93 07       	cpc	r25, r19
    1324:	e8 f2       	brcs	.-70     	; 0x12e0 <f32toa+0x31e>
    1326:	89 85       	ldd	r24, Y+9	; 0x09
    1328:	9a 85       	ldd	r25, Y+10	; 0x0a
    132a:	9a 83       	std	Y+2, r25	; 0x02
    132c:	89 83       	std	Y+1, r24	; 0x01
    132e:	8a 89       	ldd	r24, Y+18	; 0x12
    1330:	88 23       	and	r24, r24
    1332:	09 f4       	brne	.+2      	; 0x1336 <f32toa+0x374>
    1334:	50 c0       	rjmp	.+160    	; 0x13d6 <f32toa+0x414>
    1336:	89 81       	ldd	r24, Y+1	; 0x01
    1338:	9a 81       	ldd	r25, Y+2	; 0x02
    133a:	9c 01       	movw	r18, r24
    133c:	2f 5f       	subi	r18, 0xFF	; 255
    133e:	3f 4f       	sbci	r19, 0xFF	; 255
    1340:	3a 83       	std	Y+2, r19	; 0x02
    1342:	29 83       	std	Y+1, r18	; 0x01
    1344:	2e e2       	ldi	r18, 0x2E	; 46
    1346:	fc 01       	movw	r30, r24
    1348:	20 83       	st	Z, r18
    134a:	3e c0       	rjmp	.+124    	; 0x13c8 <f32toa+0x406>
    134c:	20 e0       	ldi	r18, 0x00	; 0
    134e:	30 e0       	ldi	r19, 0x00	; 0
    1350:	40 e2       	ldi	r20, 0x20	; 32
    1352:	51 e4       	ldi	r21, 0x41	; 65
    1354:	6c 85       	ldd	r22, Y+12	; 0x0c
    1356:	7d 85       	ldd	r23, Y+13	; 0x0d
    1358:	8e 85       	ldd	r24, Y+14	; 0x0e
    135a:	9f 85       	ldd	r25, Y+15	; 0x0f
    135c:	0e 94 5b 34 	call	0x68b6	; 0x68b6 <__mulsf3>
    1360:	dc 01       	movw	r26, r24
    1362:	cb 01       	movw	r24, r22
    1364:	8c 87       	std	Y+12, r24	; 0x0c
    1366:	9d 87       	std	Y+13, r25	; 0x0d
    1368:	ae 87       	std	Y+14, r26	; 0x0e
    136a:	bf 87       	std	Y+15, r27	; 0x0f
    136c:	6c 85       	ldd	r22, Y+12	; 0x0c
    136e:	7d 85       	ldd	r23, Y+13	; 0x0d
    1370:	8e 85       	ldd	r24, Y+14	; 0x0e
    1372:	9f 85       	ldd	r25, Y+15	; 0x0f
    1374:	0e 94 1a 33 	call	0x6634	; 0x6634 <__fixsfsi>
    1378:	dc 01       	movw	r26, r24
    137a:	cb 01       	movw	r24, r22
    137c:	8b 87       	std	Y+11, r24	; 0x0b
    137e:	89 81       	ldd	r24, Y+1	; 0x01
    1380:	9a 81       	ldd	r25, Y+2	; 0x02
    1382:	9c 01       	movw	r18, r24
    1384:	2f 5f       	subi	r18, 0xFF	; 255
    1386:	3f 4f       	sbci	r19, 0xFF	; 255
    1388:	3a 83       	std	Y+2, r19	; 0x02
    138a:	29 83       	std	Y+1, r18	; 0x01
    138c:	2b 85       	ldd	r18, Y+11	; 0x0b
    138e:	20 5d       	subi	r18, 0xD0	; 208
    1390:	fc 01       	movw	r30, r24
    1392:	20 83       	st	Z, r18
    1394:	8b 85       	ldd	r24, Y+11	; 0x0b
    1396:	08 2e       	mov	r0, r24
    1398:	00 0c       	add	r0, r0
    139a:	99 0b       	sbc	r25, r25
    139c:	aa 0b       	sbc	r26, r26
    139e:	bb 0b       	sbc	r27, r27
    13a0:	bc 01       	movw	r22, r24
    13a2:	cd 01       	movw	r24, r26
    13a4:	0e 94 58 33 	call	0x66b0	; 0x66b0 <__floatsisf>
    13a8:	dc 01       	movw	r26, r24
    13aa:	cb 01       	movw	r24, r22
    13ac:	9c 01       	movw	r18, r24
    13ae:	ad 01       	movw	r20, r26
    13b0:	6c 85       	ldd	r22, Y+12	; 0x0c
    13b2:	7d 85       	ldd	r23, Y+13	; 0x0d
    13b4:	8e 85       	ldd	r24, Y+14	; 0x0e
    13b6:	9f 85       	ldd	r25, Y+15	; 0x0f
    13b8:	0e 94 fa 31 	call	0x63f4	; 0x63f4 <__subsf3>
    13bc:	dc 01       	movw	r26, r24
    13be:	cb 01       	movw	r24, r22
    13c0:	8c 87       	std	Y+12, r24	; 0x0c
    13c2:	9d 87       	std	Y+13, r25	; 0x0d
    13c4:	ae 87       	std	Y+14, r26	; 0x0e
    13c6:	bf 87       	std	Y+15, r27	; 0x0f
    13c8:	8a 89       	ldd	r24, Y+18	; 0x12
    13ca:	98 2f       	mov	r25, r24
    13cc:	91 50       	subi	r25, 0x01	; 1
    13ce:	9a 8b       	std	Y+18, r25	; 0x12
    13d0:	88 23       	and	r24, r24
    13d2:	09 f0       	breq	.+2      	; 0x13d6 <f32toa+0x414>
    13d4:	bb cf       	rjmp	.-138    	; 0x134c <f32toa+0x38a>
    13d6:	89 81       	ldd	r24, Y+1	; 0x01
    13d8:	9a 81       	ldd	r25, Y+2	; 0x02
    13da:	fc 01       	movw	r30, r24
    13dc:	10 82       	st	Z, r1
    13de:	88 89       	ldd	r24, Y+16	; 0x10
    13e0:	99 89       	ldd	r25, Y+17	; 0x11
    13e2:	62 96       	adiw	r28, 0x12	; 18
    13e4:	0f b6       	in	r0, 0x3f	; 63
    13e6:	f8 94       	cli
    13e8:	de bf       	out	0x3e, r29	; 62
    13ea:	0f be       	out	0x3f, r0	; 63
    13ec:	cd bf       	out	0x3d, r28	; 61
    13ee:	df 91       	pop	r29
    13f0:	cf 91       	pop	r28
    13f2:	1f 91       	pop	r17
    13f4:	0f 91       	pop	r16
    13f6:	ff 90       	pop	r15
    13f8:	ef 90       	pop	r14
    13fa:	df 90       	pop	r13
    13fc:	cf 90       	pop	r12
    13fe:	08 95       	ret

00001400 <local_pow>:
    1400:	2f 92       	push	r2
    1402:	3f 92       	push	r3
    1404:	4f 92       	push	r4
    1406:	5f 92       	push	r5
    1408:	6f 92       	push	r6
    140a:	7f 92       	push	r7
    140c:	8f 92       	push	r8
    140e:	9f 92       	push	r9
    1410:	af 92       	push	r10
    1412:	bf 92       	push	r11
    1414:	cf 92       	push	r12
    1416:	df 92       	push	r13
    1418:	ef 92       	push	r14
    141a:	ff 92       	push	r15
    141c:	0f 93       	push	r16
    141e:	1f 93       	push	r17
    1420:	cf 93       	push	r28
    1422:	df 93       	push	r29
    1424:	cd b7       	in	r28, 0x3d	; 61
    1426:	de b7       	in	r29, 0x3e	; 62
    1428:	2c 97       	sbiw	r28, 0x0c	; 12
    142a:	0f b6       	in	r0, 0x3f	; 63
    142c:	f8 94       	cli
    142e:	de bf       	out	0x3e, r29	; 62
    1430:	0f be       	out	0x3f, r0	; 63
    1432:	cd bf       	out	0x3d, r28	; 61
    1434:	9a 87       	std	Y+10, r25	; 0x0a
    1436:	89 87       	std	Y+9, r24	; 0x09
    1438:	7c 87       	std	Y+12, r23	; 0x0c
    143a:	6b 87       	std	Y+11, r22	; 0x0b
    143c:	81 e0       	ldi	r24, 0x01	; 1
    143e:	89 83       	std	Y+1, r24	; 0x01
    1440:	1a 82       	std	Y+2, r1	; 0x02
    1442:	1b 82       	std	Y+3, r1	; 0x03
    1444:	1c 82       	std	Y+4, r1	; 0x04
    1446:	1d 82       	std	Y+5, r1	; 0x05
    1448:	1e 82       	std	Y+6, r1	; 0x06
    144a:	1f 82       	std	Y+7, r1	; 0x07
    144c:	18 86       	std	Y+8, r1	; 0x08
    144e:	2e c0       	rjmp	.+92     	; 0x14ac <local_pow+0xac>
    1450:	89 85       	ldd	r24, Y+9	; 0x09
    1452:	9a 85       	ldd	r25, Y+10	; 0x0a
    1454:	1c 01       	movw	r2, r24
    1456:	89 2f       	mov	r24, r25
    1458:	88 0f       	add	r24, r24
    145a:	88 0b       	sbc	r24, r24
    145c:	48 2e       	mov	r4, r24
    145e:	58 2e       	mov	r5, r24
    1460:	68 2e       	mov	r6, r24
    1462:	78 2e       	mov	r7, r24
    1464:	88 2e       	mov	r8, r24
    1466:	98 2e       	mov	r9, r24
    1468:	a2 2c       	mov	r10, r2
    146a:	b3 2c       	mov	r11, r3
    146c:	c4 2c       	mov	r12, r4
    146e:	d5 2c       	mov	r13, r5
    1470:	e6 2c       	mov	r14, r6
    1472:	f7 2c       	mov	r15, r7
    1474:	08 2d       	mov	r16, r8
    1476:	19 2d       	mov	r17, r9
    1478:	29 81       	ldd	r18, Y+1	; 0x01
    147a:	3a 81       	ldd	r19, Y+2	; 0x02
    147c:	4b 81       	ldd	r20, Y+3	; 0x03
    147e:	5c 81       	ldd	r21, Y+4	; 0x04
    1480:	6d 81       	ldd	r22, Y+5	; 0x05
    1482:	7e 81       	ldd	r23, Y+6	; 0x06
    1484:	8f 81       	ldd	r24, Y+7	; 0x07
    1486:	98 85       	ldd	r25, Y+8	; 0x08
    1488:	0e 94 b9 30 	call	0x6172	; 0x6172 <__muldi3>
    148c:	a2 2e       	mov	r10, r18
    148e:	b3 2e       	mov	r11, r19
    1490:	c4 2e       	mov	r12, r20
    1492:	d5 2e       	mov	r13, r21
    1494:	e6 2e       	mov	r14, r22
    1496:	f7 2e       	mov	r15, r23
    1498:	08 2f       	mov	r16, r24
    149a:	19 2f       	mov	r17, r25
    149c:	a9 82       	std	Y+1, r10	; 0x01
    149e:	ba 82       	std	Y+2, r11	; 0x02
    14a0:	cb 82       	std	Y+3, r12	; 0x03
    14a2:	dc 82       	std	Y+4, r13	; 0x04
    14a4:	ed 82       	std	Y+5, r14	; 0x05
    14a6:	fe 82       	std	Y+6, r15	; 0x06
    14a8:	0f 83       	std	Y+7, r16	; 0x07
    14aa:	18 87       	std	Y+8, r17	; 0x08
    14ac:	8b 85       	ldd	r24, Y+11	; 0x0b
    14ae:	9c 85       	ldd	r25, Y+12	; 0x0c
    14b0:	9c 01       	movw	r18, r24
    14b2:	21 50       	subi	r18, 0x01	; 1
    14b4:	31 09       	sbc	r19, r1
    14b6:	3c 87       	std	Y+12, r19	; 0x0c
    14b8:	2b 87       	std	Y+11, r18	; 0x0b
    14ba:	89 2b       	or	r24, r25
    14bc:	49 f6       	brne	.-110    	; 0x1450 <local_pow+0x50>
    14be:	29 81       	ldd	r18, Y+1	; 0x01
    14c0:	3a 81       	ldd	r19, Y+2	; 0x02
    14c2:	4b 81       	ldd	r20, Y+3	; 0x03
    14c4:	5c 81       	ldd	r21, Y+4	; 0x04
    14c6:	6d 81       	ldd	r22, Y+5	; 0x05
    14c8:	7e 81       	ldd	r23, Y+6	; 0x06
    14ca:	8f 81       	ldd	r24, Y+7	; 0x07
    14cc:	98 85       	ldd	r25, Y+8	; 0x08
    14ce:	0e 94 50 33 	call	0x66a0	; 0x66a0 <__floatdisf>
    14d2:	dc 01       	movw	r26, r24
    14d4:	cb 01       	movw	r24, r22
    14d6:	bc 01       	movw	r22, r24
    14d8:	cd 01       	movw	r24, r26
    14da:	2c 96       	adiw	r28, 0x0c	; 12
    14dc:	0f b6       	in	r0, 0x3f	; 63
    14de:	f8 94       	cli
    14e0:	de bf       	out	0x3e, r29	; 62
    14e2:	0f be       	out	0x3f, r0	; 63
    14e4:	cd bf       	out	0x3d, r28	; 61
    14e6:	df 91       	pop	r29
    14e8:	cf 91       	pop	r28
    14ea:	1f 91       	pop	r17
    14ec:	0f 91       	pop	r16
    14ee:	ff 90       	pop	r15
    14f0:	ef 90       	pop	r14
    14f2:	df 90       	pop	r13
    14f4:	cf 90       	pop	r12
    14f6:	bf 90       	pop	r11
    14f8:	af 90       	pop	r10
    14fa:	9f 90       	pop	r9
    14fc:	8f 90       	pop	r8
    14fe:	7f 90       	pop	r7
    1500:	6f 90       	pop	r6
    1502:	5f 90       	pop	r5
    1504:	4f 90       	pop	r4
    1506:	3f 90       	pop	r3
    1508:	2f 90       	pop	r2
    150a:	08 95       	ret

0000150c <atof32>:
    150c:	8f 92       	push	r8
    150e:	9f 92       	push	r9
    1510:	af 92       	push	r10
    1512:	bf 92       	push	r11
    1514:	cf 92       	push	r12
    1516:	df 92       	push	r13
    1518:	ef 92       	push	r14
    151a:	ff 92       	push	r15
    151c:	0f 93       	push	r16
    151e:	1f 93       	push	r17
    1520:	cf 93       	push	r28
    1522:	df 93       	push	r29
    1524:	cd b7       	in	r28, 0x3d	; 61
    1526:	de b7       	in	r29, 0x3e	; 62
    1528:	65 97       	sbiw	r28, 0x15	; 21
    152a:	0f b6       	in	r0, 0x3f	; 63
    152c:	f8 94       	cli
    152e:	de bf       	out	0x3e, r29	; 62
    1530:	0f be       	out	0x3f, r0	; 63
    1532:	cd bf       	out	0x3d, r28	; 61
    1534:	9b 8b       	std	Y+19, r25	; 0x13
    1536:	8a 8b       	std	Y+18, r24	; 0x12
    1538:	7d 8b       	std	Y+21, r23	; 0x15
    153a:	6c 8b       	std	Y+20, r22	; 0x14
    153c:	8a 89       	ldd	r24, Y+18	; 0x12
    153e:	9b 89       	ldd	r25, Y+19	; 0x13
    1540:	fc 01       	movw	r30, r24
    1542:	80 81       	ld	r24, Z
    1544:	08 2e       	mov	r0, r24
    1546:	00 0c       	add	r0, r0
    1548:	99 0b       	sbc	r25, r25
    154a:	c0 97       	sbiw	r24, 0x30	; 48
    154c:	0a 97       	sbiw	r24, 0x0a	; 10
    154e:	50 f0       	brcs	.+20     	; 0x1564 <atof32+0x58>
    1550:	8a 89       	ldd	r24, Y+18	; 0x12
    1552:	9b 89       	ldd	r25, Y+19	; 0x13
    1554:	fc 01       	movw	r30, r24
    1556:	80 81       	ld	r24, Z
    1558:	8d 32       	cpi	r24, 0x2D	; 45
    155a:	21 f0       	breq	.+8      	; 0x1564 <atof32+0x58>
    155c:	80 e0       	ldi	r24, 0x00	; 0
    155e:	90 e0       	ldi	r25, 0x00	; 0
    1560:	dc 01       	movw	r26, r24
    1562:	c2 c0       	rjmp	.+388    	; 0x16e8 <atof32+0x1dc>
    1564:	8a 89       	ldd	r24, Y+18	; 0x12
    1566:	9b 89       	ldd	r25, Y+19	; 0x13
    1568:	fc 01       	movw	r30, r24
    156a:	90 81       	ld	r25, Z
    156c:	81 e0       	ldi	r24, 0x01	; 1
    156e:	9d 32       	cpi	r25, 0x2D	; 45
    1570:	09 f0       	breq	.+2      	; 0x1574 <atof32+0x68>
    1572:	80 e0       	ldi	r24, 0x00	; 0
    1574:	89 83       	std	Y+1, r24	; 0x01
    1576:	89 81       	ldd	r24, Y+1	; 0x01
    1578:	88 23       	and	r24, r24
    157a:	29 f0       	breq	.+10     	; 0x1586 <atof32+0x7a>
    157c:	8a 89       	ldd	r24, Y+18	; 0x12
    157e:	9b 89       	ldd	r25, Y+19	; 0x13
    1580:	01 96       	adiw	r24, 0x01	; 1
    1582:	9b 8b       	std	Y+19, r25	; 0x13
    1584:	8a 8b       	std	Y+18, r24	; 0x12
    1586:	9e 01       	movw	r18, r28
    1588:	20 5f       	subi	r18, 0xF0	; 240
    158a:	3f 4f       	sbci	r19, 0xFF	; 255
    158c:	8a 89       	ldd	r24, Y+18	; 0x12
    158e:	9b 89       	ldd	r25, Y+19	; 0x13
    1590:	a9 01       	movw	r20, r18
    1592:	6a e0       	ldi	r22, 0x0A	; 10
    1594:	0e 94 d5 05 	call	0xbaa	; 0xbaa <atou32>
    1598:	dc 01       	movw	r26, r24
    159a:	cb 01       	movw	r24, r22
    159c:	9b 83       	std	Y+3, r25	; 0x03
    159e:	8a 83       	std	Y+2, r24	; 0x02
    15a0:	88 89       	ldd	r24, Y+16	; 0x10
    15a2:	99 89       	ldd	r25, Y+17	; 0x11
    15a4:	9b 8b       	std	Y+19, r25	; 0x13
    15a6:	8a 8b       	std	Y+18, r24	; 0x12
    15a8:	8a 89       	ldd	r24, Y+18	; 0x12
    15aa:	9b 89       	ldd	r25, Y+19	; 0x13
    15ac:	fc 01       	movw	r30, r24
    15ae:	80 81       	ld	r24, Z
    15b0:	8e 32       	cpi	r24, 0x2E	; 46
    15b2:	09 f0       	breq	.+2      	; 0x15b6 <atof32+0xaa>
    15b4:	72 c0       	rjmp	.+228    	; 0x169a <atof32+0x18e>
    15b6:	8a 89       	ldd	r24, Y+18	; 0x12
    15b8:	9b 89       	ldd	r25, Y+19	; 0x13
    15ba:	01 96       	adiw	r24, 0x01	; 1
    15bc:	9b 8b       	std	Y+19, r25	; 0x13
    15be:	8a 8b       	std	Y+18, r24	; 0x12
    15c0:	9e 01       	movw	r18, r28
    15c2:	20 5f       	subi	r18, 0xF0	; 240
    15c4:	3f 4f       	sbci	r19, 0xFF	; 255
    15c6:	8a 89       	ldd	r24, Y+18	; 0x12
    15c8:	9b 89       	ldd	r25, Y+19	; 0x13
    15ca:	a9 01       	movw	r20, r18
    15cc:	6a e0       	ldi	r22, 0x0A	; 10
    15ce:	0e 94 3e 06 	call	0xc7c	; 0xc7c <atou64>
    15d2:	a2 2e       	mov	r10, r18
    15d4:	b3 2e       	mov	r11, r19
    15d6:	c4 2e       	mov	r12, r20
    15d8:	d5 2e       	mov	r13, r21
    15da:	e6 2e       	mov	r14, r22
    15dc:	f7 2e       	mov	r15, r23
    15de:	08 2f       	mov	r16, r24
    15e0:	19 2f       	mov	r17, r25
    15e2:	ac 82       	std	Y+4, r10	; 0x04
    15e4:	bd 82       	std	Y+5, r11	; 0x05
    15e6:	ce 82       	std	Y+6, r12	; 0x06
    15e8:	df 82       	std	Y+7, r13	; 0x07
    15ea:	e8 86       	std	Y+8, r14	; 0x08
    15ec:	f9 86       	std	Y+9, r15	; 0x09
    15ee:	0a 87       	std	Y+10, r16	; 0x0a
    15f0:	1b 87       	std	Y+11, r17	; 0x0b
    15f2:	8c 89       	ldd	r24, Y+20	; 0x14
    15f4:	9d 89       	ldd	r25, Y+21	; 0x15
    15f6:	89 2b       	or	r24, r25
    15f8:	39 f0       	breq	.+14     	; 0x1608 <atof32+0xfc>
    15fa:	28 89       	ldd	r18, Y+16	; 0x10
    15fc:	39 89       	ldd	r19, Y+17	; 0x11
    15fe:	8c 89       	ldd	r24, Y+20	; 0x14
    1600:	9d 89       	ldd	r25, Y+21	; 0x15
    1602:	fc 01       	movw	r30, r24
    1604:	31 83       	std	Z+1, r19	; 0x01
    1606:	20 83       	st	Z, r18
    1608:	8a 81       	ldd	r24, Y+2	; 0x02
    160a:	9b 81       	ldd	r25, Y+3	; 0x03
    160c:	cc 01       	movw	r24, r24
    160e:	a0 e0       	ldi	r26, 0x00	; 0
    1610:	b0 e0       	ldi	r27, 0x00	; 0
    1612:	bc 01       	movw	r22, r24
    1614:	cd 01       	movw	r24, r26
    1616:	0e 94 56 33 	call	0x66ac	; 0x66ac <__floatunsisf>
    161a:	6b 01       	movw	r12, r22
    161c:	7c 01       	movw	r14, r24
    161e:	2c 81       	ldd	r18, Y+4	; 0x04
    1620:	3d 81       	ldd	r19, Y+5	; 0x05
    1622:	4e 81       	ldd	r20, Y+6	; 0x06
    1624:	5f 81       	ldd	r21, Y+7	; 0x07
    1626:	68 85       	ldd	r22, Y+8	; 0x08
    1628:	79 85       	ldd	r23, Y+9	; 0x09
    162a:	8a 85       	ldd	r24, Y+10	; 0x0a
    162c:	9b 85       	ldd	r25, Y+11	; 0x0b
    162e:	0e 94 50 33 	call	0x66a0	; 0x66a0 <__floatdisf>
    1632:	4b 01       	movw	r8, r22
    1634:	5c 01       	movw	r10, r24
    1636:	88 89       	ldd	r24, Y+16	; 0x10
    1638:	99 89       	ldd	r25, Y+17	; 0x11
    163a:	9c 01       	movw	r18, r24
    163c:	8a 89       	ldd	r24, Y+18	; 0x12
    163e:	9b 89       	ldd	r25, Y+19	; 0x13
    1640:	a9 01       	movw	r20, r18
    1642:	48 1b       	sub	r20, r24
    1644:	59 0b       	sbc	r21, r25
    1646:	ca 01       	movw	r24, r20
    1648:	bc 01       	movw	r22, r24
    164a:	8a e0       	ldi	r24, 0x0A	; 10
    164c:	90 e0       	ldi	r25, 0x00	; 0
    164e:	0e 94 00 0a 	call	0x1400	; 0x1400 <local_pow>
    1652:	dc 01       	movw	r26, r24
    1654:	cb 01       	movw	r24, r22
    1656:	9c 01       	movw	r18, r24
    1658:	ad 01       	movw	r20, r26
    165a:	c5 01       	movw	r24, r10
    165c:	b4 01       	movw	r22, r8
    165e:	0e 94 6c 32 	call	0x64d8	; 0x64d8 <__divsf3>
    1662:	dc 01       	movw	r26, r24
    1664:	cb 01       	movw	r24, r22
    1666:	9c 01       	movw	r18, r24
    1668:	ad 01       	movw	r20, r26
    166a:	c7 01       	movw	r24, r14
    166c:	b6 01       	movw	r22, r12
    166e:	0e 94 fb 31 	call	0x63f6	; 0x63f6 <__addsf3>
    1672:	dc 01       	movw	r26, r24
    1674:	cb 01       	movw	r24, r22
    1676:	8c 87       	std	Y+12, r24	; 0x0c
    1678:	9d 87       	std	Y+13, r25	; 0x0d
    167a:	ae 87       	std	Y+14, r26	; 0x0e
    167c:	bf 87       	std	Y+15, r27	; 0x0f
    167e:	89 81       	ldd	r24, Y+1	; 0x01
    1680:	88 23       	and	r24, r24
    1682:	31 f0       	breq	.+12     	; 0x1690 <atof32+0x184>
    1684:	8c 85       	ldd	r24, Y+12	; 0x0c
    1686:	9d 85       	ldd	r25, Y+13	; 0x0d
    1688:	ae 85       	ldd	r26, Y+14	; 0x0e
    168a:	bf 85       	ldd	r27, Y+15	; 0x0f
    168c:	b0 58       	subi	r27, 0x80	; 128
    168e:	2c c0       	rjmp	.+88     	; 0x16e8 <atof32+0x1dc>
    1690:	8c 85       	ldd	r24, Y+12	; 0x0c
    1692:	9d 85       	ldd	r25, Y+13	; 0x0d
    1694:	ae 85       	ldd	r26, Y+14	; 0x0e
    1696:	bf 85       	ldd	r27, Y+15	; 0x0f
    1698:	27 c0       	rjmp	.+78     	; 0x16e8 <atof32+0x1dc>
    169a:	8c 89       	ldd	r24, Y+20	; 0x14
    169c:	9d 89       	ldd	r25, Y+21	; 0x15
    169e:	89 2b       	or	r24, r25
    16a0:	39 f0       	breq	.+14     	; 0x16b0 <atof32+0x1a4>
    16a2:	28 89       	ldd	r18, Y+16	; 0x10
    16a4:	39 89       	ldd	r19, Y+17	; 0x11
    16a6:	8c 89       	ldd	r24, Y+20	; 0x14
    16a8:	9d 89       	ldd	r25, Y+21	; 0x15
    16aa:	fc 01       	movw	r30, r24
    16ac:	31 83       	std	Z+1, r19	; 0x01
    16ae:	20 83       	st	Z, r18
    16b0:	89 81       	ldd	r24, Y+1	; 0x01
    16b2:	88 23       	and	r24, r24
    16b4:	69 f0       	breq	.+26     	; 0x16d0 <atof32+0x1c4>
    16b6:	8a 81       	ldd	r24, Y+2	; 0x02
    16b8:	9b 81       	ldd	r25, Y+3	; 0x03
    16ba:	cc 01       	movw	r24, r24
    16bc:	a0 e0       	ldi	r26, 0x00	; 0
    16be:	b0 e0       	ldi	r27, 0x00	; 0
    16c0:	bc 01       	movw	r22, r24
    16c2:	cd 01       	movw	r24, r26
    16c4:	0e 94 56 33 	call	0x66ac	; 0x66ac <__floatunsisf>
    16c8:	dc 01       	movw	r26, r24
    16ca:	cb 01       	movw	r24, r22
    16cc:	b0 58       	subi	r27, 0x80	; 128
    16ce:	0c c0       	rjmp	.+24     	; 0x16e8 <atof32+0x1dc>
    16d0:	8a 81       	ldd	r24, Y+2	; 0x02
    16d2:	9b 81       	ldd	r25, Y+3	; 0x03
    16d4:	cc 01       	movw	r24, r24
    16d6:	a0 e0       	ldi	r26, 0x00	; 0
    16d8:	b0 e0       	ldi	r27, 0x00	; 0
    16da:	bc 01       	movw	r22, r24
    16dc:	cd 01       	movw	r24, r26
    16de:	0e 94 56 33 	call	0x66ac	; 0x66ac <__floatunsisf>
    16e2:	dc 01       	movw	r26, r24
    16e4:	cb 01       	movw	r24, r22
    16e6:	00 00       	nop
    16e8:	bc 01       	movw	r22, r24
    16ea:	cd 01       	movw	r24, r26
    16ec:	65 96       	adiw	r28, 0x15	; 21
    16ee:	0f b6       	in	r0, 0x3f	; 63
    16f0:	f8 94       	cli
    16f2:	de bf       	out	0x3e, r29	; 62
    16f4:	0f be       	out	0x3f, r0	; 63
    16f6:	cd bf       	out	0x3d, r28	; 61
    16f8:	df 91       	pop	r29
    16fa:	cf 91       	pop	r28
    16fc:	1f 91       	pop	r17
    16fe:	0f 91       	pop	r16
    1700:	ff 90       	pop	r15
    1702:	ef 90       	pop	r14
    1704:	df 90       	pop	r13
    1706:	cf 90       	pop	r12
    1708:	bf 90       	pop	r11
    170a:	af 90       	pop	r10
    170c:	9f 90       	pop	r9
    170e:	8f 90       	pop	r8
    1710:	08 95       	ret

00001712 <f64toa>:
    1712:	cf 93       	push	r28
    1714:	df 93       	push	r29
    1716:	cd b7       	in	r28, 0x3d	; 61
    1718:	de b7       	in	r29, 0x3e	; 62
    171a:	27 97       	sbiw	r28, 0x07	; 7
    171c:	0f b6       	in	r0, 0x3f	; 63
    171e:	f8 94       	cli
    1720:	de bf       	out	0x3e, r29	; 62
    1722:	0f be       	out	0x3f, r0	; 63
    1724:	cd bf       	out	0x3d, r28	; 61
    1726:	69 83       	std	Y+1, r22	; 0x01
    1728:	7a 83       	std	Y+2, r23	; 0x02
    172a:	8b 83       	std	Y+3, r24	; 0x03
    172c:	9c 83       	std	Y+4, r25	; 0x04
    172e:	5e 83       	std	Y+6, r21	; 0x06
    1730:	4d 83       	std	Y+5, r20	; 0x05
    1732:	2f 83       	std	Y+7, r18	; 0x07
    1734:	4d 81       	ldd	r20, Y+5	; 0x05
    1736:	5e 81       	ldd	r21, Y+6	; 0x06
    1738:	89 81       	ldd	r24, Y+1	; 0x01
    173a:	9a 81       	ldd	r25, Y+2	; 0x02
    173c:	ab 81       	ldd	r26, Y+3	; 0x03
    173e:	bc 81       	ldd	r27, Y+4	; 0x04
    1740:	2f 81       	ldd	r18, Y+7	; 0x07
    1742:	bc 01       	movw	r22, r24
    1744:	cd 01       	movw	r24, r26
    1746:	0e 94 e1 07 	call	0xfc2	; 0xfc2 <f32toa>
    174a:	27 96       	adiw	r28, 0x07	; 7
    174c:	0f b6       	in	r0, 0x3f	; 63
    174e:	f8 94       	cli
    1750:	de bf       	out	0x3e, r29	; 62
    1752:	0f be       	out	0x3f, r0	; 63
    1754:	cd bf       	out	0x3d, r28	; 61
    1756:	df 91       	pop	r29
    1758:	cf 91       	pop	r28
    175a:	08 95       	ret

0000175c <atof64>:
    175c:	8f 92       	push	r8
    175e:	9f 92       	push	r9
    1760:	af 92       	push	r10
    1762:	bf 92       	push	r11
    1764:	cf 92       	push	r12
    1766:	df 92       	push	r13
    1768:	ef 92       	push	r14
    176a:	ff 92       	push	r15
    176c:	0f 93       	push	r16
    176e:	1f 93       	push	r17
    1770:	cf 93       	push	r28
    1772:	df 93       	push	r29
    1774:	cd b7       	in	r28, 0x3d	; 61
    1776:	de b7       	in	r29, 0x3e	; 62
    1778:	65 97       	sbiw	r28, 0x15	; 21
    177a:	0f b6       	in	r0, 0x3f	; 63
    177c:	f8 94       	cli
    177e:	de bf       	out	0x3e, r29	; 62
    1780:	0f be       	out	0x3f, r0	; 63
    1782:	cd bf       	out	0x3d, r28	; 61
    1784:	9b 8b       	std	Y+19, r25	; 0x13
    1786:	8a 8b       	std	Y+18, r24	; 0x12
    1788:	7d 8b       	std	Y+21, r23	; 0x15
    178a:	6c 8b       	std	Y+20, r22	; 0x14
    178c:	8a 89       	ldd	r24, Y+18	; 0x12
    178e:	9b 89       	ldd	r25, Y+19	; 0x13
    1790:	fc 01       	movw	r30, r24
    1792:	80 81       	ld	r24, Z
    1794:	08 2e       	mov	r0, r24
    1796:	00 0c       	add	r0, r0
    1798:	99 0b       	sbc	r25, r25
    179a:	c0 97       	sbiw	r24, 0x30	; 48
    179c:	0a 97       	sbiw	r24, 0x0a	; 10
    179e:	50 f0       	brcs	.+20     	; 0x17b4 <atof64+0x58>
    17a0:	8a 89       	ldd	r24, Y+18	; 0x12
    17a2:	9b 89       	ldd	r25, Y+19	; 0x13
    17a4:	fc 01       	movw	r30, r24
    17a6:	80 81       	ld	r24, Z
    17a8:	8d 32       	cpi	r24, 0x2D	; 45
    17aa:	21 f0       	breq	.+8      	; 0x17b4 <atof64+0x58>
    17ac:	80 e0       	ldi	r24, 0x00	; 0
    17ae:	90 e0       	ldi	r25, 0x00	; 0
    17b0:	dc 01       	movw	r26, r24
    17b2:	c2 c0       	rjmp	.+388    	; 0x1938 <atof64+0x1dc>
    17b4:	8a 89       	ldd	r24, Y+18	; 0x12
    17b6:	9b 89       	ldd	r25, Y+19	; 0x13
    17b8:	fc 01       	movw	r30, r24
    17ba:	90 81       	ld	r25, Z
    17bc:	81 e0       	ldi	r24, 0x01	; 1
    17be:	9d 32       	cpi	r25, 0x2D	; 45
    17c0:	09 f0       	breq	.+2      	; 0x17c4 <atof64+0x68>
    17c2:	80 e0       	ldi	r24, 0x00	; 0
    17c4:	89 83       	std	Y+1, r24	; 0x01
    17c6:	89 81       	ldd	r24, Y+1	; 0x01
    17c8:	88 23       	and	r24, r24
    17ca:	29 f0       	breq	.+10     	; 0x17d6 <atof64+0x7a>
    17cc:	8a 89       	ldd	r24, Y+18	; 0x12
    17ce:	9b 89       	ldd	r25, Y+19	; 0x13
    17d0:	01 96       	adiw	r24, 0x01	; 1
    17d2:	9b 8b       	std	Y+19, r25	; 0x13
    17d4:	8a 8b       	std	Y+18, r24	; 0x12
    17d6:	9e 01       	movw	r18, r28
    17d8:	20 5f       	subi	r18, 0xF0	; 240
    17da:	3f 4f       	sbci	r19, 0xFF	; 255
    17dc:	8a 89       	ldd	r24, Y+18	; 0x12
    17de:	9b 89       	ldd	r25, Y+19	; 0x13
    17e0:	a9 01       	movw	r20, r18
    17e2:	6a e0       	ldi	r22, 0x0A	; 10
    17e4:	0e 94 d5 05 	call	0xbaa	; 0xbaa <atou32>
    17e8:	dc 01       	movw	r26, r24
    17ea:	cb 01       	movw	r24, r22
    17ec:	9b 83       	std	Y+3, r25	; 0x03
    17ee:	8a 83       	std	Y+2, r24	; 0x02
    17f0:	88 89       	ldd	r24, Y+16	; 0x10
    17f2:	99 89       	ldd	r25, Y+17	; 0x11
    17f4:	9b 8b       	std	Y+19, r25	; 0x13
    17f6:	8a 8b       	std	Y+18, r24	; 0x12
    17f8:	8a 89       	ldd	r24, Y+18	; 0x12
    17fa:	9b 89       	ldd	r25, Y+19	; 0x13
    17fc:	fc 01       	movw	r30, r24
    17fe:	80 81       	ld	r24, Z
    1800:	8e 32       	cpi	r24, 0x2E	; 46
    1802:	09 f0       	breq	.+2      	; 0x1806 <atof64+0xaa>
    1804:	72 c0       	rjmp	.+228    	; 0x18ea <atof64+0x18e>
    1806:	8a 89       	ldd	r24, Y+18	; 0x12
    1808:	9b 89       	ldd	r25, Y+19	; 0x13
    180a:	01 96       	adiw	r24, 0x01	; 1
    180c:	9b 8b       	std	Y+19, r25	; 0x13
    180e:	8a 8b       	std	Y+18, r24	; 0x12
    1810:	9e 01       	movw	r18, r28
    1812:	20 5f       	subi	r18, 0xF0	; 240
    1814:	3f 4f       	sbci	r19, 0xFF	; 255
    1816:	8a 89       	ldd	r24, Y+18	; 0x12
    1818:	9b 89       	ldd	r25, Y+19	; 0x13
    181a:	a9 01       	movw	r20, r18
    181c:	6a e0       	ldi	r22, 0x0A	; 10
    181e:	0e 94 3e 06 	call	0xc7c	; 0xc7c <atou64>
    1822:	a2 2e       	mov	r10, r18
    1824:	b3 2e       	mov	r11, r19
    1826:	c4 2e       	mov	r12, r20
    1828:	d5 2e       	mov	r13, r21
    182a:	e6 2e       	mov	r14, r22
    182c:	f7 2e       	mov	r15, r23
    182e:	08 2f       	mov	r16, r24
    1830:	19 2f       	mov	r17, r25
    1832:	ac 82       	std	Y+4, r10	; 0x04
    1834:	bd 82       	std	Y+5, r11	; 0x05
    1836:	ce 82       	std	Y+6, r12	; 0x06
    1838:	df 82       	std	Y+7, r13	; 0x07
    183a:	e8 86       	std	Y+8, r14	; 0x08
    183c:	f9 86       	std	Y+9, r15	; 0x09
    183e:	0a 87       	std	Y+10, r16	; 0x0a
    1840:	1b 87       	std	Y+11, r17	; 0x0b
    1842:	8c 89       	ldd	r24, Y+20	; 0x14
    1844:	9d 89       	ldd	r25, Y+21	; 0x15
    1846:	89 2b       	or	r24, r25
    1848:	39 f0       	breq	.+14     	; 0x1858 <atof64+0xfc>
    184a:	28 89       	ldd	r18, Y+16	; 0x10
    184c:	39 89       	ldd	r19, Y+17	; 0x11
    184e:	8c 89       	ldd	r24, Y+20	; 0x14
    1850:	9d 89       	ldd	r25, Y+21	; 0x15
    1852:	fc 01       	movw	r30, r24
    1854:	31 83       	std	Z+1, r19	; 0x01
    1856:	20 83       	st	Z, r18
    1858:	8a 81       	ldd	r24, Y+2	; 0x02
    185a:	9b 81       	ldd	r25, Y+3	; 0x03
    185c:	cc 01       	movw	r24, r24
    185e:	a0 e0       	ldi	r26, 0x00	; 0
    1860:	b0 e0       	ldi	r27, 0x00	; 0
    1862:	bc 01       	movw	r22, r24
    1864:	cd 01       	movw	r24, r26
    1866:	0e 94 56 33 	call	0x66ac	; 0x66ac <__floatunsisf>
    186a:	6b 01       	movw	r12, r22
    186c:	7c 01       	movw	r14, r24
    186e:	2c 81       	ldd	r18, Y+4	; 0x04
    1870:	3d 81       	ldd	r19, Y+5	; 0x05
    1872:	4e 81       	ldd	r20, Y+6	; 0x06
    1874:	5f 81       	ldd	r21, Y+7	; 0x07
    1876:	68 85       	ldd	r22, Y+8	; 0x08
    1878:	79 85       	ldd	r23, Y+9	; 0x09
    187a:	8a 85       	ldd	r24, Y+10	; 0x0a
    187c:	9b 85       	ldd	r25, Y+11	; 0x0b
    187e:	0e 94 50 33 	call	0x66a0	; 0x66a0 <__floatdisf>
    1882:	4b 01       	movw	r8, r22
    1884:	5c 01       	movw	r10, r24
    1886:	88 89       	ldd	r24, Y+16	; 0x10
    1888:	99 89       	ldd	r25, Y+17	; 0x11
    188a:	9c 01       	movw	r18, r24
    188c:	8a 89       	ldd	r24, Y+18	; 0x12
    188e:	9b 89       	ldd	r25, Y+19	; 0x13
    1890:	a9 01       	movw	r20, r18
    1892:	48 1b       	sub	r20, r24
    1894:	59 0b       	sbc	r21, r25
    1896:	ca 01       	movw	r24, r20
    1898:	bc 01       	movw	r22, r24
    189a:	8a e0       	ldi	r24, 0x0A	; 10
    189c:	90 e0       	ldi	r25, 0x00	; 0
    189e:	0e 94 00 0a 	call	0x1400	; 0x1400 <local_pow>
    18a2:	dc 01       	movw	r26, r24
    18a4:	cb 01       	movw	r24, r22
    18a6:	9c 01       	movw	r18, r24
    18a8:	ad 01       	movw	r20, r26
    18aa:	c5 01       	movw	r24, r10
    18ac:	b4 01       	movw	r22, r8
    18ae:	0e 94 6c 32 	call	0x64d8	; 0x64d8 <__divsf3>
    18b2:	dc 01       	movw	r26, r24
    18b4:	cb 01       	movw	r24, r22
    18b6:	9c 01       	movw	r18, r24
    18b8:	ad 01       	movw	r20, r26
    18ba:	c7 01       	movw	r24, r14
    18bc:	b6 01       	movw	r22, r12
    18be:	0e 94 fb 31 	call	0x63f6	; 0x63f6 <__addsf3>
    18c2:	dc 01       	movw	r26, r24
    18c4:	cb 01       	movw	r24, r22
    18c6:	8c 87       	std	Y+12, r24	; 0x0c
    18c8:	9d 87       	std	Y+13, r25	; 0x0d
    18ca:	ae 87       	std	Y+14, r26	; 0x0e
    18cc:	bf 87       	std	Y+15, r27	; 0x0f
    18ce:	89 81       	ldd	r24, Y+1	; 0x01
    18d0:	88 23       	and	r24, r24
    18d2:	31 f0       	breq	.+12     	; 0x18e0 <atof64+0x184>
    18d4:	8c 85       	ldd	r24, Y+12	; 0x0c
    18d6:	9d 85       	ldd	r25, Y+13	; 0x0d
    18d8:	ae 85       	ldd	r26, Y+14	; 0x0e
    18da:	bf 85       	ldd	r27, Y+15	; 0x0f
    18dc:	b0 58       	subi	r27, 0x80	; 128
    18de:	2c c0       	rjmp	.+88     	; 0x1938 <atof64+0x1dc>
    18e0:	8c 85       	ldd	r24, Y+12	; 0x0c
    18e2:	9d 85       	ldd	r25, Y+13	; 0x0d
    18e4:	ae 85       	ldd	r26, Y+14	; 0x0e
    18e6:	bf 85       	ldd	r27, Y+15	; 0x0f
    18e8:	27 c0       	rjmp	.+78     	; 0x1938 <atof64+0x1dc>
    18ea:	8c 89       	ldd	r24, Y+20	; 0x14
    18ec:	9d 89       	ldd	r25, Y+21	; 0x15
    18ee:	89 2b       	or	r24, r25
    18f0:	39 f0       	breq	.+14     	; 0x1900 <atof64+0x1a4>
    18f2:	28 89       	ldd	r18, Y+16	; 0x10
    18f4:	39 89       	ldd	r19, Y+17	; 0x11
    18f6:	8c 89       	ldd	r24, Y+20	; 0x14
    18f8:	9d 89       	ldd	r25, Y+21	; 0x15
    18fa:	fc 01       	movw	r30, r24
    18fc:	31 83       	std	Z+1, r19	; 0x01
    18fe:	20 83       	st	Z, r18
    1900:	89 81       	ldd	r24, Y+1	; 0x01
    1902:	88 23       	and	r24, r24
    1904:	69 f0       	breq	.+26     	; 0x1920 <atof64+0x1c4>
    1906:	8a 81       	ldd	r24, Y+2	; 0x02
    1908:	9b 81       	ldd	r25, Y+3	; 0x03
    190a:	cc 01       	movw	r24, r24
    190c:	a0 e0       	ldi	r26, 0x00	; 0
    190e:	b0 e0       	ldi	r27, 0x00	; 0
    1910:	bc 01       	movw	r22, r24
    1912:	cd 01       	movw	r24, r26
    1914:	0e 94 56 33 	call	0x66ac	; 0x66ac <__floatunsisf>
    1918:	dc 01       	movw	r26, r24
    191a:	cb 01       	movw	r24, r22
    191c:	b0 58       	subi	r27, 0x80	; 128
    191e:	0c c0       	rjmp	.+24     	; 0x1938 <atof64+0x1dc>
    1920:	8a 81       	ldd	r24, Y+2	; 0x02
    1922:	9b 81       	ldd	r25, Y+3	; 0x03
    1924:	cc 01       	movw	r24, r24
    1926:	a0 e0       	ldi	r26, 0x00	; 0
    1928:	b0 e0       	ldi	r27, 0x00	; 0
    192a:	bc 01       	movw	r22, r24
    192c:	cd 01       	movw	r24, r26
    192e:	0e 94 56 33 	call	0x66ac	; 0x66ac <__floatunsisf>
    1932:	dc 01       	movw	r26, r24
    1934:	cb 01       	movw	r24, r22
    1936:	00 00       	nop
    1938:	bc 01       	movw	r22, r24
    193a:	cd 01       	movw	r24, r26
    193c:	65 96       	adiw	r28, 0x15	; 21
    193e:	0f b6       	in	r0, 0x3f	; 63
    1940:	f8 94       	cli
    1942:	de bf       	out	0x3e, r29	; 62
    1944:	0f be       	out	0x3f, r0	; 63
    1946:	cd bf       	out	0x3d, r28	; 61
    1948:	df 91       	pop	r29
    194a:	cf 91       	pop	r28
    194c:	1f 91       	pop	r17
    194e:	0f 91       	pop	r16
    1950:	ff 90       	pop	r15
    1952:	ef 90       	pop	r14
    1954:	df 90       	pop	r13
    1956:	cf 90       	pop	r12
    1958:	bf 90       	pop	r11
    195a:	af 90       	pop	r10
    195c:	9f 90       	pop	r9
    195e:	8f 90       	pop	r8
    1960:	08 95       	ret

00001962 <debug_print_newline>:
    1962:	cf 93       	push	r28
    1964:	df 93       	push	r29
    1966:	cd b7       	in	r28, 0x3d	; 61
    1968:	de b7       	in	r29, 0x3e	; 62
    196a:	8d e0       	ldi	r24, 0x0D	; 13
    196c:	0e 94 6c 01 	call	0x2d8	; 0x2d8 <debug_putchar>
    1970:	8a e0       	ldi	r24, 0x0A	; 10
    1972:	0e 94 6c 01 	call	0x2d8	; 0x2d8 <debug_putchar>
    1976:	00 00       	nop
    1978:	df 91       	pop	r29
    197a:	cf 91       	pop	r28
    197c:	08 95       	ret

0000197e <debug_print_location>:
    197e:	cf 93       	push	r28
    1980:	df 93       	push	r29
    1982:	00 d0       	rcall	.+0      	; 0x1984 <debug_print_location+0x6>
    1984:	00 d0       	rcall	.+0      	; 0x1986 <debug_print_location+0x8>
    1986:	00 d0       	rcall	.+0      	; 0x1988 <debug_print_location+0xa>
    1988:	cd b7       	in	r28, 0x3d	; 61
    198a:	de b7       	in	r29, 0x3e	; 62
    198c:	49 83       	std	Y+1, r20	; 0x01
    198e:	5a 83       	std	Y+2, r21	; 0x02
    1990:	6b 83       	std	Y+3, r22	; 0x03
    1992:	7c 83       	std	Y+4, r23	; 0x04
    1994:	8d 83       	std	Y+5, r24	; 0x05
    1996:	9e 83       	std	Y+6, r25	; 0x06
    1998:	8c e4       	ldi	r24, 0x4C	; 76
    199a:	91 e0       	ldi	r25, 0x01	; 1
    199c:	0e 94 1c 1d 	call	0x3a38	; 0x3a38 <debug_print>
    19a0:	8b 81       	ldd	r24, Y+3	; 0x03
    19a2:	9c 81       	ldd	r25, Y+4	; 0x04
    19a4:	0e 94 1c 1d 	call	0x3a38	; 0x3a38 <debug_print>
    19a8:	0e 94 b1 0c 	call	0x1962	; 0x1962 <debug_print_newline>
    19ac:	83 e5       	ldi	r24, 0x53	; 83
    19ae:	91 e0       	ldi	r25, 0x01	; 1
    19b0:	0e 94 1c 1d 	call	0x3a38	; 0x3a38 <debug_print>
    19b4:	8d 81       	ldd	r24, Y+5	; 0x05
    19b6:	9e 81       	ldd	r25, Y+6	; 0x06
    19b8:	0e 94 1c 1d 	call	0x3a38	; 0x3a38 <debug_print>
    19bc:	0e 94 b1 0c 	call	0x1962	; 0x1962 <debug_print_newline>
    19c0:	8a e5       	ldi	r24, 0x5A	; 90
    19c2:	91 e0       	ldi	r25, 0x01	; 1
    19c4:	0e 94 1c 1d 	call	0x3a38	; 0x3a38 <debug_print>
    19c8:	89 81       	ldd	r24, Y+1	; 0x01
    19ca:	9a 81       	ldd	r25, Y+2	; 0x02
    19cc:	0e 94 aa 1f 	call	0x3f54	; 0x3f54 <debug_printdec_unsigned_int>
    19d0:	0e 94 b1 0c 	call	0x1962	; 0x1962 <debug_print_newline>
    19d4:	00 00       	nop
    19d6:	26 96       	adiw	r28, 0x06	; 6
    19d8:	0f b6       	in	r0, 0x3f	; 63
    19da:	f8 94       	cli
    19dc:	de bf       	out	0x3e, r29	; 62
    19de:	0f be       	out	0x3f, r0	; 63
    19e0:	cd bf       	out	0x3d, r28	; 61
    19e2:	df 91       	pop	r29
    19e4:	cf 91       	pop	r28
    19e6:	08 95       	ret

000019e8 <_ZL8hex2halfc>:
    19e8:	cf 93       	push	r28
    19ea:	df 93       	push	r29
    19ec:	1f 92       	push	r1
    19ee:	cd b7       	in	r28, 0x3d	; 61
    19f0:	de b7       	in	r29, 0x3e	; 62
    19f2:	89 83       	std	Y+1, r24	; 0x01
    19f4:	89 81       	ldd	r24, Y+1	; 0x01
    19f6:	8a 33       	cpi	r24, 0x3A	; 58
    19f8:	1c f4       	brge	.+6      	; 0x1a00 <_ZL8hex2halfc+0x18>
    19fa:	89 81       	ldd	r24, Y+1	; 0x01
    19fc:	80 53       	subi	r24, 0x30	; 48
    19fe:	02 c0       	rjmp	.+4      	; 0x1a04 <_ZL8hex2halfc+0x1c>
    1a00:	89 81       	ldd	r24, Y+1	; 0x01
    1a02:	87 53       	subi	r24, 0x37	; 55
    1a04:	0f 90       	pop	r0
    1a06:	df 91       	pop	r29
    1a08:	cf 91       	pop	r28
    1a0a:	08 95       	ret

00001a0c <_ZL8half2hexh>:
    1a0c:	cf 93       	push	r28
    1a0e:	df 93       	push	r29
    1a10:	1f 92       	push	r1
    1a12:	cd b7       	in	r28, 0x3d	; 61
    1a14:	de b7       	in	r29, 0x3e	; 62
    1a16:	89 83       	std	Y+1, r24	; 0x01
    1a18:	89 81       	ldd	r24, Y+1	; 0x01
    1a1a:	8a 30       	cpi	r24, 0x0A	; 10
    1a1c:	18 f4       	brcc	.+6      	; 0x1a24 <_ZL8half2hexh+0x18>
    1a1e:	89 81       	ldd	r24, Y+1	; 0x01
    1a20:	80 5d       	subi	r24, 0xD0	; 208
    1a22:	02 c0       	rjmp	.+4      	; 0x1a28 <_ZL8half2hexh+0x1c>
    1a24:	89 81       	ldd	r24, Y+1	; 0x01
    1a26:	89 5c       	subi	r24, 0xC9	; 201
    1a28:	0f 90       	pop	r0
    1a2a:	df 91       	pop	r29
    1a2c:	cf 91       	pop	r28
    1a2e:	08 95       	ret

00001a30 <_ZL8hex2bytecc>:
    1a30:	1f 93       	push	r17
    1a32:	cf 93       	push	r28
    1a34:	df 93       	push	r29
    1a36:	00 d0       	rcall	.+0      	; 0x1a38 <_ZL8hex2bytecc+0x8>
    1a38:	cd b7       	in	r28, 0x3d	; 61
    1a3a:	de b7       	in	r29, 0x3e	; 62
    1a3c:	89 83       	std	Y+1, r24	; 0x01
    1a3e:	6a 83       	std	Y+2, r22	; 0x02
    1a40:	89 81       	ldd	r24, Y+1	; 0x01
    1a42:	0e 94 f4 0c 	call	0x19e8	; 0x19e8 <_ZL8hex2halfc>
    1a46:	18 2f       	mov	r17, r24
    1a48:	12 95       	swap	r17
    1a4a:	10 7f       	andi	r17, 0xF0	; 240
    1a4c:	8a 81       	ldd	r24, Y+2	; 0x02
    1a4e:	0e 94 f4 0c 	call	0x19e8	; 0x19e8 <_ZL8hex2halfc>
    1a52:	81 0f       	add	r24, r17
    1a54:	0f 90       	pop	r0
    1a56:	0f 90       	pop	r0
    1a58:	df 91       	pop	r29
    1a5a:	cf 91       	pop	r28
    1a5c:	1f 91       	pop	r17
    1a5e:	08 95       	ret

00001a60 <hexascii_encode>:
    1a60:	0f 93       	push	r16
    1a62:	1f 93       	push	r17
    1a64:	cf 93       	push	r28
    1a66:	df 93       	push	r29
    1a68:	cd b7       	in	r28, 0x3d	; 61
    1a6a:	de b7       	in	r29, 0x3e	; 62
    1a6c:	2e 97       	sbiw	r28, 0x0e	; 14
    1a6e:	0f b6       	in	r0, 0x3f	; 63
    1a70:	f8 94       	cli
    1a72:	de bf       	out	0x3e, r29	; 62
    1a74:	0f be       	out	0x3f, r0	; 63
    1a76:	cd bf       	out	0x3d, r28	; 61
    1a78:	9a 87       	std	Y+10, r25	; 0x0a
    1a7a:	89 87       	std	Y+9, r24	; 0x09
    1a7c:	7c 87       	std	Y+12, r23	; 0x0c
    1a7e:	6b 87       	std	Y+11, r22	; 0x0b
    1a80:	5e 87       	std	Y+14, r21	; 0x0e
    1a82:	4d 87       	std	Y+13, r20	; 0x0d
    1a84:	89 85       	ldd	r24, Y+9	; 0x09
    1a86:	9a 85       	ldd	r25, Y+10	; 0x0a
    1a88:	9e 83       	std	Y+6, r25	; 0x06
    1a8a:	8d 83       	std	Y+5, r24	; 0x05
    1a8c:	8b 85       	ldd	r24, Y+11	; 0x0b
    1a8e:	9c 85       	ldd	r25, Y+12	; 0x0c
    1a90:	29 85       	ldd	r18, Y+9	; 0x09
    1a92:	3a 85       	ldd	r19, Y+10	; 0x0a
    1a94:	82 0f       	add	r24, r18
    1a96:	93 1f       	adc	r25, r19
    1a98:	98 87       	std	Y+8, r25	; 0x08
    1a9a:	8f 83       	std	Y+7, r24	; 0x07
    1a9c:	8d 85       	ldd	r24, Y+13	; 0x0d
    1a9e:	9e 85       	ldd	r25, Y+14	; 0x0e
    1aa0:	9a 83       	std	Y+2, r25	; 0x02
    1aa2:	89 83       	std	Y+1, r24	; 0x01
    1aa4:	8d 81       	ldd	r24, Y+5	; 0x05
    1aa6:	9e 81       	ldd	r25, Y+6	; 0x06
    1aa8:	9c 83       	std	Y+4, r25	; 0x04
    1aaa:	8b 83       	std	Y+3, r24	; 0x03
    1aac:	2b 81       	ldd	r18, Y+3	; 0x03
    1aae:	3c 81       	ldd	r19, Y+4	; 0x04
    1ab0:	8f 81       	ldd	r24, Y+7	; 0x07
    1ab2:	98 85       	ldd	r25, Y+8	; 0x08
    1ab4:	28 17       	cp	r18, r24
    1ab6:	39 07       	cpc	r19, r25
    1ab8:	29 f1       	breq	.+74     	; 0x1b04 <hexascii_encode+0xa4>
    1aba:	09 81       	ldd	r16, Y+1	; 0x01
    1abc:	1a 81       	ldd	r17, Y+2	; 0x02
    1abe:	c8 01       	movw	r24, r16
    1ac0:	01 96       	adiw	r24, 0x01	; 1
    1ac2:	9a 83       	std	Y+2, r25	; 0x02
    1ac4:	89 83       	std	Y+1, r24	; 0x01
    1ac6:	8b 81       	ldd	r24, Y+3	; 0x03
    1ac8:	9c 81       	ldd	r25, Y+4	; 0x04
    1aca:	fc 01       	movw	r30, r24
    1acc:	80 81       	ld	r24, Z
    1ace:	82 95       	swap	r24
    1ad0:	8f 70       	andi	r24, 0x0F	; 15
    1ad2:	0e 94 06 0d 	call	0x1a0c	; 0x1a0c <_ZL8half2hexh>
    1ad6:	f8 01       	movw	r30, r16
    1ad8:	80 83       	st	Z, r24
    1ada:	09 81       	ldd	r16, Y+1	; 0x01
    1adc:	1a 81       	ldd	r17, Y+2	; 0x02
    1ade:	c8 01       	movw	r24, r16
    1ae0:	01 96       	adiw	r24, 0x01	; 1
    1ae2:	9a 83       	std	Y+2, r25	; 0x02
    1ae4:	89 83       	std	Y+1, r24	; 0x01
    1ae6:	8b 81       	ldd	r24, Y+3	; 0x03
    1ae8:	9c 81       	ldd	r25, Y+4	; 0x04
    1aea:	fc 01       	movw	r30, r24
    1aec:	80 81       	ld	r24, Z
    1aee:	8f 70       	andi	r24, 0x0F	; 15
    1af0:	0e 94 06 0d 	call	0x1a0c	; 0x1a0c <_ZL8half2hexh>
    1af4:	f8 01       	movw	r30, r16
    1af6:	80 83       	st	Z, r24
    1af8:	8b 81       	ldd	r24, Y+3	; 0x03
    1afa:	9c 81       	ldd	r25, Y+4	; 0x04
    1afc:	01 96       	adiw	r24, 0x01	; 1
    1afe:	9c 83       	std	Y+4, r25	; 0x04
    1b00:	8b 83       	std	Y+3, r24	; 0x03
    1b02:	d4 cf       	rjmp	.-88     	; 0x1aac <hexascii_encode+0x4c>
    1b04:	89 81       	ldd	r24, Y+1	; 0x01
    1b06:	9a 81       	ldd	r25, Y+2	; 0x02
    1b08:	fc 01       	movw	r30, r24
    1b0a:	10 82       	st	Z, r1
    1b0c:	00 00       	nop
    1b0e:	2e 96       	adiw	r28, 0x0e	; 14
    1b10:	0f b6       	in	r0, 0x3f	; 63
    1b12:	f8 94       	cli
    1b14:	de bf       	out	0x3e, r29	; 62
    1b16:	0f be       	out	0x3f, r0	; 63
    1b18:	cd bf       	out	0x3d, r28	; 61
    1b1a:	df 91       	pop	r29
    1b1c:	cf 91       	pop	r28
    1b1e:	1f 91       	pop	r17
    1b20:	0f 91       	pop	r16
    1b22:	08 95       	ret

00001b24 <hexascii_decode>:
    1b24:	0f 93       	push	r16
    1b26:	1f 93       	push	r17
    1b28:	cf 93       	push	r28
    1b2a:	df 93       	push	r29
    1b2c:	cd b7       	in	r28, 0x3d	; 61
    1b2e:	de b7       	in	r29, 0x3e	; 62
    1b30:	2e 97       	sbiw	r28, 0x0e	; 14
    1b32:	0f b6       	in	r0, 0x3f	; 63
    1b34:	f8 94       	cli
    1b36:	de bf       	out	0x3e, r29	; 62
    1b38:	0f be       	out	0x3f, r0	; 63
    1b3a:	cd bf       	out	0x3d, r28	; 61
    1b3c:	9a 87       	std	Y+10, r25	; 0x0a
    1b3e:	89 87       	std	Y+9, r24	; 0x09
    1b40:	7c 87       	std	Y+12, r23	; 0x0c
    1b42:	6b 87       	std	Y+11, r22	; 0x0b
    1b44:	5e 87       	std	Y+14, r21	; 0x0e
    1b46:	4d 87       	std	Y+13, r20	; 0x0d
    1b48:	8b 85       	ldd	r24, Y+11	; 0x0b
    1b4a:	9c 85       	ldd	r25, Y+12	; 0x0c
    1b4c:	81 70       	andi	r24, 0x01	; 1
    1b4e:	90 78       	andi	r25, 0x80	; 128
    1b50:	99 23       	and	r25, r25
    1b52:	24 f4       	brge	.+8      	; 0x1b5c <hexascii_decode+0x38>
    1b54:	01 97       	sbiw	r24, 0x01	; 1
    1b56:	8e 6f       	ori	r24, 0xFE	; 254
    1b58:	9f 6f       	ori	r25, 0xFF	; 255
    1b5a:	01 96       	adiw	r24, 0x01	; 1
    1b5c:	01 97       	sbiw	r24, 0x01	; 1
    1b5e:	29 f4       	brne	.+10     	; 0x1b6a <hexascii_decode+0x46>
    1b60:	8b 85       	ldd	r24, Y+11	; 0x0b
    1b62:	9c 85       	ldd	r25, Y+12	; 0x0c
    1b64:	01 97       	sbiw	r24, 0x01	; 1
    1b66:	9c 87       	std	Y+12, r25	; 0x0c
    1b68:	8b 87       	std	Y+11, r24	; 0x0b
    1b6a:	8b 85       	ldd	r24, Y+11	; 0x0b
    1b6c:	9c 85       	ldd	r25, Y+12	; 0x0c
    1b6e:	18 16       	cp	r1, r24
    1b70:	19 06       	cpc	r1, r25
    1b72:	dc f5       	brge	.+118    	; 0x1bea <hexascii_decode+0xc6>
    1b74:	89 85       	ldd	r24, Y+9	; 0x09
    1b76:	9a 85       	ldd	r25, Y+10	; 0x0a
    1b78:	9e 83       	std	Y+6, r25	; 0x06
    1b7a:	8d 83       	std	Y+5, r24	; 0x05
    1b7c:	8b 85       	ldd	r24, Y+11	; 0x0b
    1b7e:	9c 85       	ldd	r25, Y+12	; 0x0c
    1b80:	29 85       	ldd	r18, Y+9	; 0x09
    1b82:	3a 85       	ldd	r19, Y+10	; 0x0a
    1b84:	82 0f       	add	r24, r18
    1b86:	93 1f       	adc	r25, r19
    1b88:	98 87       	std	Y+8, r25	; 0x08
    1b8a:	8f 83       	std	Y+7, r24	; 0x07
    1b8c:	8d 85       	ldd	r24, Y+13	; 0x0d
    1b8e:	9e 85       	ldd	r25, Y+14	; 0x0e
    1b90:	9a 83       	std	Y+2, r25	; 0x02
    1b92:	89 83       	std	Y+1, r24	; 0x01
    1b94:	8d 81       	ldd	r24, Y+5	; 0x05
    1b96:	9e 81       	ldd	r25, Y+6	; 0x06
    1b98:	9c 83       	std	Y+4, r25	; 0x04
    1b9a:	8b 83       	std	Y+3, r24	; 0x03
    1b9c:	2b 81       	ldd	r18, Y+3	; 0x03
    1b9e:	3c 81       	ldd	r19, Y+4	; 0x04
    1ba0:	8f 81       	ldd	r24, Y+7	; 0x07
    1ba2:	98 85       	ldd	r25, Y+8	; 0x08
    1ba4:	28 17       	cp	r18, r24
    1ba6:	39 07       	cpc	r19, r25
    1ba8:	d9 f0       	breq	.+54     	; 0x1be0 <hexascii_decode+0xbc>
    1baa:	09 81       	ldd	r16, Y+1	; 0x01
    1bac:	1a 81       	ldd	r17, Y+2	; 0x02
    1bae:	c8 01       	movw	r24, r16
    1bb0:	01 96       	adiw	r24, 0x01	; 1
    1bb2:	9a 83       	std	Y+2, r25	; 0x02
    1bb4:	89 83       	std	Y+1, r24	; 0x01
    1bb6:	8b 81       	ldd	r24, Y+3	; 0x03
    1bb8:	9c 81       	ldd	r25, Y+4	; 0x04
    1bba:	01 96       	adiw	r24, 0x01	; 1
    1bbc:	fc 01       	movw	r30, r24
    1bbe:	80 81       	ld	r24, Z
    1bc0:	28 2f       	mov	r18, r24
    1bc2:	8b 81       	ldd	r24, Y+3	; 0x03
    1bc4:	9c 81       	ldd	r25, Y+4	; 0x04
    1bc6:	fc 01       	movw	r30, r24
    1bc8:	80 81       	ld	r24, Z
    1bca:	62 2f       	mov	r22, r18
    1bcc:	0e 94 18 0d 	call	0x1a30	; 0x1a30 <_ZL8hex2bytecc>
    1bd0:	f8 01       	movw	r30, r16
    1bd2:	80 83       	st	Z, r24
    1bd4:	8b 81       	ldd	r24, Y+3	; 0x03
    1bd6:	9c 81       	ldd	r25, Y+4	; 0x04
    1bd8:	02 96       	adiw	r24, 0x02	; 2
    1bda:	9c 83       	std	Y+4, r25	; 0x04
    1bdc:	8b 83       	std	Y+3, r24	; 0x03
    1bde:	de cf       	rjmp	.-68     	; 0x1b9c <hexascii_decode+0x78>
    1be0:	89 81       	ldd	r24, Y+1	; 0x01
    1be2:	9a 81       	ldd	r25, Y+2	; 0x02
    1be4:	fc 01       	movw	r30, r24
    1be6:	10 82       	st	Z, r1
    1be8:	01 c0       	rjmp	.+2      	; 0x1bec <hexascii_decode+0xc8>
    1bea:	00 00       	nop
    1bec:	2e 96       	adiw	r28, 0x0e	; 14
    1bee:	0f b6       	in	r0, 0x3f	; 63
    1bf0:	f8 94       	cli
    1bf2:	de bf       	out	0x3e, r29	; 62
    1bf4:	0f be       	out	0x3f, r0	; 63
    1bf6:	cd bf       	out	0x3d, r28	; 61
    1bf8:	df 91       	pop	r29
    1bfa:	cf 91       	pop	r28
    1bfc:	1f 91       	pop	r17
    1bfe:	0f 91       	pop	r16
    1c00:	08 95       	ret

00001c02 <half2hex>:
    1c02:	cf 93       	push	r28
    1c04:	df 93       	push	r29
    1c06:	1f 92       	push	r1
    1c08:	cd b7       	in	r28, 0x3d	; 61
    1c0a:	de b7       	in	r29, 0x3e	; 62
    1c0c:	89 83       	std	Y+1, r24	; 0x01
    1c0e:	89 81       	ldd	r24, Y+1	; 0x01
    1c10:	8a 30       	cpi	r24, 0x0A	; 10
    1c12:	18 f4       	brcc	.+6      	; 0x1c1a <half2hex+0x18>
    1c14:	89 81       	ldd	r24, Y+1	; 0x01
    1c16:	80 5d       	subi	r24, 0xD0	; 208
    1c18:	02 c0       	rjmp	.+4      	; 0x1c1e <half2hex+0x1c>
    1c1a:	89 81       	ldd	r24, Y+1	; 0x01
    1c1c:	89 5c       	subi	r24, 0xC9	; 201
    1c1e:	0f 90       	pop	r0
    1c20:	df 91       	pop	r29
    1c22:	cf 91       	pop	r28
    1c24:	08 95       	ret

00001c26 <bytes_to_dstring>:
    1c26:	cf 93       	push	r28
    1c28:	df 93       	push	r29
    1c2a:	cd b7       	in	r28, 0x3d	; 61
    1c2c:	de b7       	in	r29, 0x3e	; 62
    1c2e:	2e 97       	sbiw	r28, 0x0e	; 14
    1c30:	0f b6       	in	r0, 0x3f	; 63
    1c32:	f8 94       	cli
    1c34:	de bf       	out	0x3e, r29	; 62
    1c36:	0f be       	out	0x3f, r0	; 63
    1c38:	cd bf       	out	0x3d, r28	; 61
    1c3a:	9a 87       	std	Y+10, r25	; 0x0a
    1c3c:	89 87       	std	Y+9, r24	; 0x09
    1c3e:	7c 87       	std	Y+12, r23	; 0x0c
    1c40:	6b 87       	std	Y+11, r22	; 0x0b
    1c42:	5e 87       	std	Y+14, r21	; 0x0e
    1c44:	4d 87       	std	Y+13, r20	; 0x0d
    1c46:	8b 85       	ldd	r24, Y+11	; 0x0b
    1c48:	9c 85       	ldd	r25, Y+12	; 0x0c
    1c4a:	9a 83       	std	Y+2, r25	; 0x02
    1c4c:	89 83       	std	Y+1, r24	; 0x01
    1c4e:	29 81       	ldd	r18, Y+1	; 0x01
    1c50:	3a 81       	ldd	r19, Y+2	; 0x02
    1c52:	8d 85       	ldd	r24, Y+13	; 0x0d
    1c54:	9e 85       	ldd	r25, Y+14	; 0x0e
    1c56:	82 0f       	add	r24, r18
    1c58:	93 1f       	adc	r25, r19
    1c5a:	9e 83       	std	Y+6, r25	; 0x06
    1c5c:	8d 83       	std	Y+5, r24	; 0x05
    1c5e:	89 85       	ldd	r24, Y+9	; 0x09
    1c60:	9a 85       	ldd	r25, Y+10	; 0x0a
    1c62:	9c 83       	std	Y+4, r25	; 0x04
    1c64:	8b 83       	std	Y+3, r24	; 0x03
    1c66:	b3 c0       	rjmp	.+358    	; 0x1dce <bytes_to_dstring+0x1a8>
    1c68:	89 81       	ldd	r24, Y+1	; 0x01
    1c6a:	9a 81       	ldd	r25, Y+2	; 0x02
    1c6c:	fc 01       	movw	r30, r24
    1c6e:	80 81       	ld	r24, Z
    1c70:	08 2e       	mov	r0, r24
    1c72:	00 0c       	add	r0, r0
    1c74:	99 0b       	sbc	r25, r25
    1c76:	0e 94 e0 34 	call	0x69c0	; 0x69c0 <isprint>
    1c7a:	89 2b       	or	r24, r25
    1c7c:	71 f0       	breq	.+28     	; 0x1c9a <bytes_to_dstring+0x74>
    1c7e:	8b 81       	ldd	r24, Y+3	; 0x03
    1c80:	9c 81       	ldd	r25, Y+4	; 0x04
    1c82:	9c 01       	movw	r18, r24
    1c84:	2f 5f       	subi	r18, 0xFF	; 255
    1c86:	3f 4f       	sbci	r19, 0xFF	; 255
    1c88:	3c 83       	std	Y+4, r19	; 0x04
    1c8a:	2b 83       	std	Y+3, r18	; 0x03
    1c8c:	29 81       	ldd	r18, Y+1	; 0x01
    1c8e:	3a 81       	ldd	r19, Y+2	; 0x02
    1c90:	f9 01       	movw	r30, r18
    1c92:	20 81       	ld	r18, Z
    1c94:	fc 01       	movw	r30, r24
    1c96:	20 83       	st	Z, r18
    1c98:	95 c0       	rjmp	.+298    	; 0x1dc4 <bytes_to_dstring+0x19e>
    1c9a:	89 81       	ldd	r24, Y+1	; 0x01
    1c9c:	9a 81       	ldd	r25, Y+2	; 0x02
    1c9e:	fc 01       	movw	r30, r24
    1ca0:	80 81       	ld	r24, Z
    1ca2:	8a 30       	cpi	r24, 0x0A	; 10
    1ca4:	a9 f4       	brne	.+42     	; 0x1cd0 <bytes_to_dstring+0xaa>
    1ca6:	8b 81       	ldd	r24, Y+3	; 0x03
    1ca8:	9c 81       	ldd	r25, Y+4	; 0x04
    1caa:	9c 01       	movw	r18, r24
    1cac:	2f 5f       	subi	r18, 0xFF	; 255
    1cae:	3f 4f       	sbci	r19, 0xFF	; 255
    1cb0:	3c 83       	std	Y+4, r19	; 0x04
    1cb2:	2b 83       	std	Y+3, r18	; 0x03
    1cb4:	2c e5       	ldi	r18, 0x5C	; 92
    1cb6:	fc 01       	movw	r30, r24
    1cb8:	20 83       	st	Z, r18
    1cba:	8b 81       	ldd	r24, Y+3	; 0x03
    1cbc:	9c 81       	ldd	r25, Y+4	; 0x04
    1cbe:	9c 01       	movw	r18, r24
    1cc0:	2f 5f       	subi	r18, 0xFF	; 255
    1cc2:	3f 4f       	sbci	r19, 0xFF	; 255
    1cc4:	3c 83       	std	Y+4, r19	; 0x04
    1cc6:	2b 83       	std	Y+3, r18	; 0x03
    1cc8:	2e e6       	ldi	r18, 0x6E	; 110
    1cca:	fc 01       	movw	r30, r24
    1ccc:	20 83       	st	Z, r18
    1cce:	7a c0       	rjmp	.+244    	; 0x1dc4 <bytes_to_dstring+0x19e>
    1cd0:	89 81       	ldd	r24, Y+1	; 0x01
    1cd2:	9a 81       	ldd	r25, Y+2	; 0x02
    1cd4:	fc 01       	movw	r30, r24
    1cd6:	80 81       	ld	r24, Z
    1cd8:	89 30       	cpi	r24, 0x09	; 9
    1cda:	a9 f4       	brne	.+42     	; 0x1d06 <bytes_to_dstring+0xe0>
    1cdc:	8b 81       	ldd	r24, Y+3	; 0x03
    1cde:	9c 81       	ldd	r25, Y+4	; 0x04
    1ce0:	9c 01       	movw	r18, r24
    1ce2:	2f 5f       	subi	r18, 0xFF	; 255
    1ce4:	3f 4f       	sbci	r19, 0xFF	; 255
    1ce6:	3c 83       	std	Y+4, r19	; 0x04
    1ce8:	2b 83       	std	Y+3, r18	; 0x03
    1cea:	2c e5       	ldi	r18, 0x5C	; 92
    1cec:	fc 01       	movw	r30, r24
    1cee:	20 83       	st	Z, r18
    1cf0:	8b 81       	ldd	r24, Y+3	; 0x03
    1cf2:	9c 81       	ldd	r25, Y+4	; 0x04
    1cf4:	9c 01       	movw	r18, r24
    1cf6:	2f 5f       	subi	r18, 0xFF	; 255
    1cf8:	3f 4f       	sbci	r19, 0xFF	; 255
    1cfa:	3c 83       	std	Y+4, r19	; 0x04
    1cfc:	2b 83       	std	Y+3, r18	; 0x03
    1cfe:	24 e7       	ldi	r18, 0x74	; 116
    1d00:	fc 01       	movw	r30, r24
    1d02:	20 83       	st	Z, r18
    1d04:	5f c0       	rjmp	.+190    	; 0x1dc4 <bytes_to_dstring+0x19e>
    1d06:	89 81       	ldd	r24, Y+1	; 0x01
    1d08:	9a 81       	ldd	r25, Y+2	; 0x02
    1d0a:	fc 01       	movw	r30, r24
    1d0c:	80 81       	ld	r24, Z
    1d0e:	8c 35       	cpi	r24, 0x5C	; 92
    1d10:	a9 f4       	brne	.+42     	; 0x1d3c <bytes_to_dstring+0x116>
    1d12:	8b 81       	ldd	r24, Y+3	; 0x03
    1d14:	9c 81       	ldd	r25, Y+4	; 0x04
    1d16:	9c 01       	movw	r18, r24
    1d18:	2f 5f       	subi	r18, 0xFF	; 255
    1d1a:	3f 4f       	sbci	r19, 0xFF	; 255
    1d1c:	3c 83       	std	Y+4, r19	; 0x04
    1d1e:	2b 83       	std	Y+3, r18	; 0x03
    1d20:	2c e5       	ldi	r18, 0x5C	; 92
    1d22:	fc 01       	movw	r30, r24
    1d24:	20 83       	st	Z, r18
    1d26:	8b 81       	ldd	r24, Y+3	; 0x03
    1d28:	9c 81       	ldd	r25, Y+4	; 0x04
    1d2a:	9c 01       	movw	r18, r24
    1d2c:	2f 5f       	subi	r18, 0xFF	; 255
    1d2e:	3f 4f       	sbci	r19, 0xFF	; 255
    1d30:	3c 83       	std	Y+4, r19	; 0x04
    1d32:	2b 83       	std	Y+3, r18	; 0x03
    1d34:	2c e5       	ldi	r18, 0x5C	; 92
    1d36:	fc 01       	movw	r30, r24
    1d38:	20 83       	st	Z, r18
    1d3a:	44 c0       	rjmp	.+136    	; 0x1dc4 <bytes_to_dstring+0x19e>
    1d3c:	89 81       	ldd	r24, Y+1	; 0x01
    1d3e:	9a 81       	ldd	r25, Y+2	; 0x02
    1d40:	fc 01       	movw	r30, r24
    1d42:	80 81       	ld	r24, Z
    1d44:	08 2e       	mov	r0, r24
    1d46:	00 0c       	add	r0, r0
    1d48:	99 0b       	sbc	r25, r25
    1d4a:	80 7f       	andi	r24, 0xF0	; 240
    1d4c:	99 27       	eor	r25, r25
    1d4e:	95 95       	asr	r25
    1d50:	87 95       	ror	r24
    1d52:	95 95       	asr	r25
    1d54:	87 95       	ror	r24
    1d56:	95 95       	asr	r25
    1d58:	87 95       	ror	r24
    1d5a:	95 95       	asr	r25
    1d5c:	87 95       	ror	r24
    1d5e:	0e 94 01 0e 	call	0x1c02	; 0x1c02 <half2hex>
    1d62:	8f 83       	std	Y+7, r24	; 0x07
    1d64:	89 81       	ldd	r24, Y+1	; 0x01
    1d66:	9a 81       	ldd	r25, Y+2	; 0x02
    1d68:	fc 01       	movw	r30, r24
    1d6a:	80 81       	ld	r24, Z
    1d6c:	8f 70       	andi	r24, 0x0F	; 15
    1d6e:	0e 94 01 0e 	call	0x1c02	; 0x1c02 <half2hex>
    1d72:	88 87       	std	Y+8, r24	; 0x08
    1d74:	8b 81       	ldd	r24, Y+3	; 0x03
    1d76:	9c 81       	ldd	r25, Y+4	; 0x04
    1d78:	9c 01       	movw	r18, r24
    1d7a:	2f 5f       	subi	r18, 0xFF	; 255
    1d7c:	3f 4f       	sbci	r19, 0xFF	; 255
    1d7e:	3c 83       	std	Y+4, r19	; 0x04
    1d80:	2b 83       	std	Y+3, r18	; 0x03
    1d82:	2c e5       	ldi	r18, 0x5C	; 92
    1d84:	fc 01       	movw	r30, r24
    1d86:	20 83       	st	Z, r18
    1d88:	8b 81       	ldd	r24, Y+3	; 0x03
    1d8a:	9c 81       	ldd	r25, Y+4	; 0x04
    1d8c:	9c 01       	movw	r18, r24
    1d8e:	2f 5f       	subi	r18, 0xFF	; 255
    1d90:	3f 4f       	sbci	r19, 0xFF	; 255
    1d92:	3c 83       	std	Y+4, r19	; 0x04
    1d94:	2b 83       	std	Y+3, r18	; 0x03
    1d96:	28 e7       	ldi	r18, 0x78	; 120
    1d98:	fc 01       	movw	r30, r24
    1d9a:	20 83       	st	Z, r18
    1d9c:	8b 81       	ldd	r24, Y+3	; 0x03
    1d9e:	9c 81       	ldd	r25, Y+4	; 0x04
    1da0:	9c 01       	movw	r18, r24
    1da2:	2f 5f       	subi	r18, 0xFF	; 255
    1da4:	3f 4f       	sbci	r19, 0xFF	; 255
    1da6:	3c 83       	std	Y+4, r19	; 0x04
    1da8:	2b 83       	std	Y+3, r18	; 0x03
    1daa:	2f 81       	ldd	r18, Y+7	; 0x07
    1dac:	fc 01       	movw	r30, r24
    1dae:	20 83       	st	Z, r18
    1db0:	8b 81       	ldd	r24, Y+3	; 0x03
    1db2:	9c 81       	ldd	r25, Y+4	; 0x04
    1db4:	9c 01       	movw	r18, r24
    1db6:	2f 5f       	subi	r18, 0xFF	; 255
    1db8:	3f 4f       	sbci	r19, 0xFF	; 255
    1dba:	3c 83       	std	Y+4, r19	; 0x04
    1dbc:	2b 83       	std	Y+3, r18	; 0x03
    1dbe:	28 85       	ldd	r18, Y+8	; 0x08
    1dc0:	fc 01       	movw	r30, r24
    1dc2:	20 83       	st	Z, r18
    1dc4:	89 81       	ldd	r24, Y+1	; 0x01
    1dc6:	9a 81       	ldd	r25, Y+2	; 0x02
    1dc8:	01 96       	adiw	r24, 0x01	; 1
    1dca:	9a 83       	std	Y+2, r25	; 0x02
    1dcc:	89 83       	std	Y+1, r24	; 0x01
    1dce:	29 81       	ldd	r18, Y+1	; 0x01
    1dd0:	3a 81       	ldd	r19, Y+2	; 0x02
    1dd2:	8d 81       	ldd	r24, Y+5	; 0x05
    1dd4:	9e 81       	ldd	r25, Y+6	; 0x06
    1dd6:	28 17       	cp	r18, r24
    1dd8:	39 07       	cpc	r19, r25
    1dda:	09 f0       	breq	.+2      	; 0x1dde <bytes_to_dstring+0x1b8>
    1ddc:	45 cf       	rjmp	.-374    	; 0x1c68 <bytes_to_dstring+0x42>
    1dde:	8b 81       	ldd	r24, Y+3	; 0x03
    1de0:	9c 81       	ldd	r25, Y+4	; 0x04
    1de2:	fc 01       	movw	r30, r24
    1de4:	10 82       	st	Z, r1
    1de6:	2b 81       	ldd	r18, Y+3	; 0x03
    1de8:	3c 81       	ldd	r19, Y+4	; 0x04
    1dea:	89 85       	ldd	r24, Y+9	; 0x09
    1dec:	9a 85       	ldd	r25, Y+10	; 0x0a
    1dee:	a9 01       	movw	r20, r18
    1df0:	48 1b       	sub	r20, r24
    1df2:	59 0b       	sbc	r21, r25
    1df4:	ca 01       	movw	r24, r20
    1df6:	2e 96       	adiw	r28, 0x0e	; 14
    1df8:	0f b6       	in	r0, 0x3f	; 63
    1dfa:	f8 94       	cli
    1dfc:	de bf       	out	0x3e, r29	; 62
    1dfe:	0f be       	out	0x3f, r0	; 63
    1e00:	cd bf       	out	0x3d, r28	; 61
    1e02:	df 91       	pop	r29
    1e04:	cf 91       	pop	r28
    1e06:	08 95       	ret

00001e08 <do_nothing>:
    1e08:	cf 93       	push	r28
    1e0a:	df 93       	push	r29
    1e0c:	cd b7       	in	r28, 0x3d	; 61
    1e0e:	de b7       	in	r29, 0x3e	; 62
    1e10:	00 00       	nop
    1e12:	df 91       	pop	r29
    1e14:	cf 91       	pop	r28
    1e16:	08 95       	ret

00001e18 <igris_crc8_table>:
    1e18:	cf 93       	push	r28
    1e1a:	df 93       	push	r29
    1e1c:	00 d0       	rcall	.+0      	; 0x1e1e <igris_crc8_table+0x6>
    1e1e:	00 d0       	rcall	.+0      	; 0x1e20 <igris_crc8_table+0x8>
    1e20:	1f 92       	push	r1
    1e22:	cd b7       	in	r28, 0x3d	; 61
    1e24:	de b7       	in	r29, 0x3e	; 62
    1e26:	9b 83       	std	Y+3, r25	; 0x03
    1e28:	8a 83       	std	Y+2, r24	; 0x02
    1e2a:	6c 83       	std	Y+4, r22	; 0x04
    1e2c:	4d 83       	std	Y+5, r20	; 0x05
    1e2e:	8d 81       	ldd	r24, Y+5	; 0x05
    1e30:	89 83       	std	Y+1, r24	; 0x01
    1e32:	23 c0       	rjmp	.+70     	; 0x1e7a <igris_crc8_table+0x62>
    1e34:	8a 81       	ldd	r24, Y+2	; 0x02
    1e36:	9b 81       	ldd	r25, Y+3	; 0x03
    1e38:	9c 01       	movw	r18, r24
    1e3a:	2f 5f       	subi	r18, 0xFF	; 255
    1e3c:	3f 4f       	sbci	r19, 0xFF	; 255
    1e3e:	3b 83       	std	Y+3, r19	; 0x03
    1e40:	2a 83       	std	Y+2, r18	; 0x02
    1e42:	fc 01       	movw	r30, r24
    1e44:	80 81       	ld	r24, Z
    1e46:	99 81       	ldd	r25, Y+1	; 0x01
    1e48:	89 27       	eor	r24, r25
    1e4a:	89 83       	std	Y+1, r24	; 0x01
    1e4c:	89 81       	ldd	r24, Y+1	; 0x01
    1e4e:	88 2f       	mov	r24, r24
    1e50:	90 e0       	ldi	r25, 0x00	; 0
    1e52:	8f 70       	andi	r24, 0x0F	; 15
    1e54:	99 27       	eor	r25, r25
    1e56:	8f 59       	subi	r24, 0x9F	; 159
    1e58:	9e 4f       	sbci	r25, 0xFE	; 254
    1e5a:	fc 01       	movw	r30, r24
    1e5c:	20 81       	ld	r18, Z
    1e5e:	89 81       	ldd	r24, Y+1	; 0x01
    1e60:	82 95       	swap	r24
    1e62:	8f 70       	andi	r24, 0x0F	; 15
    1e64:	88 2f       	mov	r24, r24
    1e66:	90 e0       	ldi	r25, 0x00	; 0
    1e68:	8f 70       	andi	r24, 0x0F	; 15
    1e6a:	99 27       	eor	r25, r25
    1e6c:	40 96       	adiw	r24, 0x10	; 16
    1e6e:	8f 59       	subi	r24, 0x9F	; 159
    1e70:	9e 4f       	sbci	r25, 0xFE	; 254
    1e72:	fc 01       	movw	r30, r24
    1e74:	80 81       	ld	r24, Z
    1e76:	82 27       	eor	r24, r18
    1e78:	89 83       	std	Y+1, r24	; 0x01
    1e7a:	8c 81       	ldd	r24, Y+4	; 0x04
    1e7c:	9f ef       	ldi	r25, 0xFF	; 255
    1e7e:	98 0f       	add	r25, r24
    1e80:	9c 83       	std	Y+4, r25	; 0x04
    1e82:	88 23       	and	r24, r24
    1e84:	b9 f6       	brne	.-82     	; 0x1e34 <igris_crc8_table+0x1c>
    1e86:	89 81       	ldd	r24, Y+1	; 0x01
    1e88:	0f 90       	pop	r0
    1e8a:	0f 90       	pop	r0
    1e8c:	0f 90       	pop	r0
    1e8e:	0f 90       	pop	r0
    1e90:	0f 90       	pop	r0
    1e92:	df 91       	pop	r29
    1e94:	cf 91       	pop	r28
    1e96:	08 95       	ret

00001e98 <igris_crc8>:
    1e98:	cf 93       	push	r28
    1e9a:	df 93       	push	r29
    1e9c:	cd b7       	in	r28, 0x3d	; 61
    1e9e:	de b7       	in	r29, 0x3e	; 62
    1ea0:	2a 97       	sbiw	r28, 0x0a	; 10
    1ea2:	0f b6       	in	r0, 0x3f	; 63
    1ea4:	f8 94       	cli
    1ea6:	de bf       	out	0x3e, r29	; 62
    1ea8:	0f be       	out	0x3f, r0	; 63
    1eaa:	cd bf       	out	0x3d, r28	; 61
    1eac:	98 87       	std	Y+8, r25	; 0x08
    1eae:	8f 83       	std	Y+7, r24	; 0x07
    1eb0:	69 87       	std	Y+9, r22	; 0x09
    1eb2:	4a 87       	std	Y+10, r20	; 0x0a
    1eb4:	8f 81       	ldd	r24, Y+7	; 0x07
    1eb6:	98 85       	ldd	r25, Y+8	; 0x08
    1eb8:	9a 83       	std	Y+2, r25	; 0x02
    1eba:	89 83       	std	Y+1, r24	; 0x01
    1ebc:	8a 85       	ldd	r24, Y+10	; 0x0a
    1ebe:	8b 83       	std	Y+3, r24	; 0x03
    1ec0:	25 c0       	rjmp	.+74     	; 0x1f0c <igris_crc8+0x74>
    1ec2:	89 81       	ldd	r24, Y+1	; 0x01
    1ec4:	9a 81       	ldd	r25, Y+2	; 0x02
    1ec6:	9c 01       	movw	r18, r24
    1ec8:	2f 5f       	subi	r18, 0xFF	; 255
    1eca:	3f 4f       	sbci	r19, 0xFF	; 255
    1ecc:	3a 83       	std	Y+2, r19	; 0x02
    1ece:	29 83       	std	Y+1, r18	; 0x01
    1ed0:	fc 01       	movw	r30, r24
    1ed2:	80 81       	ld	r24, Z
    1ed4:	8c 83       	std	Y+4, r24	; 0x04
    1ed6:	88 e0       	ldi	r24, 0x08	; 8
    1ed8:	8d 83       	std	Y+5, r24	; 0x05
    1eda:	15 c0       	rjmp	.+42     	; 0x1f06 <igris_crc8+0x6e>
    1edc:	9b 81       	ldd	r25, Y+3	; 0x03
    1ede:	8c 81       	ldd	r24, Y+4	; 0x04
    1ee0:	89 27       	eor	r24, r25
    1ee2:	81 70       	andi	r24, 0x01	; 1
    1ee4:	8e 83       	std	Y+6, r24	; 0x06
    1ee6:	8b 81       	ldd	r24, Y+3	; 0x03
    1ee8:	86 95       	lsr	r24
    1eea:	8b 83       	std	Y+3, r24	; 0x03
    1eec:	8e 81       	ldd	r24, Y+6	; 0x06
    1eee:	88 23       	and	r24, r24
    1ef0:	21 f0       	breq	.+8      	; 0x1efa <igris_crc8+0x62>
    1ef2:	9b 81       	ldd	r25, Y+3	; 0x03
    1ef4:	8c e8       	ldi	r24, 0x8C	; 140
    1ef6:	89 27       	eor	r24, r25
    1ef8:	8b 83       	std	Y+3, r24	; 0x03
    1efa:	8c 81       	ldd	r24, Y+4	; 0x04
    1efc:	86 95       	lsr	r24
    1efe:	8c 83       	std	Y+4, r24	; 0x04
    1f00:	8d 81       	ldd	r24, Y+5	; 0x05
    1f02:	81 50       	subi	r24, 0x01	; 1
    1f04:	8d 83       	std	Y+5, r24	; 0x05
    1f06:	8d 81       	ldd	r24, Y+5	; 0x05
    1f08:	88 23       	and	r24, r24
    1f0a:	41 f7       	brne	.-48     	; 0x1edc <igris_crc8+0x44>
    1f0c:	89 85       	ldd	r24, Y+9	; 0x09
    1f0e:	9f ef       	ldi	r25, 0xFF	; 255
    1f10:	98 0f       	add	r25, r24
    1f12:	99 87       	std	Y+9, r25	; 0x09
    1f14:	88 23       	and	r24, r24
    1f16:	a9 f6       	brne	.-86     	; 0x1ec2 <igris_crc8+0x2a>
    1f18:	8b 81       	ldd	r24, Y+3	; 0x03
    1f1a:	2a 96       	adiw	r28, 0x0a	; 10
    1f1c:	0f b6       	in	r0, 0x3f	; 63
    1f1e:	f8 94       	cli
    1f20:	de bf       	out	0x3e, r29	; 62
    1f22:	0f be       	out	0x3f, r0	; 63
    1f24:	cd bf       	out	0x3d, r28	; 61
    1f26:	df 91       	pop	r29
    1f28:	cf 91       	pop	r28
    1f2a:	08 95       	ret

00001f2c <igris_crc16>:
    1f2c:	cf 93       	push	r28
    1f2e:	df 93       	push	r29
    1f30:	cd b7       	in	r28, 0x3d	; 61
    1f32:	de b7       	in	r29, 0x3e	; 62
    1f34:	2b 97       	sbiw	r28, 0x0b	; 11
    1f36:	0f b6       	in	r0, 0x3f	; 63
    1f38:	f8 94       	cli
    1f3a:	de bf       	out	0x3e, r29	; 62
    1f3c:	0f be       	out	0x3f, r0	; 63
    1f3e:	cd bf       	out	0x3d, r28	; 61
    1f40:	9f 83       	std	Y+7, r25	; 0x07
    1f42:	8e 83       	std	Y+6, r24	; 0x06
    1f44:	79 87       	std	Y+9, r23	; 0x09
    1f46:	68 87       	std	Y+8, r22	; 0x08
    1f48:	5b 87       	std	Y+11, r21	; 0x0b
    1f4a:	4a 87       	std	Y+10, r20	; 0x0a
    1f4c:	8e 81       	ldd	r24, Y+6	; 0x06
    1f4e:	9f 81       	ldd	r25, Y+7	; 0x07
    1f50:	9a 83       	std	Y+2, r25	; 0x02
    1f52:	89 83       	std	Y+1, r24	; 0x01
    1f54:	8a 85       	ldd	r24, Y+10	; 0x0a
    1f56:	9b 85       	ldd	r25, Y+11	; 0x0b
    1f58:	9c 83       	std	Y+4, r25	; 0x04
    1f5a:	8b 83       	std	Y+3, r24	; 0x03
    1f5c:	37 c0       	rjmp	.+110    	; 0x1fcc <igris_crc16+0xa0>
    1f5e:	8b 81       	ldd	r24, Y+3	; 0x03
    1f60:	9c 81       	ldd	r25, Y+4	; 0x04
    1f62:	89 2f       	mov	r24, r25
    1f64:	99 27       	eor	r25, r25
    1f66:	48 2f       	mov	r20, r24
    1f68:	89 81       	ldd	r24, Y+1	; 0x01
    1f6a:	9a 81       	ldd	r25, Y+2	; 0x02
    1f6c:	9c 01       	movw	r18, r24
    1f6e:	2f 5f       	subi	r18, 0xFF	; 255
    1f70:	3f 4f       	sbci	r19, 0xFF	; 255
    1f72:	3a 83       	std	Y+2, r19	; 0x02
    1f74:	29 83       	std	Y+1, r18	; 0x01
    1f76:	fc 01       	movw	r30, r24
    1f78:	80 81       	ld	r24, Z
    1f7a:	84 27       	eor	r24, r20
    1f7c:	8d 83       	std	Y+5, r24	; 0x05
    1f7e:	8d 81       	ldd	r24, Y+5	; 0x05
    1f80:	82 95       	swap	r24
    1f82:	8f 70       	andi	r24, 0x0F	; 15
    1f84:	9d 81       	ldd	r25, Y+5	; 0x05
    1f86:	89 27       	eor	r24, r25
    1f88:	8d 83       	std	Y+5, r24	; 0x05
    1f8a:	8b 81       	ldd	r24, Y+3	; 0x03
    1f8c:	9c 81       	ldd	r25, Y+4	; 0x04
    1f8e:	98 2f       	mov	r25, r24
    1f90:	88 27       	eor	r24, r24
    1f92:	2d 81       	ldd	r18, Y+5	; 0x05
    1f94:	22 2f       	mov	r18, r18
    1f96:	30 e0       	ldi	r19, 0x00	; 0
    1f98:	32 2f       	mov	r19, r18
    1f9a:	22 27       	eor	r18, r18
    1f9c:	32 95       	swap	r19
    1f9e:	30 7f       	andi	r19, 0xF0	; 240
    1fa0:	82 27       	eor	r24, r18
    1fa2:	93 27       	eor	r25, r19
    1fa4:	2d 81       	ldd	r18, Y+5	; 0x05
    1fa6:	22 2f       	mov	r18, r18
    1fa8:	30 e0       	ldi	r19, 0x00	; 0
    1faa:	22 0f       	add	r18, r18
    1fac:	33 1f       	adc	r19, r19
    1fae:	22 95       	swap	r18
    1fb0:	32 95       	swap	r19
    1fb2:	30 7f       	andi	r19, 0xF0	; 240
    1fb4:	32 27       	eor	r19, r18
    1fb6:	20 7f       	andi	r18, 0xF0	; 240
    1fb8:	32 27       	eor	r19, r18
    1fba:	28 27       	eor	r18, r24
    1fbc:	39 27       	eor	r19, r25
    1fbe:	8d 81       	ldd	r24, Y+5	; 0x05
    1fc0:	88 2f       	mov	r24, r24
    1fc2:	90 e0       	ldi	r25, 0x00	; 0
    1fc4:	82 27       	eor	r24, r18
    1fc6:	93 27       	eor	r25, r19
    1fc8:	9c 83       	std	Y+4, r25	; 0x04
    1fca:	8b 83       	std	Y+3, r24	; 0x03
    1fcc:	88 85       	ldd	r24, Y+8	; 0x08
    1fce:	99 85       	ldd	r25, Y+9	; 0x09
    1fd0:	9c 01       	movw	r18, r24
    1fd2:	21 50       	subi	r18, 0x01	; 1
    1fd4:	31 09       	sbc	r19, r1
    1fd6:	39 87       	std	Y+9, r19	; 0x09
    1fd8:	28 87       	std	Y+8, r18	; 0x08
    1fda:	89 2b       	or	r24, r25
    1fdc:	09 f0       	breq	.+2      	; 0x1fe0 <igris_crc16+0xb4>
    1fde:	bf cf       	rjmp	.-130    	; 0x1f5e <igris_crc16+0x32>
    1fe0:	8b 81       	ldd	r24, Y+3	; 0x03
    1fe2:	9c 81       	ldd	r25, Y+4	; 0x04
    1fe4:	2b 96       	adiw	r28, 0x0b	; 11
    1fe6:	0f b6       	in	r0, 0x3f	; 63
    1fe8:	f8 94       	cli
    1fea:	de bf       	out	0x3e, r29	; 62
    1fec:	0f be       	out	0x3f, r0	; 63
    1fee:	cd bf       	out	0x3d, r28	; 61
    1ff0:	df 91       	pop	r29
    1ff2:	cf 91       	pop	r28
    1ff4:	08 95       	ret

00001ff6 <igris_mmc_crc7>:
    1ff6:	cf 93       	push	r28
    1ff8:	df 93       	push	r29
    1ffa:	cd b7       	in	r28, 0x3d	; 61
    1ffc:	de b7       	in	r29, 0x3e	; 62
    1ffe:	29 97       	sbiw	r28, 0x09	; 9
    2000:	0f b6       	in	r0, 0x3f	; 63
    2002:	f8 94       	cli
    2004:	de bf       	out	0x3e, r29	; 62
    2006:	0f be       	out	0x3f, r0	; 63
    2008:	cd bf       	out	0x3d, r28	; 61
    200a:	98 87       	std	Y+8, r25	; 0x08
    200c:	8f 83       	std	Y+7, r24	; 0x07
    200e:	69 87       	std	Y+9, r22	; 0x09
    2010:	89 e8       	ldi	r24, 0x89	; 137
    2012:	8e 83       	std	Y+6, r24	; 0x06
    2014:	19 82       	std	Y+1, r1	; 0x01
    2016:	1b 82       	std	Y+3, r1	; 0x03
    2018:	1a 82       	std	Y+2, r1	; 0x02
    201a:	2f c0       	rjmp	.+94     	; 0x207a <igris_mmc_crc7+0x84>
    201c:	2f 81       	ldd	r18, Y+7	; 0x07
    201e:	38 85       	ldd	r19, Y+8	; 0x08
    2020:	8a 81       	ldd	r24, Y+2	; 0x02
    2022:	9b 81       	ldd	r25, Y+3	; 0x03
    2024:	82 0f       	add	r24, r18
    2026:	93 1f       	adc	r25, r19
    2028:	fc 01       	movw	r30, r24
    202a:	80 81       	ld	r24, Z
    202c:	99 81       	ldd	r25, Y+1	; 0x01
    202e:	89 27       	eor	r24, r25
    2030:	89 83       	std	Y+1, r24	; 0x01
    2032:	1d 82       	std	Y+5, r1	; 0x05
    2034:	1c 82       	std	Y+4, r1	; 0x04
    2036:	18 c0       	rjmp	.+48     	; 0x2068 <igris_mmc_crc7+0x72>
    2038:	89 81       	ldd	r24, Y+1	; 0x01
    203a:	88 23       	and	r24, r24
    203c:	6c f4       	brge	.+26     	; 0x2058 <igris_mmc_crc7+0x62>
    203e:	89 81       	ldd	r24, Y+1	; 0x01
    2040:	88 2f       	mov	r24, r24
    2042:	90 e0       	ldi	r25, 0x00	; 0
    2044:	88 0f       	add	r24, r24
    2046:	99 1f       	adc	r25, r25
    2048:	28 2f       	mov	r18, r24
    204a:	8e 81       	ldd	r24, Y+6	; 0x06
    204c:	88 2f       	mov	r24, r24
    204e:	90 e0       	ldi	r25, 0x00	; 0
    2050:	88 0f       	add	r24, r24
    2052:	99 1f       	adc	r25, r25
    2054:	82 27       	eor	r24, r18
    2056:	02 c0       	rjmp	.+4      	; 0x205c <igris_mmc_crc7+0x66>
    2058:	89 81       	ldd	r24, Y+1	; 0x01
    205a:	88 0f       	add	r24, r24
    205c:	89 83       	std	Y+1, r24	; 0x01
    205e:	8c 81       	ldd	r24, Y+4	; 0x04
    2060:	9d 81       	ldd	r25, Y+5	; 0x05
    2062:	01 96       	adiw	r24, 0x01	; 1
    2064:	9d 83       	std	Y+5, r25	; 0x05
    2066:	8c 83       	std	Y+4, r24	; 0x04
    2068:	8c 81       	ldd	r24, Y+4	; 0x04
    206a:	9d 81       	ldd	r25, Y+5	; 0x05
    206c:	08 97       	sbiw	r24, 0x08	; 8
    206e:	24 f3       	brlt	.-56     	; 0x2038 <igris_mmc_crc7+0x42>
    2070:	8a 81       	ldd	r24, Y+2	; 0x02
    2072:	9b 81       	ldd	r25, Y+3	; 0x03
    2074:	01 96       	adiw	r24, 0x01	; 1
    2076:	9b 83       	std	Y+3, r25	; 0x03
    2078:	8a 83       	std	Y+2, r24	; 0x02
    207a:	89 85       	ldd	r24, Y+9	; 0x09
    207c:	28 2f       	mov	r18, r24
    207e:	30 e0       	ldi	r19, 0x00	; 0
    2080:	8a 81       	ldd	r24, Y+2	; 0x02
    2082:	9b 81       	ldd	r25, Y+3	; 0x03
    2084:	82 17       	cp	r24, r18
    2086:	93 07       	cpc	r25, r19
    2088:	48 f2       	brcs	.-110    	; 0x201c <igris_mmc_crc7+0x26>
    208a:	89 81       	ldd	r24, Y+1	; 0x01
    208c:	86 95       	lsr	r24
    208e:	29 96       	adiw	r28, 0x09	; 9
    2090:	0f b6       	in	r0, 0x3f	; 63
    2092:	f8 94       	cli
    2094:	de bf       	out	0x3e, r29	; 62
    2096:	0f be       	out	0x3f, r0	; 63
    2098:	cd bf       	out	0x3d, r28	; 61
    209a:	df 91       	pop	r29
    209c:	cf 91       	pop	r28
    209e:	08 95       	ret

000020a0 <igris_crc32>:
    20a0:	0f 93       	push	r16
    20a2:	1f 93       	push	r17
    20a4:	cf 93       	push	r28
    20a6:	df 93       	push	r29
    20a8:	cd b7       	in	r28, 0x3d	; 61
    20aa:	de b7       	in	r29, 0x3e	; 62
    20ac:	6c 97       	sbiw	r28, 0x1c	; 28
    20ae:	0f b6       	in	r0, 0x3f	; 63
    20b0:	f8 94       	cli
    20b2:	de bf       	out	0x3e, r29	; 62
    20b4:	0f be       	out	0x3f, r0	; 63
    20b6:	cd bf       	out	0x3d, r28	; 61
    20b8:	9c 8b       	std	Y+20, r25	; 0x14
    20ba:	8b 8b       	std	Y+19, r24	; 0x13
    20bc:	4d 8b       	std	Y+21, r20	; 0x15
    20be:	5e 8b       	std	Y+22, r21	; 0x16
    20c0:	6f 8b       	std	Y+23, r22	; 0x17
    20c2:	78 8f       	std	Y+24, r23	; 0x18
    20c4:	09 8f       	std	Y+25, r16	; 0x19
    20c6:	1a 8f       	std	Y+26, r17	; 0x1a
    20c8:	2b 8f       	std	Y+27, r18	; 0x1b
    20ca:	3c 8f       	std	Y+28, r19	; 0x1c
    20cc:	89 8d       	ldd	r24, Y+25	; 0x19
    20ce:	9a 8d       	ldd	r25, Y+26	; 0x1a
    20d0:	ab 8d       	ldd	r26, Y+27	; 0x1b
    20d2:	bc 8d       	ldd	r27, Y+28	; 0x1c
    20d4:	89 83       	std	Y+1, r24	; 0x01
    20d6:	9a 83       	std	Y+2, r25	; 0x02
    20d8:	ab 83       	std	Y+3, r26	; 0x03
    20da:	bc 83       	std	Y+4, r27	; 0x04
    20dc:	8b 89       	ldd	r24, Y+19	; 0x13
    20de:	9c 89       	ldd	r25, Y+20	; 0x14
    20e0:	9a 87       	std	Y+10, r25	; 0x0a
    20e2:	89 87       	std	Y+9, r24	; 0x09
    20e4:	8d 89       	ldd	r24, Y+21	; 0x15
    20e6:	9e 89       	ldd	r25, Y+22	; 0x16
    20e8:	af 89       	ldd	r26, Y+23	; 0x17
    20ea:	b8 8d       	ldd	r27, Y+24	; 0x18
    20ec:	b6 95       	lsr	r27
    20ee:	a7 95       	ror	r26
    20f0:	97 95       	ror	r25
    20f2:	87 95       	ror	r24
    20f4:	b6 95       	lsr	r27
    20f6:	a7 95       	ror	r26
    20f8:	97 95       	ror	r25
    20fa:	87 95       	ror	r24
    20fc:	8b 87       	std	Y+11, r24	; 0x0b
    20fe:	9c 87       	std	Y+12, r25	; 0x0c
    2100:	ad 87       	std	Y+13, r26	; 0x0d
    2102:	be 87       	std	Y+14, r27	; 0x0e
    2104:	8d 89       	ldd	r24, Y+21	; 0x15
    2106:	9e 89       	ldd	r25, Y+22	; 0x16
    2108:	af 89       	ldd	r26, Y+23	; 0x17
    210a:	b8 8d       	ldd	r27, Y+24	; 0x18
    210c:	83 70       	andi	r24, 0x03	; 3
    210e:	99 27       	eor	r25, r25
    2110:	aa 27       	eor	r26, r26
    2112:	bb 27       	eor	r27, r27
    2114:	8f 87       	std	Y+15, r24	; 0x0f
    2116:	98 8b       	std	Y+16, r25	; 0x10
    2118:	a9 8b       	std	Y+17, r26	; 0x11
    211a:	ba 8b       	std	Y+18, r27	; 0x12
    211c:	1d 82       	std	Y+5, r1	; 0x05
    211e:	1e 82       	std	Y+6, r1	; 0x06
    2120:	1f 82       	std	Y+7, r1	; 0x07
    2122:	18 86       	std	Y+8, r1	; 0x08
    2124:	d6 c1       	rjmp	.+940    	; 0x24d2 <igris_crc32+0x432>
    2126:	8d 81       	ldd	r24, Y+5	; 0x05
    2128:	9e 81       	ldd	r25, Y+6	; 0x06
    212a:	88 0f       	add	r24, r24
    212c:	99 1f       	adc	r25, r25
    212e:	88 0f       	add	r24, r24
    2130:	99 1f       	adc	r25, r25
    2132:	29 85       	ldd	r18, Y+9	; 0x09
    2134:	3a 85       	ldd	r19, Y+10	; 0x0a
    2136:	82 0f       	add	r24, r18
    2138:	93 1f       	adc	r25, r19
    213a:	fc 01       	movw	r30, r24
    213c:	80 81       	ld	r24, Z
    213e:	91 81       	ldd	r25, Z+1	; 0x01
    2140:	a2 81       	ldd	r26, Z+2	; 0x02
    2142:	b3 81       	ldd	r27, Z+3	; 0x03
    2144:	29 81       	ldd	r18, Y+1	; 0x01
    2146:	3a 81       	ldd	r19, Y+2	; 0x02
    2148:	4b 81       	ldd	r20, Y+3	; 0x03
    214a:	5c 81       	ldd	r21, Y+4	; 0x04
    214c:	82 27       	eor	r24, r18
    214e:	93 27       	eor	r25, r19
    2150:	a4 27       	eor	r26, r20
    2152:	b5 27       	eor	r27, r21
    2154:	89 83       	std	Y+1, r24	; 0x01
    2156:	9a 83       	std	Y+2, r25	; 0x02
    2158:	ab 83       	std	Y+3, r26	; 0x03
    215a:	bc 83       	std	Y+4, r27	; 0x04
    215c:	89 81       	ldd	r24, Y+1	; 0x01
    215e:	9a 81       	ldd	r25, Y+2	; 0x02
    2160:	ab 81       	ldd	r26, Y+3	; 0x03
    2162:	bc 81       	ldd	r27, Y+4	; 0x04
    2164:	88 0f       	add	r24, r24
    2166:	99 1f       	adc	r25, r25
    2168:	aa 1f       	adc	r26, r26
    216a:	bb 1f       	adc	r27, r27
    216c:	88 0f       	add	r24, r24
    216e:	99 1f       	adc	r25, r25
    2170:	aa 1f       	adc	r26, r26
    2172:	bb 1f       	adc	r27, r27
    2174:	88 0f       	add	r24, r24
    2176:	99 1f       	adc	r25, r25
    2178:	aa 1f       	adc	r26, r26
    217a:	bb 1f       	adc	r27, r27
    217c:	88 0f       	add	r24, r24
    217e:	99 1f       	adc	r25, r25
    2180:	aa 1f       	adc	r26, r26
    2182:	bb 1f       	adc	r27, r27
    2184:	9c 01       	movw	r18, r24
    2186:	ad 01       	movw	r20, r26
    2188:	89 81       	ldd	r24, Y+1	; 0x01
    218a:	9a 81       	ldd	r25, Y+2	; 0x02
    218c:	ab 81       	ldd	r26, Y+3	; 0x03
    218e:	bc 81       	ldd	r27, Y+4	; 0x04
    2190:	07 2e       	mov	r0, r23
    2192:	7c e1       	ldi	r23, 0x1C	; 28
    2194:	b6 95       	lsr	r27
    2196:	a7 95       	ror	r26
    2198:	97 95       	ror	r25
    219a:	87 95       	ror	r24
    219c:	7a 95       	dec	r23
    219e:	d1 f7       	brne	.-12     	; 0x2194 <igris_crc32+0xf4>
    21a0:	70 2d       	mov	r23, r0
    21a2:	88 0f       	add	r24, r24
    21a4:	99 1f       	adc	r25, r25
    21a6:	88 0f       	add	r24, r24
    21a8:	99 1f       	adc	r25, r25
    21aa:	8f 57       	subi	r24, 0x7F	; 127
    21ac:	9e 4f       	sbci	r25, 0xFE	; 254
    21ae:	fc 01       	movw	r30, r24
    21b0:	80 81       	ld	r24, Z
    21b2:	91 81       	ldd	r25, Z+1	; 0x01
    21b4:	a2 81       	ldd	r26, Z+2	; 0x02
    21b6:	b3 81       	ldd	r27, Z+3	; 0x03
    21b8:	82 27       	eor	r24, r18
    21ba:	93 27       	eor	r25, r19
    21bc:	a4 27       	eor	r26, r20
    21be:	b5 27       	eor	r27, r21
    21c0:	89 83       	std	Y+1, r24	; 0x01
    21c2:	9a 83       	std	Y+2, r25	; 0x02
    21c4:	ab 83       	std	Y+3, r26	; 0x03
    21c6:	bc 83       	std	Y+4, r27	; 0x04
    21c8:	89 81       	ldd	r24, Y+1	; 0x01
    21ca:	9a 81       	ldd	r25, Y+2	; 0x02
    21cc:	ab 81       	ldd	r26, Y+3	; 0x03
    21ce:	bc 81       	ldd	r27, Y+4	; 0x04
    21d0:	88 0f       	add	r24, r24
    21d2:	99 1f       	adc	r25, r25
    21d4:	aa 1f       	adc	r26, r26
    21d6:	bb 1f       	adc	r27, r27
    21d8:	88 0f       	add	r24, r24
    21da:	99 1f       	adc	r25, r25
    21dc:	aa 1f       	adc	r26, r26
    21de:	bb 1f       	adc	r27, r27
    21e0:	88 0f       	add	r24, r24
    21e2:	99 1f       	adc	r25, r25
    21e4:	aa 1f       	adc	r26, r26
    21e6:	bb 1f       	adc	r27, r27
    21e8:	88 0f       	add	r24, r24
    21ea:	99 1f       	adc	r25, r25
    21ec:	aa 1f       	adc	r26, r26
    21ee:	bb 1f       	adc	r27, r27
    21f0:	9c 01       	movw	r18, r24
    21f2:	ad 01       	movw	r20, r26
    21f4:	89 81       	ldd	r24, Y+1	; 0x01
    21f6:	9a 81       	ldd	r25, Y+2	; 0x02
    21f8:	ab 81       	ldd	r26, Y+3	; 0x03
    21fa:	bc 81       	ldd	r27, Y+4	; 0x04
    21fc:	07 2e       	mov	r0, r23
    21fe:	7c e1       	ldi	r23, 0x1C	; 28
    2200:	b6 95       	lsr	r27
    2202:	a7 95       	ror	r26
    2204:	97 95       	ror	r25
    2206:	87 95       	ror	r24
    2208:	7a 95       	dec	r23
    220a:	d1 f7       	brne	.-12     	; 0x2200 <igris_crc32+0x160>
    220c:	70 2d       	mov	r23, r0
    220e:	88 0f       	add	r24, r24
    2210:	99 1f       	adc	r25, r25
    2212:	88 0f       	add	r24, r24
    2214:	99 1f       	adc	r25, r25
    2216:	8f 57       	subi	r24, 0x7F	; 127
    2218:	9e 4f       	sbci	r25, 0xFE	; 254
    221a:	fc 01       	movw	r30, r24
    221c:	80 81       	ld	r24, Z
    221e:	91 81       	ldd	r25, Z+1	; 0x01
    2220:	a2 81       	ldd	r26, Z+2	; 0x02
    2222:	b3 81       	ldd	r27, Z+3	; 0x03
    2224:	82 27       	eor	r24, r18
    2226:	93 27       	eor	r25, r19
    2228:	a4 27       	eor	r26, r20
    222a:	b5 27       	eor	r27, r21
    222c:	89 83       	std	Y+1, r24	; 0x01
    222e:	9a 83       	std	Y+2, r25	; 0x02
    2230:	ab 83       	std	Y+3, r26	; 0x03
    2232:	bc 83       	std	Y+4, r27	; 0x04
    2234:	89 81       	ldd	r24, Y+1	; 0x01
    2236:	9a 81       	ldd	r25, Y+2	; 0x02
    2238:	ab 81       	ldd	r26, Y+3	; 0x03
    223a:	bc 81       	ldd	r27, Y+4	; 0x04
    223c:	88 0f       	add	r24, r24
    223e:	99 1f       	adc	r25, r25
    2240:	aa 1f       	adc	r26, r26
    2242:	bb 1f       	adc	r27, r27
    2244:	88 0f       	add	r24, r24
    2246:	99 1f       	adc	r25, r25
    2248:	aa 1f       	adc	r26, r26
    224a:	bb 1f       	adc	r27, r27
    224c:	88 0f       	add	r24, r24
    224e:	99 1f       	adc	r25, r25
    2250:	aa 1f       	adc	r26, r26
    2252:	bb 1f       	adc	r27, r27
    2254:	88 0f       	add	r24, r24
    2256:	99 1f       	adc	r25, r25
    2258:	aa 1f       	adc	r26, r26
    225a:	bb 1f       	adc	r27, r27
    225c:	9c 01       	movw	r18, r24
    225e:	ad 01       	movw	r20, r26
    2260:	89 81       	ldd	r24, Y+1	; 0x01
    2262:	9a 81       	ldd	r25, Y+2	; 0x02
    2264:	ab 81       	ldd	r26, Y+3	; 0x03
    2266:	bc 81       	ldd	r27, Y+4	; 0x04
    2268:	07 2e       	mov	r0, r23
    226a:	7c e1       	ldi	r23, 0x1C	; 28
    226c:	b6 95       	lsr	r27
    226e:	a7 95       	ror	r26
    2270:	97 95       	ror	r25
    2272:	87 95       	ror	r24
    2274:	7a 95       	dec	r23
    2276:	d1 f7       	brne	.-12     	; 0x226c <igris_crc32+0x1cc>
    2278:	70 2d       	mov	r23, r0
    227a:	88 0f       	add	r24, r24
    227c:	99 1f       	adc	r25, r25
    227e:	88 0f       	add	r24, r24
    2280:	99 1f       	adc	r25, r25
    2282:	8f 57       	subi	r24, 0x7F	; 127
    2284:	9e 4f       	sbci	r25, 0xFE	; 254
    2286:	fc 01       	movw	r30, r24
    2288:	80 81       	ld	r24, Z
    228a:	91 81       	ldd	r25, Z+1	; 0x01
    228c:	a2 81       	ldd	r26, Z+2	; 0x02
    228e:	b3 81       	ldd	r27, Z+3	; 0x03
    2290:	82 27       	eor	r24, r18
    2292:	93 27       	eor	r25, r19
    2294:	a4 27       	eor	r26, r20
    2296:	b5 27       	eor	r27, r21
    2298:	89 83       	std	Y+1, r24	; 0x01
    229a:	9a 83       	std	Y+2, r25	; 0x02
    229c:	ab 83       	std	Y+3, r26	; 0x03
    229e:	bc 83       	std	Y+4, r27	; 0x04
    22a0:	89 81       	ldd	r24, Y+1	; 0x01
    22a2:	9a 81       	ldd	r25, Y+2	; 0x02
    22a4:	ab 81       	ldd	r26, Y+3	; 0x03
    22a6:	bc 81       	ldd	r27, Y+4	; 0x04
    22a8:	88 0f       	add	r24, r24
    22aa:	99 1f       	adc	r25, r25
    22ac:	aa 1f       	adc	r26, r26
    22ae:	bb 1f       	adc	r27, r27
    22b0:	88 0f       	add	r24, r24
    22b2:	99 1f       	adc	r25, r25
    22b4:	aa 1f       	adc	r26, r26
    22b6:	bb 1f       	adc	r27, r27
    22b8:	88 0f       	add	r24, r24
    22ba:	99 1f       	adc	r25, r25
    22bc:	aa 1f       	adc	r26, r26
    22be:	bb 1f       	adc	r27, r27
    22c0:	88 0f       	add	r24, r24
    22c2:	99 1f       	adc	r25, r25
    22c4:	aa 1f       	adc	r26, r26
    22c6:	bb 1f       	adc	r27, r27
    22c8:	9c 01       	movw	r18, r24
    22ca:	ad 01       	movw	r20, r26
    22cc:	89 81       	ldd	r24, Y+1	; 0x01
    22ce:	9a 81       	ldd	r25, Y+2	; 0x02
    22d0:	ab 81       	ldd	r26, Y+3	; 0x03
    22d2:	bc 81       	ldd	r27, Y+4	; 0x04
    22d4:	07 2e       	mov	r0, r23
    22d6:	7c e1       	ldi	r23, 0x1C	; 28
    22d8:	b6 95       	lsr	r27
    22da:	a7 95       	ror	r26
    22dc:	97 95       	ror	r25
    22de:	87 95       	ror	r24
    22e0:	7a 95       	dec	r23
    22e2:	d1 f7       	brne	.-12     	; 0x22d8 <igris_crc32+0x238>
    22e4:	70 2d       	mov	r23, r0
    22e6:	88 0f       	add	r24, r24
    22e8:	99 1f       	adc	r25, r25
    22ea:	88 0f       	add	r24, r24
    22ec:	99 1f       	adc	r25, r25
    22ee:	8f 57       	subi	r24, 0x7F	; 127
    22f0:	9e 4f       	sbci	r25, 0xFE	; 254
    22f2:	fc 01       	movw	r30, r24
    22f4:	80 81       	ld	r24, Z
    22f6:	91 81       	ldd	r25, Z+1	; 0x01
    22f8:	a2 81       	ldd	r26, Z+2	; 0x02
    22fa:	b3 81       	ldd	r27, Z+3	; 0x03
    22fc:	82 27       	eor	r24, r18
    22fe:	93 27       	eor	r25, r19
    2300:	a4 27       	eor	r26, r20
    2302:	b5 27       	eor	r27, r21
    2304:	89 83       	std	Y+1, r24	; 0x01
    2306:	9a 83       	std	Y+2, r25	; 0x02
    2308:	ab 83       	std	Y+3, r26	; 0x03
    230a:	bc 83       	std	Y+4, r27	; 0x04
    230c:	89 81       	ldd	r24, Y+1	; 0x01
    230e:	9a 81       	ldd	r25, Y+2	; 0x02
    2310:	ab 81       	ldd	r26, Y+3	; 0x03
    2312:	bc 81       	ldd	r27, Y+4	; 0x04
    2314:	88 0f       	add	r24, r24
    2316:	99 1f       	adc	r25, r25
    2318:	aa 1f       	adc	r26, r26
    231a:	bb 1f       	adc	r27, r27
    231c:	88 0f       	add	r24, r24
    231e:	99 1f       	adc	r25, r25
    2320:	aa 1f       	adc	r26, r26
    2322:	bb 1f       	adc	r27, r27
    2324:	88 0f       	add	r24, r24
    2326:	99 1f       	adc	r25, r25
    2328:	aa 1f       	adc	r26, r26
    232a:	bb 1f       	adc	r27, r27
    232c:	88 0f       	add	r24, r24
    232e:	99 1f       	adc	r25, r25
    2330:	aa 1f       	adc	r26, r26
    2332:	bb 1f       	adc	r27, r27
    2334:	9c 01       	movw	r18, r24
    2336:	ad 01       	movw	r20, r26
    2338:	89 81       	ldd	r24, Y+1	; 0x01
    233a:	9a 81       	ldd	r25, Y+2	; 0x02
    233c:	ab 81       	ldd	r26, Y+3	; 0x03
    233e:	bc 81       	ldd	r27, Y+4	; 0x04
    2340:	07 2e       	mov	r0, r23
    2342:	7c e1       	ldi	r23, 0x1C	; 28
    2344:	b6 95       	lsr	r27
    2346:	a7 95       	ror	r26
    2348:	97 95       	ror	r25
    234a:	87 95       	ror	r24
    234c:	7a 95       	dec	r23
    234e:	d1 f7       	brne	.-12     	; 0x2344 <igris_crc32+0x2a4>
    2350:	70 2d       	mov	r23, r0
    2352:	88 0f       	add	r24, r24
    2354:	99 1f       	adc	r25, r25
    2356:	88 0f       	add	r24, r24
    2358:	99 1f       	adc	r25, r25
    235a:	8f 57       	subi	r24, 0x7F	; 127
    235c:	9e 4f       	sbci	r25, 0xFE	; 254
    235e:	fc 01       	movw	r30, r24
    2360:	80 81       	ld	r24, Z
    2362:	91 81       	ldd	r25, Z+1	; 0x01
    2364:	a2 81       	ldd	r26, Z+2	; 0x02
    2366:	b3 81       	ldd	r27, Z+3	; 0x03
    2368:	82 27       	eor	r24, r18
    236a:	93 27       	eor	r25, r19
    236c:	a4 27       	eor	r26, r20
    236e:	b5 27       	eor	r27, r21
    2370:	89 83       	std	Y+1, r24	; 0x01
    2372:	9a 83       	std	Y+2, r25	; 0x02
    2374:	ab 83       	std	Y+3, r26	; 0x03
    2376:	bc 83       	std	Y+4, r27	; 0x04
    2378:	89 81       	ldd	r24, Y+1	; 0x01
    237a:	9a 81       	ldd	r25, Y+2	; 0x02
    237c:	ab 81       	ldd	r26, Y+3	; 0x03
    237e:	bc 81       	ldd	r27, Y+4	; 0x04
    2380:	88 0f       	add	r24, r24
    2382:	99 1f       	adc	r25, r25
    2384:	aa 1f       	adc	r26, r26
    2386:	bb 1f       	adc	r27, r27
    2388:	88 0f       	add	r24, r24
    238a:	99 1f       	adc	r25, r25
    238c:	aa 1f       	adc	r26, r26
    238e:	bb 1f       	adc	r27, r27
    2390:	88 0f       	add	r24, r24
    2392:	99 1f       	adc	r25, r25
    2394:	aa 1f       	adc	r26, r26
    2396:	bb 1f       	adc	r27, r27
    2398:	88 0f       	add	r24, r24
    239a:	99 1f       	adc	r25, r25
    239c:	aa 1f       	adc	r26, r26
    239e:	bb 1f       	adc	r27, r27
    23a0:	9c 01       	movw	r18, r24
    23a2:	ad 01       	movw	r20, r26
    23a4:	89 81       	ldd	r24, Y+1	; 0x01
    23a6:	9a 81       	ldd	r25, Y+2	; 0x02
    23a8:	ab 81       	ldd	r26, Y+3	; 0x03
    23aa:	bc 81       	ldd	r27, Y+4	; 0x04
    23ac:	07 2e       	mov	r0, r23
    23ae:	7c e1       	ldi	r23, 0x1C	; 28
    23b0:	b6 95       	lsr	r27
    23b2:	a7 95       	ror	r26
    23b4:	97 95       	ror	r25
    23b6:	87 95       	ror	r24
    23b8:	7a 95       	dec	r23
    23ba:	d1 f7       	brne	.-12     	; 0x23b0 <igris_crc32+0x310>
    23bc:	70 2d       	mov	r23, r0
    23be:	88 0f       	add	r24, r24
    23c0:	99 1f       	adc	r25, r25
    23c2:	88 0f       	add	r24, r24
    23c4:	99 1f       	adc	r25, r25
    23c6:	8f 57       	subi	r24, 0x7F	; 127
    23c8:	9e 4f       	sbci	r25, 0xFE	; 254
    23ca:	fc 01       	movw	r30, r24
    23cc:	80 81       	ld	r24, Z
    23ce:	91 81       	ldd	r25, Z+1	; 0x01
    23d0:	a2 81       	ldd	r26, Z+2	; 0x02
    23d2:	b3 81       	ldd	r27, Z+3	; 0x03
    23d4:	82 27       	eor	r24, r18
    23d6:	93 27       	eor	r25, r19
    23d8:	a4 27       	eor	r26, r20
    23da:	b5 27       	eor	r27, r21
    23dc:	89 83       	std	Y+1, r24	; 0x01
    23de:	9a 83       	std	Y+2, r25	; 0x02
    23e0:	ab 83       	std	Y+3, r26	; 0x03
    23e2:	bc 83       	std	Y+4, r27	; 0x04
    23e4:	89 81       	ldd	r24, Y+1	; 0x01
    23e6:	9a 81       	ldd	r25, Y+2	; 0x02
    23e8:	ab 81       	ldd	r26, Y+3	; 0x03
    23ea:	bc 81       	ldd	r27, Y+4	; 0x04
    23ec:	88 0f       	add	r24, r24
    23ee:	99 1f       	adc	r25, r25
    23f0:	aa 1f       	adc	r26, r26
    23f2:	bb 1f       	adc	r27, r27
    23f4:	88 0f       	add	r24, r24
    23f6:	99 1f       	adc	r25, r25
    23f8:	aa 1f       	adc	r26, r26
    23fa:	bb 1f       	adc	r27, r27
    23fc:	88 0f       	add	r24, r24
    23fe:	99 1f       	adc	r25, r25
    2400:	aa 1f       	adc	r26, r26
    2402:	bb 1f       	adc	r27, r27
    2404:	88 0f       	add	r24, r24
    2406:	99 1f       	adc	r25, r25
    2408:	aa 1f       	adc	r26, r26
    240a:	bb 1f       	adc	r27, r27
    240c:	9c 01       	movw	r18, r24
    240e:	ad 01       	movw	r20, r26
    2410:	89 81       	ldd	r24, Y+1	; 0x01
    2412:	9a 81       	ldd	r25, Y+2	; 0x02
    2414:	ab 81       	ldd	r26, Y+3	; 0x03
    2416:	bc 81       	ldd	r27, Y+4	; 0x04
    2418:	07 2e       	mov	r0, r23
    241a:	7c e1       	ldi	r23, 0x1C	; 28
    241c:	b6 95       	lsr	r27
    241e:	a7 95       	ror	r26
    2420:	97 95       	ror	r25
    2422:	87 95       	ror	r24
    2424:	7a 95       	dec	r23
    2426:	d1 f7       	brne	.-12     	; 0x241c <igris_crc32+0x37c>
    2428:	70 2d       	mov	r23, r0
    242a:	88 0f       	add	r24, r24
    242c:	99 1f       	adc	r25, r25
    242e:	88 0f       	add	r24, r24
    2430:	99 1f       	adc	r25, r25
    2432:	8f 57       	subi	r24, 0x7F	; 127
    2434:	9e 4f       	sbci	r25, 0xFE	; 254
    2436:	fc 01       	movw	r30, r24
    2438:	80 81       	ld	r24, Z
    243a:	91 81       	ldd	r25, Z+1	; 0x01
    243c:	a2 81       	ldd	r26, Z+2	; 0x02
    243e:	b3 81       	ldd	r27, Z+3	; 0x03
    2440:	82 27       	eor	r24, r18
    2442:	93 27       	eor	r25, r19
    2444:	a4 27       	eor	r26, r20
    2446:	b5 27       	eor	r27, r21
    2448:	89 83       	std	Y+1, r24	; 0x01
    244a:	9a 83       	std	Y+2, r25	; 0x02
    244c:	ab 83       	std	Y+3, r26	; 0x03
    244e:	bc 83       	std	Y+4, r27	; 0x04
    2450:	89 81       	ldd	r24, Y+1	; 0x01
    2452:	9a 81       	ldd	r25, Y+2	; 0x02
    2454:	ab 81       	ldd	r26, Y+3	; 0x03
    2456:	bc 81       	ldd	r27, Y+4	; 0x04
    2458:	88 0f       	add	r24, r24
    245a:	99 1f       	adc	r25, r25
    245c:	aa 1f       	adc	r26, r26
    245e:	bb 1f       	adc	r27, r27
    2460:	88 0f       	add	r24, r24
    2462:	99 1f       	adc	r25, r25
    2464:	aa 1f       	adc	r26, r26
    2466:	bb 1f       	adc	r27, r27
    2468:	88 0f       	add	r24, r24
    246a:	99 1f       	adc	r25, r25
    246c:	aa 1f       	adc	r26, r26
    246e:	bb 1f       	adc	r27, r27
    2470:	88 0f       	add	r24, r24
    2472:	99 1f       	adc	r25, r25
    2474:	aa 1f       	adc	r26, r26
    2476:	bb 1f       	adc	r27, r27
    2478:	9c 01       	movw	r18, r24
    247a:	ad 01       	movw	r20, r26
    247c:	89 81       	ldd	r24, Y+1	; 0x01
    247e:	9a 81       	ldd	r25, Y+2	; 0x02
    2480:	ab 81       	ldd	r26, Y+3	; 0x03
    2482:	bc 81       	ldd	r27, Y+4	; 0x04
    2484:	07 2e       	mov	r0, r23
    2486:	7c e1       	ldi	r23, 0x1C	; 28
    2488:	b6 95       	lsr	r27
    248a:	a7 95       	ror	r26
    248c:	97 95       	ror	r25
    248e:	87 95       	ror	r24
    2490:	7a 95       	dec	r23
    2492:	d1 f7       	brne	.-12     	; 0x2488 <igris_crc32+0x3e8>
    2494:	70 2d       	mov	r23, r0
    2496:	88 0f       	add	r24, r24
    2498:	99 1f       	adc	r25, r25
    249a:	88 0f       	add	r24, r24
    249c:	99 1f       	adc	r25, r25
    249e:	8f 57       	subi	r24, 0x7F	; 127
    24a0:	9e 4f       	sbci	r25, 0xFE	; 254
    24a2:	fc 01       	movw	r30, r24
    24a4:	80 81       	ld	r24, Z
    24a6:	91 81       	ldd	r25, Z+1	; 0x01
    24a8:	a2 81       	ldd	r26, Z+2	; 0x02
    24aa:	b3 81       	ldd	r27, Z+3	; 0x03
    24ac:	82 27       	eor	r24, r18
    24ae:	93 27       	eor	r25, r19
    24b0:	a4 27       	eor	r26, r20
    24b2:	b5 27       	eor	r27, r21
    24b4:	89 83       	std	Y+1, r24	; 0x01
    24b6:	9a 83       	std	Y+2, r25	; 0x02
    24b8:	ab 83       	std	Y+3, r26	; 0x03
    24ba:	bc 83       	std	Y+4, r27	; 0x04
    24bc:	8d 81       	ldd	r24, Y+5	; 0x05
    24be:	9e 81       	ldd	r25, Y+6	; 0x06
    24c0:	af 81       	ldd	r26, Y+7	; 0x07
    24c2:	b8 85       	ldd	r27, Y+8	; 0x08
    24c4:	01 96       	adiw	r24, 0x01	; 1
    24c6:	a1 1d       	adc	r26, r1
    24c8:	b1 1d       	adc	r27, r1
    24ca:	8d 83       	std	Y+5, r24	; 0x05
    24cc:	9e 83       	std	Y+6, r25	; 0x06
    24ce:	af 83       	std	Y+7, r26	; 0x07
    24d0:	b8 87       	std	Y+8, r27	; 0x08
    24d2:	2d 81       	ldd	r18, Y+5	; 0x05
    24d4:	3e 81       	ldd	r19, Y+6	; 0x06
    24d6:	4f 81       	ldd	r20, Y+7	; 0x07
    24d8:	58 85       	ldd	r21, Y+8	; 0x08
    24da:	8b 85       	ldd	r24, Y+11	; 0x0b
    24dc:	9c 85       	ldd	r25, Y+12	; 0x0c
    24de:	ad 85       	ldd	r26, Y+13	; 0x0d
    24e0:	be 85       	ldd	r27, Y+14	; 0x0e
    24e2:	28 17       	cp	r18, r24
    24e4:	39 07       	cpc	r19, r25
    24e6:	4a 07       	cpc	r20, r26
    24e8:	5b 07       	cpc	r21, r27
    24ea:	08 f4       	brcc	.+2      	; 0x24ee <igris_crc32+0x44e>
    24ec:	1c ce       	rjmp	.-968    	; 0x2126 <igris_crc32+0x86>
    24ee:	8f 85       	ldd	r24, Y+15	; 0x0f
    24f0:	98 89       	ldd	r25, Y+16	; 0x10
    24f2:	a9 89       	ldd	r26, Y+17	; 0x11
    24f4:	ba 89       	ldd	r27, Y+18	; 0x12
    24f6:	89 2b       	or	r24, r25
    24f8:	8a 2b       	or	r24, r26
    24fa:	8b 2b       	or	r24, r27
    24fc:	09 f4       	brne	.+2      	; 0x2500 <igris_crc32+0x460>
    24fe:	e4 c1       	rjmp	.+968    	; 0x28c8 <igris_crc32+0x828>
    2500:	8b 85       	ldd	r24, Y+11	; 0x0b
    2502:	9c 85       	ldd	r25, Y+12	; 0x0c
    2504:	88 0f       	add	r24, r24
    2506:	99 1f       	adc	r25, r25
    2508:	88 0f       	add	r24, r24
    250a:	99 1f       	adc	r25, r25
    250c:	29 85       	ldd	r18, Y+9	; 0x09
    250e:	3a 85       	ldd	r19, Y+10	; 0x0a
    2510:	82 0f       	add	r24, r18
    2512:	93 1f       	adc	r25, r19
    2514:	fc 01       	movw	r30, r24
    2516:	20 81       	ld	r18, Z
    2518:	31 81       	ldd	r19, Z+1	; 0x01
    251a:	42 81       	ldd	r20, Z+2	; 0x02
    251c:	53 81       	ldd	r21, Z+3	; 0x03
    251e:	8f 85       	ldd	r24, Y+15	; 0x0f
    2520:	98 89       	ldd	r25, Y+16	; 0x10
    2522:	bc 01       	movw	r22, r24
    2524:	66 0f       	add	r22, r22
    2526:	77 1f       	adc	r23, r23
    2528:	66 0f       	add	r22, r22
    252a:	77 1f       	adc	r23, r23
    252c:	66 0f       	add	r22, r22
    252e:	77 1f       	adc	r23, r23
    2530:	81 e0       	ldi	r24, 0x01	; 1
    2532:	90 e0       	ldi	r25, 0x00	; 0
    2534:	02 c0       	rjmp	.+4      	; 0x253a <igris_crc32+0x49a>
    2536:	88 0f       	add	r24, r24
    2538:	99 1f       	adc	r25, r25
    253a:	6a 95       	dec	r22
    253c:	e2 f7       	brpl	.-8      	; 0x2536 <igris_crc32+0x496>
    253e:	01 97       	sbiw	r24, 0x01	; 1
    2540:	09 2e       	mov	r0, r25
    2542:	00 0c       	add	r0, r0
    2544:	aa 0b       	sbc	r26, r26
    2546:	bb 0b       	sbc	r27, r27
    2548:	82 23       	and	r24, r18
    254a:	93 23       	and	r25, r19
    254c:	a4 23       	and	r26, r20
    254e:	b5 23       	and	r27, r21
    2550:	29 81       	ldd	r18, Y+1	; 0x01
    2552:	3a 81       	ldd	r19, Y+2	; 0x02
    2554:	4b 81       	ldd	r20, Y+3	; 0x03
    2556:	5c 81       	ldd	r21, Y+4	; 0x04
    2558:	82 27       	eor	r24, r18
    255a:	93 27       	eor	r25, r19
    255c:	a4 27       	eor	r26, r20
    255e:	b5 27       	eor	r27, r21
    2560:	89 83       	std	Y+1, r24	; 0x01
    2562:	9a 83       	std	Y+2, r25	; 0x02
    2564:	ab 83       	std	Y+3, r26	; 0x03
    2566:	bc 83       	std	Y+4, r27	; 0x04
    2568:	89 81       	ldd	r24, Y+1	; 0x01
    256a:	9a 81       	ldd	r25, Y+2	; 0x02
    256c:	ab 81       	ldd	r26, Y+3	; 0x03
    256e:	bc 81       	ldd	r27, Y+4	; 0x04
    2570:	88 0f       	add	r24, r24
    2572:	99 1f       	adc	r25, r25
    2574:	aa 1f       	adc	r26, r26
    2576:	bb 1f       	adc	r27, r27
    2578:	88 0f       	add	r24, r24
    257a:	99 1f       	adc	r25, r25
    257c:	aa 1f       	adc	r26, r26
    257e:	bb 1f       	adc	r27, r27
    2580:	88 0f       	add	r24, r24
    2582:	99 1f       	adc	r25, r25
    2584:	aa 1f       	adc	r26, r26
    2586:	bb 1f       	adc	r27, r27
    2588:	88 0f       	add	r24, r24
    258a:	99 1f       	adc	r25, r25
    258c:	aa 1f       	adc	r26, r26
    258e:	bb 1f       	adc	r27, r27
    2590:	9c 01       	movw	r18, r24
    2592:	ad 01       	movw	r20, r26
    2594:	89 81       	ldd	r24, Y+1	; 0x01
    2596:	9a 81       	ldd	r25, Y+2	; 0x02
    2598:	ab 81       	ldd	r26, Y+3	; 0x03
    259a:	bc 81       	ldd	r27, Y+4	; 0x04
    259c:	07 2e       	mov	r0, r23
    259e:	7c e1       	ldi	r23, 0x1C	; 28
    25a0:	b6 95       	lsr	r27
    25a2:	a7 95       	ror	r26
    25a4:	97 95       	ror	r25
    25a6:	87 95       	ror	r24
    25a8:	7a 95       	dec	r23
    25aa:	d1 f7       	brne	.-12     	; 0x25a0 <igris_crc32+0x500>
    25ac:	70 2d       	mov	r23, r0
    25ae:	88 0f       	add	r24, r24
    25b0:	99 1f       	adc	r25, r25
    25b2:	88 0f       	add	r24, r24
    25b4:	99 1f       	adc	r25, r25
    25b6:	8f 57       	subi	r24, 0x7F	; 127
    25b8:	9e 4f       	sbci	r25, 0xFE	; 254
    25ba:	fc 01       	movw	r30, r24
    25bc:	80 81       	ld	r24, Z
    25be:	91 81       	ldd	r25, Z+1	; 0x01
    25c0:	a2 81       	ldd	r26, Z+2	; 0x02
    25c2:	b3 81       	ldd	r27, Z+3	; 0x03
    25c4:	82 27       	eor	r24, r18
    25c6:	93 27       	eor	r25, r19
    25c8:	a4 27       	eor	r26, r20
    25ca:	b5 27       	eor	r27, r21
    25cc:	89 83       	std	Y+1, r24	; 0x01
    25ce:	9a 83       	std	Y+2, r25	; 0x02
    25d0:	ab 83       	std	Y+3, r26	; 0x03
    25d2:	bc 83       	std	Y+4, r27	; 0x04
    25d4:	89 81       	ldd	r24, Y+1	; 0x01
    25d6:	9a 81       	ldd	r25, Y+2	; 0x02
    25d8:	ab 81       	ldd	r26, Y+3	; 0x03
    25da:	bc 81       	ldd	r27, Y+4	; 0x04
    25dc:	88 0f       	add	r24, r24
    25de:	99 1f       	adc	r25, r25
    25e0:	aa 1f       	adc	r26, r26
    25e2:	bb 1f       	adc	r27, r27
    25e4:	88 0f       	add	r24, r24
    25e6:	99 1f       	adc	r25, r25
    25e8:	aa 1f       	adc	r26, r26
    25ea:	bb 1f       	adc	r27, r27
    25ec:	88 0f       	add	r24, r24
    25ee:	99 1f       	adc	r25, r25
    25f0:	aa 1f       	adc	r26, r26
    25f2:	bb 1f       	adc	r27, r27
    25f4:	88 0f       	add	r24, r24
    25f6:	99 1f       	adc	r25, r25
    25f8:	aa 1f       	adc	r26, r26
    25fa:	bb 1f       	adc	r27, r27
    25fc:	9c 01       	movw	r18, r24
    25fe:	ad 01       	movw	r20, r26
    2600:	89 81       	ldd	r24, Y+1	; 0x01
    2602:	9a 81       	ldd	r25, Y+2	; 0x02
    2604:	ab 81       	ldd	r26, Y+3	; 0x03
    2606:	bc 81       	ldd	r27, Y+4	; 0x04
    2608:	07 2e       	mov	r0, r23
    260a:	7c e1       	ldi	r23, 0x1C	; 28
    260c:	b6 95       	lsr	r27
    260e:	a7 95       	ror	r26
    2610:	97 95       	ror	r25
    2612:	87 95       	ror	r24
    2614:	7a 95       	dec	r23
    2616:	d1 f7       	brne	.-12     	; 0x260c <igris_crc32+0x56c>
    2618:	70 2d       	mov	r23, r0
    261a:	88 0f       	add	r24, r24
    261c:	99 1f       	adc	r25, r25
    261e:	88 0f       	add	r24, r24
    2620:	99 1f       	adc	r25, r25
    2622:	8f 57       	subi	r24, 0x7F	; 127
    2624:	9e 4f       	sbci	r25, 0xFE	; 254
    2626:	fc 01       	movw	r30, r24
    2628:	80 81       	ld	r24, Z
    262a:	91 81       	ldd	r25, Z+1	; 0x01
    262c:	a2 81       	ldd	r26, Z+2	; 0x02
    262e:	b3 81       	ldd	r27, Z+3	; 0x03
    2630:	82 27       	eor	r24, r18
    2632:	93 27       	eor	r25, r19
    2634:	a4 27       	eor	r26, r20
    2636:	b5 27       	eor	r27, r21
    2638:	89 83       	std	Y+1, r24	; 0x01
    263a:	9a 83       	std	Y+2, r25	; 0x02
    263c:	ab 83       	std	Y+3, r26	; 0x03
    263e:	bc 83       	std	Y+4, r27	; 0x04
    2640:	89 81       	ldd	r24, Y+1	; 0x01
    2642:	9a 81       	ldd	r25, Y+2	; 0x02
    2644:	ab 81       	ldd	r26, Y+3	; 0x03
    2646:	bc 81       	ldd	r27, Y+4	; 0x04
    2648:	88 0f       	add	r24, r24
    264a:	99 1f       	adc	r25, r25
    264c:	aa 1f       	adc	r26, r26
    264e:	bb 1f       	adc	r27, r27
    2650:	88 0f       	add	r24, r24
    2652:	99 1f       	adc	r25, r25
    2654:	aa 1f       	adc	r26, r26
    2656:	bb 1f       	adc	r27, r27
    2658:	88 0f       	add	r24, r24
    265a:	99 1f       	adc	r25, r25
    265c:	aa 1f       	adc	r26, r26
    265e:	bb 1f       	adc	r27, r27
    2660:	88 0f       	add	r24, r24
    2662:	99 1f       	adc	r25, r25
    2664:	aa 1f       	adc	r26, r26
    2666:	bb 1f       	adc	r27, r27
    2668:	9c 01       	movw	r18, r24
    266a:	ad 01       	movw	r20, r26
    266c:	89 81       	ldd	r24, Y+1	; 0x01
    266e:	9a 81       	ldd	r25, Y+2	; 0x02
    2670:	ab 81       	ldd	r26, Y+3	; 0x03
    2672:	bc 81       	ldd	r27, Y+4	; 0x04
    2674:	07 2e       	mov	r0, r23
    2676:	7c e1       	ldi	r23, 0x1C	; 28
    2678:	b6 95       	lsr	r27
    267a:	a7 95       	ror	r26
    267c:	97 95       	ror	r25
    267e:	87 95       	ror	r24
    2680:	7a 95       	dec	r23
    2682:	d1 f7       	brne	.-12     	; 0x2678 <igris_crc32+0x5d8>
    2684:	70 2d       	mov	r23, r0
    2686:	88 0f       	add	r24, r24
    2688:	99 1f       	adc	r25, r25
    268a:	88 0f       	add	r24, r24
    268c:	99 1f       	adc	r25, r25
    268e:	8f 57       	subi	r24, 0x7F	; 127
    2690:	9e 4f       	sbci	r25, 0xFE	; 254
    2692:	fc 01       	movw	r30, r24
    2694:	80 81       	ld	r24, Z
    2696:	91 81       	ldd	r25, Z+1	; 0x01
    2698:	a2 81       	ldd	r26, Z+2	; 0x02
    269a:	b3 81       	ldd	r27, Z+3	; 0x03
    269c:	82 27       	eor	r24, r18
    269e:	93 27       	eor	r25, r19
    26a0:	a4 27       	eor	r26, r20
    26a2:	b5 27       	eor	r27, r21
    26a4:	89 83       	std	Y+1, r24	; 0x01
    26a6:	9a 83       	std	Y+2, r25	; 0x02
    26a8:	ab 83       	std	Y+3, r26	; 0x03
    26aa:	bc 83       	std	Y+4, r27	; 0x04
    26ac:	89 81       	ldd	r24, Y+1	; 0x01
    26ae:	9a 81       	ldd	r25, Y+2	; 0x02
    26b0:	ab 81       	ldd	r26, Y+3	; 0x03
    26b2:	bc 81       	ldd	r27, Y+4	; 0x04
    26b4:	88 0f       	add	r24, r24
    26b6:	99 1f       	adc	r25, r25
    26b8:	aa 1f       	adc	r26, r26
    26ba:	bb 1f       	adc	r27, r27
    26bc:	88 0f       	add	r24, r24
    26be:	99 1f       	adc	r25, r25
    26c0:	aa 1f       	adc	r26, r26
    26c2:	bb 1f       	adc	r27, r27
    26c4:	88 0f       	add	r24, r24
    26c6:	99 1f       	adc	r25, r25
    26c8:	aa 1f       	adc	r26, r26
    26ca:	bb 1f       	adc	r27, r27
    26cc:	88 0f       	add	r24, r24
    26ce:	99 1f       	adc	r25, r25
    26d0:	aa 1f       	adc	r26, r26
    26d2:	bb 1f       	adc	r27, r27
    26d4:	9c 01       	movw	r18, r24
    26d6:	ad 01       	movw	r20, r26
    26d8:	89 81       	ldd	r24, Y+1	; 0x01
    26da:	9a 81       	ldd	r25, Y+2	; 0x02
    26dc:	ab 81       	ldd	r26, Y+3	; 0x03
    26de:	bc 81       	ldd	r27, Y+4	; 0x04
    26e0:	07 2e       	mov	r0, r23
    26e2:	7c e1       	ldi	r23, 0x1C	; 28
    26e4:	b6 95       	lsr	r27
    26e6:	a7 95       	ror	r26
    26e8:	97 95       	ror	r25
    26ea:	87 95       	ror	r24
    26ec:	7a 95       	dec	r23
    26ee:	d1 f7       	brne	.-12     	; 0x26e4 <igris_crc32+0x644>
    26f0:	70 2d       	mov	r23, r0
    26f2:	88 0f       	add	r24, r24
    26f4:	99 1f       	adc	r25, r25
    26f6:	88 0f       	add	r24, r24
    26f8:	99 1f       	adc	r25, r25
    26fa:	8f 57       	subi	r24, 0x7F	; 127
    26fc:	9e 4f       	sbci	r25, 0xFE	; 254
    26fe:	fc 01       	movw	r30, r24
    2700:	80 81       	ld	r24, Z
    2702:	91 81       	ldd	r25, Z+1	; 0x01
    2704:	a2 81       	ldd	r26, Z+2	; 0x02
    2706:	b3 81       	ldd	r27, Z+3	; 0x03
    2708:	82 27       	eor	r24, r18
    270a:	93 27       	eor	r25, r19
    270c:	a4 27       	eor	r26, r20
    270e:	b5 27       	eor	r27, r21
    2710:	89 83       	std	Y+1, r24	; 0x01
    2712:	9a 83       	std	Y+2, r25	; 0x02
    2714:	ab 83       	std	Y+3, r26	; 0x03
    2716:	bc 83       	std	Y+4, r27	; 0x04
    2718:	89 81       	ldd	r24, Y+1	; 0x01
    271a:	9a 81       	ldd	r25, Y+2	; 0x02
    271c:	ab 81       	ldd	r26, Y+3	; 0x03
    271e:	bc 81       	ldd	r27, Y+4	; 0x04
    2720:	88 0f       	add	r24, r24
    2722:	99 1f       	adc	r25, r25
    2724:	aa 1f       	adc	r26, r26
    2726:	bb 1f       	adc	r27, r27
    2728:	88 0f       	add	r24, r24
    272a:	99 1f       	adc	r25, r25
    272c:	aa 1f       	adc	r26, r26
    272e:	bb 1f       	adc	r27, r27
    2730:	88 0f       	add	r24, r24
    2732:	99 1f       	adc	r25, r25
    2734:	aa 1f       	adc	r26, r26
    2736:	bb 1f       	adc	r27, r27
    2738:	88 0f       	add	r24, r24
    273a:	99 1f       	adc	r25, r25
    273c:	aa 1f       	adc	r26, r26
    273e:	bb 1f       	adc	r27, r27
    2740:	9c 01       	movw	r18, r24
    2742:	ad 01       	movw	r20, r26
    2744:	89 81       	ldd	r24, Y+1	; 0x01
    2746:	9a 81       	ldd	r25, Y+2	; 0x02
    2748:	ab 81       	ldd	r26, Y+3	; 0x03
    274a:	bc 81       	ldd	r27, Y+4	; 0x04
    274c:	07 2e       	mov	r0, r23
    274e:	7c e1       	ldi	r23, 0x1C	; 28
    2750:	b6 95       	lsr	r27
    2752:	a7 95       	ror	r26
    2754:	97 95       	ror	r25
    2756:	87 95       	ror	r24
    2758:	7a 95       	dec	r23
    275a:	d1 f7       	brne	.-12     	; 0x2750 <igris_crc32+0x6b0>
    275c:	70 2d       	mov	r23, r0
    275e:	88 0f       	add	r24, r24
    2760:	99 1f       	adc	r25, r25
    2762:	88 0f       	add	r24, r24
    2764:	99 1f       	adc	r25, r25
    2766:	8f 57       	subi	r24, 0x7F	; 127
    2768:	9e 4f       	sbci	r25, 0xFE	; 254
    276a:	fc 01       	movw	r30, r24
    276c:	80 81       	ld	r24, Z
    276e:	91 81       	ldd	r25, Z+1	; 0x01
    2770:	a2 81       	ldd	r26, Z+2	; 0x02
    2772:	b3 81       	ldd	r27, Z+3	; 0x03
    2774:	82 27       	eor	r24, r18
    2776:	93 27       	eor	r25, r19
    2778:	a4 27       	eor	r26, r20
    277a:	b5 27       	eor	r27, r21
    277c:	89 83       	std	Y+1, r24	; 0x01
    277e:	9a 83       	std	Y+2, r25	; 0x02
    2780:	ab 83       	std	Y+3, r26	; 0x03
    2782:	bc 83       	std	Y+4, r27	; 0x04
    2784:	89 81       	ldd	r24, Y+1	; 0x01
    2786:	9a 81       	ldd	r25, Y+2	; 0x02
    2788:	ab 81       	ldd	r26, Y+3	; 0x03
    278a:	bc 81       	ldd	r27, Y+4	; 0x04
    278c:	88 0f       	add	r24, r24
    278e:	99 1f       	adc	r25, r25
    2790:	aa 1f       	adc	r26, r26
    2792:	bb 1f       	adc	r27, r27
    2794:	88 0f       	add	r24, r24
    2796:	99 1f       	adc	r25, r25
    2798:	aa 1f       	adc	r26, r26
    279a:	bb 1f       	adc	r27, r27
    279c:	88 0f       	add	r24, r24
    279e:	99 1f       	adc	r25, r25
    27a0:	aa 1f       	adc	r26, r26
    27a2:	bb 1f       	adc	r27, r27
    27a4:	88 0f       	add	r24, r24
    27a6:	99 1f       	adc	r25, r25
    27a8:	aa 1f       	adc	r26, r26
    27aa:	bb 1f       	adc	r27, r27
    27ac:	9c 01       	movw	r18, r24
    27ae:	ad 01       	movw	r20, r26
    27b0:	89 81       	ldd	r24, Y+1	; 0x01
    27b2:	9a 81       	ldd	r25, Y+2	; 0x02
    27b4:	ab 81       	ldd	r26, Y+3	; 0x03
    27b6:	bc 81       	ldd	r27, Y+4	; 0x04
    27b8:	07 2e       	mov	r0, r23
    27ba:	7c e1       	ldi	r23, 0x1C	; 28
    27bc:	b6 95       	lsr	r27
    27be:	a7 95       	ror	r26
    27c0:	97 95       	ror	r25
    27c2:	87 95       	ror	r24
    27c4:	7a 95       	dec	r23
    27c6:	d1 f7       	brne	.-12     	; 0x27bc <igris_crc32+0x71c>
    27c8:	70 2d       	mov	r23, r0
    27ca:	88 0f       	add	r24, r24
    27cc:	99 1f       	adc	r25, r25
    27ce:	88 0f       	add	r24, r24
    27d0:	99 1f       	adc	r25, r25
    27d2:	8f 57       	subi	r24, 0x7F	; 127
    27d4:	9e 4f       	sbci	r25, 0xFE	; 254
    27d6:	fc 01       	movw	r30, r24
    27d8:	80 81       	ld	r24, Z
    27da:	91 81       	ldd	r25, Z+1	; 0x01
    27dc:	a2 81       	ldd	r26, Z+2	; 0x02
    27de:	b3 81       	ldd	r27, Z+3	; 0x03
    27e0:	82 27       	eor	r24, r18
    27e2:	93 27       	eor	r25, r19
    27e4:	a4 27       	eor	r26, r20
    27e6:	b5 27       	eor	r27, r21
    27e8:	89 83       	std	Y+1, r24	; 0x01
    27ea:	9a 83       	std	Y+2, r25	; 0x02
    27ec:	ab 83       	std	Y+3, r26	; 0x03
    27ee:	bc 83       	std	Y+4, r27	; 0x04
    27f0:	89 81       	ldd	r24, Y+1	; 0x01
    27f2:	9a 81       	ldd	r25, Y+2	; 0x02
    27f4:	ab 81       	ldd	r26, Y+3	; 0x03
    27f6:	bc 81       	ldd	r27, Y+4	; 0x04
    27f8:	88 0f       	add	r24, r24
    27fa:	99 1f       	adc	r25, r25
    27fc:	aa 1f       	adc	r26, r26
    27fe:	bb 1f       	adc	r27, r27
    2800:	88 0f       	add	r24, r24
    2802:	99 1f       	adc	r25, r25
    2804:	aa 1f       	adc	r26, r26
    2806:	bb 1f       	adc	r27, r27
    2808:	88 0f       	add	r24, r24
    280a:	99 1f       	adc	r25, r25
    280c:	aa 1f       	adc	r26, r26
    280e:	bb 1f       	adc	r27, r27
    2810:	88 0f       	add	r24, r24
    2812:	99 1f       	adc	r25, r25
    2814:	aa 1f       	adc	r26, r26
    2816:	bb 1f       	adc	r27, r27
    2818:	9c 01       	movw	r18, r24
    281a:	ad 01       	movw	r20, r26
    281c:	89 81       	ldd	r24, Y+1	; 0x01
    281e:	9a 81       	ldd	r25, Y+2	; 0x02
    2820:	ab 81       	ldd	r26, Y+3	; 0x03
    2822:	bc 81       	ldd	r27, Y+4	; 0x04
    2824:	07 2e       	mov	r0, r23
    2826:	7c e1       	ldi	r23, 0x1C	; 28
    2828:	b6 95       	lsr	r27
    282a:	a7 95       	ror	r26
    282c:	97 95       	ror	r25
    282e:	87 95       	ror	r24
    2830:	7a 95       	dec	r23
    2832:	d1 f7       	brne	.-12     	; 0x2828 <igris_crc32+0x788>
    2834:	70 2d       	mov	r23, r0
    2836:	88 0f       	add	r24, r24
    2838:	99 1f       	adc	r25, r25
    283a:	88 0f       	add	r24, r24
    283c:	99 1f       	adc	r25, r25
    283e:	8f 57       	subi	r24, 0x7F	; 127
    2840:	9e 4f       	sbci	r25, 0xFE	; 254
    2842:	fc 01       	movw	r30, r24
    2844:	80 81       	ld	r24, Z
    2846:	91 81       	ldd	r25, Z+1	; 0x01
    2848:	a2 81       	ldd	r26, Z+2	; 0x02
    284a:	b3 81       	ldd	r27, Z+3	; 0x03
    284c:	82 27       	eor	r24, r18
    284e:	93 27       	eor	r25, r19
    2850:	a4 27       	eor	r26, r20
    2852:	b5 27       	eor	r27, r21
    2854:	89 83       	std	Y+1, r24	; 0x01
    2856:	9a 83       	std	Y+2, r25	; 0x02
    2858:	ab 83       	std	Y+3, r26	; 0x03
    285a:	bc 83       	std	Y+4, r27	; 0x04
    285c:	89 81       	ldd	r24, Y+1	; 0x01
    285e:	9a 81       	ldd	r25, Y+2	; 0x02
    2860:	ab 81       	ldd	r26, Y+3	; 0x03
    2862:	bc 81       	ldd	r27, Y+4	; 0x04
    2864:	88 0f       	add	r24, r24
    2866:	99 1f       	adc	r25, r25
    2868:	aa 1f       	adc	r26, r26
    286a:	bb 1f       	adc	r27, r27
    286c:	88 0f       	add	r24, r24
    286e:	99 1f       	adc	r25, r25
    2870:	aa 1f       	adc	r26, r26
    2872:	bb 1f       	adc	r27, r27
    2874:	88 0f       	add	r24, r24
    2876:	99 1f       	adc	r25, r25
    2878:	aa 1f       	adc	r26, r26
    287a:	bb 1f       	adc	r27, r27
    287c:	88 0f       	add	r24, r24
    287e:	99 1f       	adc	r25, r25
    2880:	aa 1f       	adc	r26, r26
    2882:	bb 1f       	adc	r27, r27
    2884:	9c 01       	movw	r18, r24
    2886:	ad 01       	movw	r20, r26
    2888:	89 81       	ldd	r24, Y+1	; 0x01
    288a:	9a 81       	ldd	r25, Y+2	; 0x02
    288c:	ab 81       	ldd	r26, Y+3	; 0x03
    288e:	bc 81       	ldd	r27, Y+4	; 0x04
    2890:	07 2e       	mov	r0, r23
    2892:	7c e1       	ldi	r23, 0x1C	; 28
    2894:	b6 95       	lsr	r27
    2896:	a7 95       	ror	r26
    2898:	97 95       	ror	r25
    289a:	87 95       	ror	r24
    289c:	7a 95       	dec	r23
    289e:	d1 f7       	brne	.-12     	; 0x2894 <igris_crc32+0x7f4>
    28a0:	70 2d       	mov	r23, r0
    28a2:	88 0f       	add	r24, r24
    28a4:	99 1f       	adc	r25, r25
    28a6:	88 0f       	add	r24, r24
    28a8:	99 1f       	adc	r25, r25
    28aa:	8f 57       	subi	r24, 0x7F	; 127
    28ac:	9e 4f       	sbci	r25, 0xFE	; 254
    28ae:	fc 01       	movw	r30, r24
    28b0:	80 81       	ld	r24, Z
    28b2:	91 81       	ldd	r25, Z+1	; 0x01
    28b4:	a2 81       	ldd	r26, Z+2	; 0x02
    28b6:	b3 81       	ldd	r27, Z+3	; 0x03
    28b8:	82 27       	eor	r24, r18
    28ba:	93 27       	eor	r25, r19
    28bc:	a4 27       	eor	r26, r20
    28be:	b5 27       	eor	r27, r21
    28c0:	89 83       	std	Y+1, r24	; 0x01
    28c2:	9a 83       	std	Y+2, r25	; 0x02
    28c4:	ab 83       	std	Y+3, r26	; 0x03
    28c6:	bc 83       	std	Y+4, r27	; 0x04
    28c8:	89 81       	ldd	r24, Y+1	; 0x01
    28ca:	9a 81       	ldd	r25, Y+2	; 0x02
    28cc:	ab 81       	ldd	r26, Y+3	; 0x03
    28ce:	bc 81       	ldd	r27, Y+4	; 0x04
    28d0:	bc 01       	movw	r22, r24
    28d2:	cd 01       	movw	r24, r26
    28d4:	6c 96       	adiw	r28, 0x1c	; 28
    28d6:	0f b6       	in	r0, 0x3f	; 63
    28d8:	f8 94       	cli
    28da:	de bf       	out	0x3e, r29	; 62
    28dc:	0f be       	out	0x3f, r0	; 63
    28de:	cd bf       	out	0x3d, r28	; 61
    28e0:	df 91       	pop	r29
    28e2:	cf 91       	pop	r28
    28e4:	1f 91       	pop	r17
    28e6:	0f 91       	pop	r16
    28e8:	08 95       	ret

000028ea <igris_memmem>:
    28ea:	cf 93       	push	r28
    28ec:	df 93       	push	r29
    28ee:	cd b7       	in	r28, 0x3d	; 61
    28f0:	de b7       	in	r29, 0x3e	; 62
    28f2:	60 97       	sbiw	r28, 0x10	; 16
    28f4:	0f b6       	in	r0, 0x3f	; 63
    28f6:	f8 94       	cli
    28f8:	de bf       	out	0x3e, r29	; 62
    28fa:	0f be       	out	0x3f, r0	; 63
    28fc:	cd bf       	out	0x3d, r28	; 61
    28fe:	9a 87       	std	Y+10, r25	; 0x0a
    2900:	89 87       	std	Y+9, r24	; 0x09
    2902:	7c 87       	std	Y+12, r23	; 0x0c
    2904:	6b 87       	std	Y+11, r22	; 0x0b
    2906:	5e 87       	std	Y+14, r21	; 0x0e
    2908:	4d 87       	std	Y+13, r20	; 0x0d
    290a:	38 8b       	std	Y+16, r19	; 0x10
    290c:	2f 87       	std	Y+15, r18	; 0x0f
    290e:	89 85       	ldd	r24, Y+9	; 0x09
    2910:	9a 85       	ldd	r25, Y+10	; 0x0a
    2912:	9c 83       	std	Y+4, r25	; 0x04
    2914:	8b 83       	std	Y+3, r24	; 0x03
    2916:	8d 85       	ldd	r24, Y+13	; 0x0d
    2918:	9e 85       	ldd	r25, Y+14	; 0x0e
    291a:	9e 83       	std	Y+6, r25	; 0x06
    291c:	8d 83       	std	Y+5, r24	; 0x05
    291e:	8b 85       	ldd	r24, Y+11	; 0x0b
    2920:	9c 85       	ldd	r25, Y+12	; 0x0c
    2922:	89 2b       	or	r24, r25
    2924:	21 f0       	breq	.+8      	; 0x292e <igris_memmem+0x44>
    2926:	8f 85       	ldd	r24, Y+15	; 0x0f
    2928:	98 89       	ldd	r25, Y+16	; 0x10
    292a:	89 2b       	or	r24, r25
    292c:	19 f4       	brne	.+6      	; 0x2934 <igris_memmem+0x4a>
    292e:	80 e0       	ldi	r24, 0x00	; 0
    2930:	90 e0       	ldi	r25, 0x00	; 0
    2932:	56 c0       	rjmp	.+172    	; 0x29e0 <igris_memmem+0xf6>
    2934:	2b 85       	ldd	r18, Y+11	; 0x0b
    2936:	3c 85       	ldd	r19, Y+12	; 0x0c
    2938:	8f 85       	ldd	r24, Y+15	; 0x0f
    293a:	98 89       	ldd	r25, Y+16	; 0x10
    293c:	28 17       	cp	r18, r24
    293e:	39 07       	cpc	r19, r25
    2940:	18 f4       	brcc	.+6      	; 0x2948 <igris_memmem+0x5e>
    2942:	80 e0       	ldi	r24, 0x00	; 0
    2944:	90 e0       	ldi	r25, 0x00	; 0
    2946:	4c c0       	rjmp	.+152    	; 0x29e0 <igris_memmem+0xf6>
    2948:	8f 85       	ldd	r24, Y+15	; 0x0f
    294a:	98 89       	ldd	r25, Y+16	; 0x10
    294c:	01 97       	sbiw	r24, 0x01	; 1
    294e:	79 f4       	brne	.+30     	; 0x296e <igris_memmem+0x84>
    2950:	8d 81       	ldd	r24, Y+5	; 0x05
    2952:	9e 81       	ldd	r25, Y+6	; 0x06
    2954:	fc 01       	movw	r30, r24
    2956:	80 81       	ld	r24, Z
    2958:	28 2f       	mov	r18, r24
    295a:	88 0f       	add	r24, r24
    295c:	33 0b       	sbc	r19, r19
    295e:	4b 85       	ldd	r20, Y+11	; 0x0b
    2960:	5c 85       	ldd	r21, Y+12	; 0x0c
    2962:	89 85       	ldd	r24, Y+9	; 0x09
    2964:	9a 85       	ldd	r25, Y+10	; 0x0a
    2966:	b9 01       	movw	r22, r18
    2968:	0e 94 e7 34 	call	0x69ce	; 0x69ce <memchr>
    296c:	39 c0       	rjmp	.+114    	; 0x29e0 <igris_memmem+0xf6>
    296e:	2b 85       	ldd	r18, Y+11	; 0x0b
    2970:	3c 85       	ldd	r19, Y+12	; 0x0c
    2972:	8f 85       	ldd	r24, Y+15	; 0x0f
    2974:	98 89       	ldd	r25, Y+16	; 0x10
    2976:	a9 01       	movw	r20, r18
    2978:	48 1b       	sub	r20, r24
    297a:	59 0b       	sbc	r21, r25
    297c:	ca 01       	movw	r24, r20
    297e:	2b 81       	ldd	r18, Y+3	; 0x03
    2980:	3c 81       	ldd	r19, Y+4	; 0x04
    2982:	82 0f       	add	r24, r18
    2984:	93 1f       	adc	r25, r19
    2986:	98 87       	std	Y+8, r25	; 0x08
    2988:	8f 83       	std	Y+7, r24	; 0x07
    298a:	8b 81       	ldd	r24, Y+3	; 0x03
    298c:	9c 81       	ldd	r25, Y+4	; 0x04
    298e:	9a 83       	std	Y+2, r25	; 0x02
    2990:	89 83       	std	Y+1, r24	; 0x01
    2992:	1d c0       	rjmp	.+58     	; 0x29ce <igris_memmem+0xe4>
    2994:	89 81       	ldd	r24, Y+1	; 0x01
    2996:	9a 81       	ldd	r25, Y+2	; 0x02
    2998:	fc 01       	movw	r30, r24
    299a:	20 81       	ld	r18, Z
    299c:	8d 81       	ldd	r24, Y+5	; 0x05
    299e:	9e 81       	ldd	r25, Y+6	; 0x06
    29a0:	fc 01       	movw	r30, r24
    29a2:	80 81       	ld	r24, Z
    29a4:	28 17       	cp	r18, r24
    29a6:	71 f4       	brne	.+28     	; 0x29c4 <igris_memmem+0xda>
    29a8:	4f 85       	ldd	r20, Y+15	; 0x0f
    29aa:	58 89       	ldd	r21, Y+16	; 0x10
    29ac:	2d 81       	ldd	r18, Y+5	; 0x05
    29ae:	3e 81       	ldd	r19, Y+6	; 0x06
    29b0:	89 81       	ldd	r24, Y+1	; 0x01
    29b2:	9a 81       	ldd	r25, Y+2	; 0x02
    29b4:	b9 01       	movw	r22, r18
    29b6:	0e 94 f4 34 	call	0x69e8	; 0x69e8 <memcmp>
    29ba:	89 2b       	or	r24, r25
    29bc:	19 f4       	brne	.+6      	; 0x29c4 <igris_memmem+0xda>
    29be:	89 81       	ldd	r24, Y+1	; 0x01
    29c0:	9a 81       	ldd	r25, Y+2	; 0x02
    29c2:	0e c0       	rjmp	.+28     	; 0x29e0 <igris_memmem+0xf6>
    29c4:	89 81       	ldd	r24, Y+1	; 0x01
    29c6:	9a 81       	ldd	r25, Y+2	; 0x02
    29c8:	01 96       	adiw	r24, 0x01	; 1
    29ca:	9a 83       	std	Y+2, r25	; 0x02
    29cc:	89 83       	std	Y+1, r24	; 0x01
    29ce:	29 81       	ldd	r18, Y+1	; 0x01
    29d0:	3a 81       	ldd	r19, Y+2	; 0x02
    29d2:	8f 81       	ldd	r24, Y+7	; 0x07
    29d4:	98 85       	ldd	r25, Y+8	; 0x08
    29d6:	82 17       	cp	r24, r18
    29d8:	93 07       	cpc	r25, r19
    29da:	e0 f6       	brcc	.-72     	; 0x2994 <igris_memmem+0xaa>
    29dc:	80 e0       	ldi	r24, 0x00	; 0
    29de:	90 e0       	ldi	r25, 0x00	; 0
    29e0:	60 96       	adiw	r28, 0x10	; 16
    29e2:	0f b6       	in	r0, 0x3f	; 63
    29e4:	f8 94       	cli
    29e6:	de bf       	out	0x3e, r29	; 62
    29e8:	0f be       	out	0x3f, r0	; 63
    29ea:	cd bf       	out	0x3d, r28	; 61
    29ec:	df 91       	pop	r29
    29ee:	cf 91       	pop	r28
    29f0:	08 95       	ret

000029f2 <replace_substrings>:
    29f2:	af 92       	push	r10
    29f4:	bf 92       	push	r11
    29f6:	cf 92       	push	r12
    29f8:	df 92       	push	r13
    29fa:	ef 92       	push	r14
    29fc:	ff 92       	push	r15
    29fe:	0f 93       	push	r16
    2a00:	1f 93       	push	r17
    2a02:	cf 93       	push	r28
    2a04:	df 93       	push	r29
    2a06:	cd b7       	in	r28, 0x3d	; 61
    2a08:	de b7       	in	r29, 0x3e	; 62
    2a0a:	6e 97       	sbiw	r28, 0x1e	; 30
    2a0c:	0f b6       	in	r0, 0x3f	; 63
    2a0e:	f8 94       	cli
    2a10:	de bf       	out	0x3e, r29	; 62
    2a12:	0f be       	out	0x3f, r0	; 63
    2a14:	cd bf       	out	0x3d, r28	; 61
    2a16:	98 8b       	std	Y+16, r25	; 0x10
    2a18:	8f 87       	std	Y+15, r24	; 0x0f
    2a1a:	7a 8b       	std	Y+18, r23	; 0x12
    2a1c:	69 8b       	std	Y+17, r22	; 0x11
    2a1e:	5c 8b       	std	Y+20, r21	; 0x14
    2a20:	4b 8b       	std	Y+19, r20	; 0x13
    2a22:	3e 8b       	std	Y+22, r19	; 0x16
    2a24:	2d 8b       	std	Y+21, r18	; 0x15
    2a26:	18 8f       	std	Y+24, r17	; 0x18
    2a28:	0f 8b       	std	Y+23, r16	; 0x17
    2a2a:	fa 8e       	std	Y+26, r15	; 0x1a
    2a2c:	e9 8e       	std	Y+25, r14	; 0x19
    2a2e:	dc 8e       	std	Y+28, r13	; 0x1c
    2a30:	cb 8e       	std	Y+27, r12	; 0x1b
    2a32:	be 8e       	std	Y+30, r11	; 0x1e
    2a34:	ad 8e       	std	Y+29, r10	; 0x1d
    2a36:	8b 89       	ldd	r24, Y+19	; 0x13
    2a38:	9c 89       	ldd	r25, Y+20	; 0x14
    2a3a:	9a 83       	std	Y+2, r25	; 0x02
    2a3c:	89 83       	std	Y+1, r24	; 0x01
    2a3e:	2b 89       	ldd	r18, Y+19	; 0x13
    2a40:	3c 89       	ldd	r19, Y+20	; 0x14
    2a42:	8d 89       	ldd	r24, Y+21	; 0x15
    2a44:	9e 89       	ldd	r25, Y+22	; 0x16
    2a46:	82 0f       	add	r24, r18
    2a48:	93 1f       	adc	r25, r19
    2a4a:	9e 83       	std	Y+6, r25	; 0x06
    2a4c:	8d 83       	std	Y+5, r24	; 0x05
    2a4e:	8f 85       	ldd	r24, Y+15	; 0x0f
    2a50:	98 89       	ldd	r25, Y+16	; 0x10
    2a52:	9c 83       	std	Y+4, r25	; 0x04
    2a54:	8b 83       	std	Y+3, r24	; 0x03
    2a56:	89 8d       	ldd	r24, Y+25	; 0x19
    2a58:	9a 8d       	ldd	r25, Y+26	; 0x1a
    2a5a:	89 2b       	or	r24, r25
    2a5c:	09 f0       	breq	.+2      	; 0x2a60 <replace_substrings+0x6e>
    2a5e:	59 c0       	rjmp	.+178    	; 0x2b12 <replace_substrings+0x120>
    2a60:	89 89       	ldd	r24, Y+17	; 0x11
    2a62:	9a 89       	ldd	r25, Y+18	; 0x12
    2a64:	01 97       	sbiw	r24, 0x01	; 1
    2a66:	2d 89       	ldd	r18, Y+21	; 0x15
    2a68:	3e 89       	ldd	r19, Y+22	; 0x16
    2a6a:	28 17       	cp	r18, r24
    2a6c:	39 07       	cpc	r19, r25
    2a6e:	08 f4       	brcc	.+2      	; 0x2a72 <replace_substrings+0x80>
    2a70:	c9 01       	movw	r24, r18
    2a72:	98 87       	std	Y+8, r25	; 0x08
    2a74:	8f 83       	std	Y+7, r24	; 0x07
    2a76:	4f 81       	ldd	r20, Y+7	; 0x07
    2a78:	58 85       	ldd	r21, Y+8	; 0x08
    2a7a:	2b 89       	ldd	r18, Y+19	; 0x13
    2a7c:	3c 89       	ldd	r19, Y+20	; 0x14
    2a7e:	8f 85       	ldd	r24, Y+15	; 0x0f
    2a80:	98 89       	ldd	r25, Y+16	; 0x10
    2a82:	b9 01       	movw	r22, r18
    2a84:	0e 94 01 35 	call	0x6a02	; 0x6a02 <memcpy>
    2a88:	8f 81       	ldd	r24, Y+7	; 0x07
    2a8a:	98 85       	ldd	r25, Y+8	; 0x08
    2a8c:	2f 85       	ldd	r18, Y+15	; 0x0f
    2a8e:	38 89       	ldd	r19, Y+16	; 0x10
    2a90:	82 0f       	add	r24, r18
    2a92:	93 1f       	adc	r25, r19
    2a94:	fc 01       	movw	r30, r24
    2a96:	10 82       	st	Z, r1
    2a98:	3c c0       	rjmp	.+120    	; 0x2b12 <replace_substrings+0x120>
    2a9a:	29 85       	ldd	r18, Y+9	; 0x09
    2a9c:	3a 85       	ldd	r19, Y+10	; 0x0a
    2a9e:	89 81       	ldd	r24, Y+1	; 0x01
    2aa0:	9a 81       	ldd	r25, Y+2	; 0x02
    2aa2:	a9 01       	movw	r20, r18
    2aa4:	48 1b       	sub	r20, r24
    2aa6:	59 0b       	sbc	r21, r25
    2aa8:	ca 01       	movw	r24, r20
    2aaa:	9c 87       	std	Y+12, r25	; 0x0c
    2aac:	8b 87       	std	Y+11, r24	; 0x0b
    2aae:	4b 85       	ldd	r20, Y+11	; 0x0b
    2ab0:	5c 85       	ldd	r21, Y+12	; 0x0c
    2ab2:	29 81       	ldd	r18, Y+1	; 0x01
    2ab4:	3a 81       	ldd	r19, Y+2	; 0x02
    2ab6:	8b 81       	ldd	r24, Y+3	; 0x03
    2ab8:	9c 81       	ldd	r25, Y+4	; 0x04
    2aba:	b9 01       	movw	r22, r18
    2abc:	0e 94 01 35 	call	0x6a02	; 0x6a02 <memcpy>
    2ac0:	8b 85       	ldd	r24, Y+11	; 0x0b
    2ac2:	9c 85       	ldd	r25, Y+12	; 0x0c
    2ac4:	2b 81       	ldd	r18, Y+3	; 0x03
    2ac6:	3c 81       	ldd	r19, Y+4	; 0x04
    2ac8:	82 0f       	add	r24, r18
    2aca:	93 1f       	adc	r25, r19
    2acc:	9c 83       	std	Y+4, r25	; 0x04
    2ace:	8b 83       	std	Y+3, r24	; 0x03
    2ad0:	8b 85       	ldd	r24, Y+11	; 0x0b
    2ad2:	9c 85       	ldd	r25, Y+12	; 0x0c
    2ad4:	29 81       	ldd	r18, Y+1	; 0x01
    2ad6:	3a 81       	ldd	r19, Y+2	; 0x02
    2ad8:	82 0f       	add	r24, r18
    2ada:	93 1f       	adc	r25, r19
    2adc:	9a 83       	std	Y+2, r25	; 0x02
    2ade:	89 83       	std	Y+1, r24	; 0x01
    2ae0:	4d 8d       	ldd	r20, Y+29	; 0x1d
    2ae2:	5e 8d       	ldd	r21, Y+30	; 0x1e
    2ae4:	2b 8d       	ldd	r18, Y+27	; 0x1b
    2ae6:	3c 8d       	ldd	r19, Y+28	; 0x1c
    2ae8:	8b 81       	ldd	r24, Y+3	; 0x03
    2aea:	9c 81       	ldd	r25, Y+4	; 0x04
    2aec:	b9 01       	movw	r22, r18
    2aee:	0e 94 01 35 	call	0x6a02	; 0x6a02 <memcpy>
    2af2:	2b 81       	ldd	r18, Y+3	; 0x03
    2af4:	3c 81       	ldd	r19, Y+4	; 0x04
    2af6:	8d 8d       	ldd	r24, Y+29	; 0x1d
    2af8:	9e 8d       	ldd	r25, Y+30	; 0x1e
    2afa:	82 0f       	add	r24, r18
    2afc:	93 1f       	adc	r25, r19
    2afe:	9c 83       	std	Y+4, r25	; 0x04
    2b00:	8b 83       	std	Y+3, r24	; 0x03
    2b02:	29 81       	ldd	r18, Y+1	; 0x01
    2b04:	3a 81       	ldd	r19, Y+2	; 0x02
    2b06:	89 8d       	ldd	r24, Y+25	; 0x19
    2b08:	9a 8d       	ldd	r25, Y+26	; 0x1a
    2b0a:	82 0f       	add	r24, r18
    2b0c:	93 1f       	adc	r25, r19
    2b0e:	9a 83       	std	Y+2, r25	; 0x02
    2b10:	89 83       	std	Y+1, r24	; 0x01
    2b12:	2d 81       	ldd	r18, Y+5	; 0x05
    2b14:	3e 81       	ldd	r19, Y+6	; 0x06
    2b16:	89 81       	ldd	r24, Y+1	; 0x01
    2b18:	9a 81       	ldd	r25, Y+2	; 0x02
    2b1a:	f9 01       	movw	r30, r18
    2b1c:	e8 1b       	sub	r30, r24
    2b1e:	f9 0b       	sbc	r31, r25
    2b20:	cf 01       	movw	r24, r30
    2b22:	bc 01       	movw	r22, r24
    2b24:	29 8d       	ldd	r18, Y+25	; 0x19
    2b26:	3a 8d       	ldd	r19, Y+26	; 0x1a
    2b28:	4f 89       	ldd	r20, Y+23	; 0x17
    2b2a:	58 8d       	ldd	r21, Y+24	; 0x18
    2b2c:	89 81       	ldd	r24, Y+1	; 0x01
    2b2e:	9a 81       	ldd	r25, Y+2	; 0x02
    2b30:	0e 94 75 14 	call	0x28ea	; 0x28ea <igris_memmem>
    2b34:	9a 87       	std	Y+10, r25	; 0x0a
    2b36:	89 87       	std	Y+9, r24	; 0x09
    2b38:	89 85       	ldd	r24, Y+9	; 0x09
    2b3a:	9a 85       	ldd	r25, Y+10	; 0x0a
    2b3c:	89 2b       	or	r24, r25
    2b3e:	09 f0       	breq	.+2      	; 0x2b42 <replace_substrings+0x150>
    2b40:	ac cf       	rjmp	.-168    	; 0x2a9a <replace_substrings+0xa8>
    2b42:	2d 81       	ldd	r18, Y+5	; 0x05
    2b44:	3e 81       	ldd	r19, Y+6	; 0x06
    2b46:	89 81       	ldd	r24, Y+1	; 0x01
    2b48:	9a 81       	ldd	r25, Y+2	; 0x02
    2b4a:	a9 01       	movw	r20, r18
    2b4c:	48 1b       	sub	r20, r24
    2b4e:	59 0b       	sbc	r21, r25
    2b50:	ca 01       	movw	r24, r20
    2b52:	9e 87       	std	Y+14, r25	; 0x0e
    2b54:	8d 87       	std	Y+13, r24	; 0x0d
    2b56:	4d 85       	ldd	r20, Y+13	; 0x0d
    2b58:	5e 85       	ldd	r21, Y+14	; 0x0e
    2b5a:	29 81       	ldd	r18, Y+1	; 0x01
    2b5c:	3a 81       	ldd	r19, Y+2	; 0x02
    2b5e:	8b 81       	ldd	r24, Y+3	; 0x03
    2b60:	9c 81       	ldd	r25, Y+4	; 0x04
    2b62:	b9 01       	movw	r22, r18
    2b64:	0e 94 01 35 	call	0x6a02	; 0x6a02 <memcpy>
    2b68:	8d 85       	ldd	r24, Y+13	; 0x0d
    2b6a:	9e 85       	ldd	r25, Y+14	; 0x0e
    2b6c:	2b 81       	ldd	r18, Y+3	; 0x03
    2b6e:	3c 81       	ldd	r19, Y+4	; 0x04
    2b70:	82 0f       	add	r24, r18
    2b72:	93 1f       	adc	r25, r19
    2b74:	fc 01       	movw	r30, r24
    2b76:	10 82       	st	Z, r1
    2b78:	00 00       	nop
    2b7a:	6e 96       	adiw	r28, 0x1e	; 30
    2b7c:	0f b6       	in	r0, 0x3f	; 63
    2b7e:	f8 94       	cli
    2b80:	de bf       	out	0x3e, r29	; 62
    2b82:	0f be       	out	0x3f, r0	; 63
    2b84:	cd bf       	out	0x3d, r28	; 61
    2b86:	df 91       	pop	r29
    2b88:	cf 91       	pop	r28
    2b8a:	1f 91       	pop	r17
    2b8c:	0f 91       	pop	r16
    2b8e:	ff 90       	pop	r15
    2b90:	ef 90       	pop	r14
    2b92:	df 90       	pop	r13
    2b94:	cf 90       	pop	r12
    2b96:	bf 90       	pop	r11
    2b98:	af 90       	pop	r10
    2b9a:	08 95       	ret

00002b9c <reader_memcpy>:
    2b9c:	cf 93       	push	r28
    2b9e:	df 93       	push	r29
    2ba0:	00 d0       	rcall	.+0      	; 0x2ba2 <reader_memcpy+0x6>
    2ba2:	00 d0       	rcall	.+0      	; 0x2ba4 <reader_memcpy+0x8>
    2ba4:	00 d0       	rcall	.+0      	; 0x2ba6 <reader_memcpy+0xa>
    2ba6:	cd b7       	in	r28, 0x3d	; 61
    2ba8:	de b7       	in	r29, 0x3e	; 62
    2baa:	9a 83       	std	Y+2, r25	; 0x02
    2bac:	89 83       	std	Y+1, r24	; 0x01
    2bae:	7c 83       	std	Y+4, r23	; 0x04
    2bb0:	6b 83       	std	Y+3, r22	; 0x03
    2bb2:	5e 83       	std	Y+6, r21	; 0x06
    2bb4:	4d 83       	std	Y+5, r20	; 0x05
    2bb6:	89 81       	ldd	r24, Y+1	; 0x01
    2bb8:	9a 81       	ldd	r25, Y+2	; 0x02
    2bba:	fc 01       	movw	r30, r24
    2bbc:	20 81       	ld	r18, Z
    2bbe:	31 81       	ldd	r19, Z+1	; 0x01
    2bc0:	4d 81       	ldd	r20, Y+5	; 0x05
    2bc2:	5e 81       	ldd	r21, Y+6	; 0x06
    2bc4:	8b 81       	ldd	r24, Y+3	; 0x03
    2bc6:	9c 81       	ldd	r25, Y+4	; 0x04
    2bc8:	b9 01       	movw	r22, r18
    2bca:	0e 94 01 35 	call	0x6a02	; 0x6a02 <memcpy>
    2bce:	89 81       	ldd	r24, Y+1	; 0x01
    2bd0:	9a 81       	ldd	r25, Y+2	; 0x02
    2bd2:	fc 01       	movw	r30, r24
    2bd4:	20 81       	ld	r18, Z
    2bd6:	31 81       	ldd	r19, Z+1	; 0x01
    2bd8:	8d 81       	ldd	r24, Y+5	; 0x05
    2bda:	9e 81       	ldd	r25, Y+6	; 0x06
    2bdc:	28 0f       	add	r18, r24
    2bde:	39 1f       	adc	r19, r25
    2be0:	89 81       	ldd	r24, Y+1	; 0x01
    2be2:	9a 81       	ldd	r25, Y+2	; 0x02
    2be4:	fc 01       	movw	r30, r24
    2be6:	31 83       	std	Z+1, r19	; 0x01
    2be8:	20 83       	st	Z, r18
    2bea:	00 00       	nop
    2bec:	26 96       	adiw	r28, 0x06	; 6
    2bee:	0f b6       	in	r0, 0x3f	; 63
    2bf0:	f8 94       	cli
    2bf2:	de bf       	out	0x3e, r29	; 62
    2bf4:	0f be       	out	0x3f, r0	; 63
    2bf6:	cd bf       	out	0x3d, r28	; 61
    2bf8:	df 91       	pop	r29
    2bfa:	cf 91       	pop	r28
    2bfc:	08 95       	ret

00002bfe <reader_skip>:
    2bfe:	cf 93       	push	r28
    2c00:	df 93       	push	r29
    2c02:	00 d0       	rcall	.+0      	; 0x2c04 <reader_skip+0x6>
    2c04:	00 d0       	rcall	.+0      	; 0x2c06 <reader_skip+0x8>
    2c06:	cd b7       	in	r28, 0x3d	; 61
    2c08:	de b7       	in	r29, 0x3e	; 62
    2c0a:	9a 83       	std	Y+2, r25	; 0x02
    2c0c:	89 83       	std	Y+1, r24	; 0x01
    2c0e:	7c 83       	std	Y+4, r23	; 0x04
    2c10:	6b 83       	std	Y+3, r22	; 0x03
    2c12:	89 81       	ldd	r24, Y+1	; 0x01
    2c14:	9a 81       	ldd	r25, Y+2	; 0x02
    2c16:	fc 01       	movw	r30, r24
    2c18:	20 81       	ld	r18, Z
    2c1a:	31 81       	ldd	r19, Z+1	; 0x01
    2c1c:	8b 81       	ldd	r24, Y+3	; 0x03
    2c1e:	9c 81       	ldd	r25, Y+4	; 0x04
    2c20:	28 0f       	add	r18, r24
    2c22:	39 1f       	adc	r19, r25
    2c24:	89 81       	ldd	r24, Y+1	; 0x01
    2c26:	9a 81       	ldd	r25, Y+2	; 0x02
    2c28:	fc 01       	movw	r30, r24
    2c2a:	31 83       	std	Z+1, r19	; 0x01
    2c2c:	20 83       	st	Z, r18
    2c2e:	00 00       	nop
    2c30:	0f 90       	pop	r0
    2c32:	0f 90       	pop	r0
    2c34:	0f 90       	pop	r0
    2c36:	0f 90       	pop	r0
    2c38:	df 91       	pop	r29
    2c3a:	cf 91       	pop	r28
    2c3c:	08 95       	ret

00002c3e <reader_skip_while>:
    2c3e:	cf 93       	push	r28
    2c40:	df 93       	push	r29
    2c42:	00 d0       	rcall	.+0      	; 0x2c44 <reader_skip_while+0x6>
    2c44:	00 d0       	rcall	.+0      	; 0x2c46 <reader_skip_while+0x8>
    2c46:	1f 92       	push	r1
    2c48:	cd b7       	in	r28, 0x3d	; 61
    2c4a:	de b7       	in	r29, 0x3e	; 62
    2c4c:	9a 83       	std	Y+2, r25	; 0x02
    2c4e:	89 83       	std	Y+1, r24	; 0x01
    2c50:	6b 83       	std	Y+3, r22	; 0x03
    2c52:	5d 83       	std	Y+5, r21	; 0x05
    2c54:	4c 83       	std	Y+4, r20	; 0x04
    2c56:	0d c0       	rjmp	.+26     	; 0x2c72 <reader_skip_while+0x34>
    2c58:	89 81       	ldd	r24, Y+1	; 0x01
    2c5a:	9a 81       	ldd	r25, Y+2	; 0x02
    2c5c:	fc 01       	movw	r30, r24
    2c5e:	80 81       	ld	r24, Z
    2c60:	91 81       	ldd	r25, Z+1	; 0x01
    2c62:	9c 01       	movw	r18, r24
    2c64:	2f 5f       	subi	r18, 0xFF	; 255
    2c66:	3f 4f       	sbci	r19, 0xFF	; 255
    2c68:	89 81       	ldd	r24, Y+1	; 0x01
    2c6a:	9a 81       	ldd	r25, Y+2	; 0x02
    2c6c:	fc 01       	movw	r30, r24
    2c6e:	31 83       	std	Z+1, r19	; 0x01
    2c70:	20 83       	st	Z, r18
    2c72:	89 81       	ldd	r24, Y+1	; 0x01
    2c74:	9a 81       	ldd	r25, Y+2	; 0x02
    2c76:	fc 01       	movw	r30, r24
    2c78:	20 81       	ld	r18, Z
    2c7a:	31 81       	ldd	r19, Z+1	; 0x01
    2c7c:	8c 81       	ldd	r24, Y+4	; 0x04
    2c7e:	9d 81       	ldd	r25, Y+5	; 0x05
    2c80:	28 17       	cp	r18, r24
    2c82:	39 07       	cpc	r19, r25
    2c84:	51 f0       	breq	.+20     	; 0x2c9a <reader_skip_while+0x5c>
    2c86:	89 81       	ldd	r24, Y+1	; 0x01
    2c88:	9a 81       	ldd	r25, Y+2	; 0x02
    2c8a:	fc 01       	movw	r30, r24
    2c8c:	80 81       	ld	r24, Z
    2c8e:	91 81       	ldd	r25, Z+1	; 0x01
    2c90:	fc 01       	movw	r30, r24
    2c92:	90 81       	ld	r25, Z
    2c94:	8b 81       	ldd	r24, Y+3	; 0x03
    2c96:	98 17       	cp	r25, r24
    2c98:	f9 f2       	breq	.-66     	; 0x2c58 <reader_skip_while+0x1a>
    2c9a:	00 00       	nop
    2c9c:	0f 90       	pop	r0
    2c9e:	0f 90       	pop	r0
    2ca0:	0f 90       	pop	r0
    2ca2:	0f 90       	pop	r0
    2ca4:	0f 90       	pop	r0
    2ca6:	df 91       	pop	r29
    2ca8:	cf 91       	pop	r28
    2caa:	08 95       	ret

00002cac <debug_strlen>:
    2cac:	cf 93       	push	r28
    2cae:	df 93       	push	r29
    2cb0:	00 d0       	rcall	.+0      	; 0x2cb2 <debug_strlen+0x6>
    2cb2:	00 d0       	rcall	.+0      	; 0x2cb4 <debug_strlen+0x8>
    2cb4:	cd b7       	in	r28, 0x3d	; 61
    2cb6:	de b7       	in	r29, 0x3e	; 62
    2cb8:	9c 83       	std	Y+4, r25	; 0x04
    2cba:	8b 83       	std	Y+3, r24	; 0x03
    2cbc:	1a 82       	std	Y+2, r1	; 0x02
    2cbe:	19 82       	std	Y+1, r1	; 0x01
    2cc0:	05 c0       	rjmp	.+10     	; 0x2ccc <debug_strlen+0x20>
    2cc2:	89 81       	ldd	r24, Y+1	; 0x01
    2cc4:	9a 81       	ldd	r25, Y+2	; 0x02
    2cc6:	01 96       	adiw	r24, 0x01	; 1
    2cc8:	9a 83       	std	Y+2, r25	; 0x02
    2cca:	89 83       	std	Y+1, r24	; 0x01
    2ccc:	89 81       	ldd	r24, Y+1	; 0x01
    2cce:	9a 81       	ldd	r25, Y+2	; 0x02
    2cd0:	2b 81       	ldd	r18, Y+3	; 0x03
    2cd2:	3c 81       	ldd	r19, Y+4	; 0x04
    2cd4:	82 0f       	add	r24, r18
    2cd6:	93 1f       	adc	r25, r19
    2cd8:	fc 01       	movw	r30, r24
    2cda:	80 81       	ld	r24, Z
    2cdc:	88 23       	and	r24, r24
    2cde:	89 f7       	brne	.-30     	; 0x2cc2 <debug_strlen+0x16>
    2ce0:	89 81       	ldd	r24, Y+1	; 0x01
    2ce2:	9a 81       	ldd	r25, Y+2	; 0x02
    2ce4:	0f 90       	pop	r0
    2ce6:	0f 90       	pop	r0
    2ce8:	0f 90       	pop	r0
    2cea:	0f 90       	pop	r0
    2cec:	df 91       	pop	r29
    2cee:	cf 91       	pop	r28
    2cf0:	08 95       	ret

00002cf2 <debug_print_newline>:
    2cf2:	cf 93       	push	r28
    2cf4:	df 93       	push	r29
    2cf6:	cd b7       	in	r28, 0x3d	; 61
    2cf8:	de b7       	in	r29, 0x3e	; 62
    2cfa:	8d e0       	ldi	r24, 0x0D	; 13
    2cfc:	0e 94 6c 01 	call	0x2d8	; 0x2d8 <debug_putchar>
    2d00:	8a e0       	ldi	r24, 0x0A	; 10
    2d02:	0e 94 6c 01 	call	0x2d8	; 0x2d8 <debug_putchar>
    2d06:	00 00       	nop
    2d08:	df 91       	pop	r29
    2d0a:	cf 91       	pop	r28
    2d0c:	08 95       	ret

00002d0e <debug_printbin_uint4>:
    2d0e:	cf 93       	push	r28
    2d10:	df 93       	push	r29
    2d12:	1f 92       	push	r1
    2d14:	cd b7       	in	r28, 0x3d	; 61
    2d16:	de b7       	in	r29, 0x3e	; 62
    2d18:	89 83       	std	Y+1, r24	; 0x01
    2d1a:	89 81       	ldd	r24, Y+1	; 0x01
    2d1c:	88 2f       	mov	r24, r24
    2d1e:	90 e0       	ldi	r25, 0x00	; 0
    2d20:	88 70       	andi	r24, 0x08	; 8
    2d22:	99 27       	eor	r25, r25
    2d24:	89 2b       	or	r24, r25
    2d26:	11 f0       	breq	.+4      	; 0x2d2c <debug_printbin_uint4+0x1e>
    2d28:	81 e3       	ldi	r24, 0x31	; 49
    2d2a:	01 c0       	rjmp	.+2      	; 0x2d2e <debug_printbin_uint4+0x20>
    2d2c:	80 e3       	ldi	r24, 0x30	; 48
    2d2e:	0e 94 6c 01 	call	0x2d8	; 0x2d8 <debug_putchar>
    2d32:	89 81       	ldd	r24, Y+1	; 0x01
    2d34:	88 2f       	mov	r24, r24
    2d36:	90 e0       	ldi	r25, 0x00	; 0
    2d38:	84 70       	andi	r24, 0x04	; 4
    2d3a:	99 27       	eor	r25, r25
    2d3c:	89 2b       	or	r24, r25
    2d3e:	11 f0       	breq	.+4      	; 0x2d44 <debug_printbin_uint4+0x36>
    2d40:	81 e3       	ldi	r24, 0x31	; 49
    2d42:	01 c0       	rjmp	.+2      	; 0x2d46 <debug_printbin_uint4+0x38>
    2d44:	80 e3       	ldi	r24, 0x30	; 48
    2d46:	0e 94 6c 01 	call	0x2d8	; 0x2d8 <debug_putchar>
    2d4a:	89 81       	ldd	r24, Y+1	; 0x01
    2d4c:	88 2f       	mov	r24, r24
    2d4e:	90 e0       	ldi	r25, 0x00	; 0
    2d50:	82 70       	andi	r24, 0x02	; 2
    2d52:	99 27       	eor	r25, r25
    2d54:	89 2b       	or	r24, r25
    2d56:	11 f0       	breq	.+4      	; 0x2d5c <debug_printbin_uint4+0x4e>
    2d58:	81 e3       	ldi	r24, 0x31	; 49
    2d5a:	01 c0       	rjmp	.+2      	; 0x2d5e <debug_printbin_uint4+0x50>
    2d5c:	80 e3       	ldi	r24, 0x30	; 48
    2d5e:	0e 94 6c 01 	call	0x2d8	; 0x2d8 <debug_putchar>
    2d62:	89 81       	ldd	r24, Y+1	; 0x01
    2d64:	88 2f       	mov	r24, r24
    2d66:	90 e0       	ldi	r25, 0x00	; 0
    2d68:	81 70       	andi	r24, 0x01	; 1
    2d6a:	99 27       	eor	r25, r25
    2d6c:	89 2b       	or	r24, r25
    2d6e:	11 f0       	breq	.+4      	; 0x2d74 <debug_printbin_uint4+0x66>
    2d70:	81 e3       	ldi	r24, 0x31	; 49
    2d72:	01 c0       	rjmp	.+2      	; 0x2d76 <debug_printbin_uint4+0x68>
    2d74:	80 e3       	ldi	r24, 0x30	; 48
    2d76:	0e 94 6c 01 	call	0x2d8	; 0x2d8 <debug_putchar>
    2d7a:	00 00       	nop
    2d7c:	0f 90       	pop	r0
    2d7e:	df 91       	pop	r29
    2d80:	cf 91       	pop	r28
    2d82:	08 95       	ret

00002d84 <debug_printbin_uint8>:
    2d84:	cf 93       	push	r28
    2d86:	df 93       	push	r29
    2d88:	1f 92       	push	r1
    2d8a:	cd b7       	in	r28, 0x3d	; 61
    2d8c:	de b7       	in	r29, 0x3e	; 62
    2d8e:	89 83       	std	Y+1, r24	; 0x01
    2d90:	89 81       	ldd	r24, Y+1	; 0x01
    2d92:	88 23       	and	r24, r24
    2d94:	14 f4       	brge	.+4      	; 0x2d9a <debug_printbin_uint8+0x16>
    2d96:	81 e3       	ldi	r24, 0x31	; 49
    2d98:	01 c0       	rjmp	.+2      	; 0x2d9c <debug_printbin_uint8+0x18>
    2d9a:	80 e3       	ldi	r24, 0x30	; 48
    2d9c:	0e 94 6c 01 	call	0x2d8	; 0x2d8 <debug_putchar>
    2da0:	89 81       	ldd	r24, Y+1	; 0x01
    2da2:	88 2f       	mov	r24, r24
    2da4:	90 e0       	ldi	r25, 0x00	; 0
    2da6:	80 74       	andi	r24, 0x40	; 64
    2da8:	99 27       	eor	r25, r25
    2daa:	89 2b       	or	r24, r25
    2dac:	11 f0       	breq	.+4      	; 0x2db2 <debug_printbin_uint8+0x2e>
    2dae:	81 e3       	ldi	r24, 0x31	; 49
    2db0:	01 c0       	rjmp	.+2      	; 0x2db4 <debug_printbin_uint8+0x30>
    2db2:	80 e3       	ldi	r24, 0x30	; 48
    2db4:	0e 94 6c 01 	call	0x2d8	; 0x2d8 <debug_putchar>
    2db8:	89 81       	ldd	r24, Y+1	; 0x01
    2dba:	88 2f       	mov	r24, r24
    2dbc:	90 e0       	ldi	r25, 0x00	; 0
    2dbe:	80 72       	andi	r24, 0x20	; 32
    2dc0:	99 27       	eor	r25, r25
    2dc2:	89 2b       	or	r24, r25
    2dc4:	11 f0       	breq	.+4      	; 0x2dca <debug_printbin_uint8+0x46>
    2dc6:	81 e3       	ldi	r24, 0x31	; 49
    2dc8:	01 c0       	rjmp	.+2      	; 0x2dcc <debug_printbin_uint8+0x48>
    2dca:	80 e3       	ldi	r24, 0x30	; 48
    2dcc:	0e 94 6c 01 	call	0x2d8	; 0x2d8 <debug_putchar>
    2dd0:	89 81       	ldd	r24, Y+1	; 0x01
    2dd2:	88 2f       	mov	r24, r24
    2dd4:	90 e0       	ldi	r25, 0x00	; 0
    2dd6:	80 71       	andi	r24, 0x10	; 16
    2dd8:	99 27       	eor	r25, r25
    2dda:	89 2b       	or	r24, r25
    2ddc:	11 f0       	breq	.+4      	; 0x2de2 <debug_printbin_uint8+0x5e>
    2dde:	81 e3       	ldi	r24, 0x31	; 49
    2de0:	01 c0       	rjmp	.+2      	; 0x2de4 <debug_printbin_uint8+0x60>
    2de2:	80 e3       	ldi	r24, 0x30	; 48
    2de4:	0e 94 6c 01 	call	0x2d8	; 0x2d8 <debug_putchar>
    2de8:	89 81       	ldd	r24, Y+1	; 0x01
    2dea:	88 2f       	mov	r24, r24
    2dec:	90 e0       	ldi	r25, 0x00	; 0
    2dee:	88 70       	andi	r24, 0x08	; 8
    2df0:	99 27       	eor	r25, r25
    2df2:	89 2b       	or	r24, r25
    2df4:	11 f0       	breq	.+4      	; 0x2dfa <debug_printbin_uint8+0x76>
    2df6:	81 e3       	ldi	r24, 0x31	; 49
    2df8:	01 c0       	rjmp	.+2      	; 0x2dfc <debug_printbin_uint8+0x78>
    2dfa:	80 e3       	ldi	r24, 0x30	; 48
    2dfc:	0e 94 6c 01 	call	0x2d8	; 0x2d8 <debug_putchar>
    2e00:	89 81       	ldd	r24, Y+1	; 0x01
    2e02:	88 2f       	mov	r24, r24
    2e04:	90 e0       	ldi	r25, 0x00	; 0
    2e06:	84 70       	andi	r24, 0x04	; 4
    2e08:	99 27       	eor	r25, r25
    2e0a:	89 2b       	or	r24, r25
    2e0c:	11 f0       	breq	.+4      	; 0x2e12 <debug_printbin_uint8+0x8e>
    2e0e:	81 e3       	ldi	r24, 0x31	; 49
    2e10:	01 c0       	rjmp	.+2      	; 0x2e14 <debug_printbin_uint8+0x90>
    2e12:	80 e3       	ldi	r24, 0x30	; 48
    2e14:	0e 94 6c 01 	call	0x2d8	; 0x2d8 <debug_putchar>
    2e18:	89 81       	ldd	r24, Y+1	; 0x01
    2e1a:	88 2f       	mov	r24, r24
    2e1c:	90 e0       	ldi	r25, 0x00	; 0
    2e1e:	82 70       	andi	r24, 0x02	; 2
    2e20:	99 27       	eor	r25, r25
    2e22:	89 2b       	or	r24, r25
    2e24:	11 f0       	breq	.+4      	; 0x2e2a <debug_printbin_uint8+0xa6>
    2e26:	81 e3       	ldi	r24, 0x31	; 49
    2e28:	01 c0       	rjmp	.+2      	; 0x2e2c <debug_printbin_uint8+0xa8>
    2e2a:	80 e3       	ldi	r24, 0x30	; 48
    2e2c:	0e 94 6c 01 	call	0x2d8	; 0x2d8 <debug_putchar>
    2e30:	89 81       	ldd	r24, Y+1	; 0x01
    2e32:	88 2f       	mov	r24, r24
    2e34:	90 e0       	ldi	r25, 0x00	; 0
    2e36:	81 70       	andi	r24, 0x01	; 1
    2e38:	99 27       	eor	r25, r25
    2e3a:	89 2b       	or	r24, r25
    2e3c:	11 f0       	breq	.+4      	; 0x2e42 <debug_printbin_uint8+0xbe>
    2e3e:	81 e3       	ldi	r24, 0x31	; 49
    2e40:	01 c0       	rjmp	.+2      	; 0x2e44 <debug_printbin_uint8+0xc0>
    2e42:	80 e3       	ldi	r24, 0x30	; 48
    2e44:	0e 94 6c 01 	call	0x2d8	; 0x2d8 <debug_putchar>
    2e48:	00 00       	nop
    2e4a:	0f 90       	pop	r0
    2e4c:	df 91       	pop	r29
    2e4e:	cf 91       	pop	r28
    2e50:	08 95       	ret

00002e52 <debug_printbin_uint16>:
    2e52:	cf 93       	push	r28
    2e54:	df 93       	push	r29
    2e56:	00 d0       	rcall	.+0      	; 0x2e58 <debug_printbin_uint16+0x6>
    2e58:	00 d0       	rcall	.+0      	; 0x2e5a <debug_printbin_uint16+0x8>
    2e5a:	cd b7       	in	r28, 0x3d	; 61
    2e5c:	de b7       	in	r29, 0x3e	; 62
    2e5e:	9c 83       	std	Y+4, r25	; 0x04
    2e60:	8b 83       	std	Y+3, r24	; 0x03
    2e62:	ce 01       	movw	r24, r28
    2e64:	03 96       	adiw	r24, 0x03	; 3
    2e66:	9a 83       	std	Y+2, r25	; 0x02
    2e68:	89 83       	std	Y+1, r24	; 0x01
    2e6a:	89 81       	ldd	r24, Y+1	; 0x01
    2e6c:	9a 81       	ldd	r25, Y+2	; 0x02
    2e6e:	01 96       	adiw	r24, 0x01	; 1
    2e70:	fc 01       	movw	r30, r24
    2e72:	80 81       	ld	r24, Z
    2e74:	0e 94 c2 16 	call	0x2d84	; 0x2d84 <debug_printbin_uint8>
    2e78:	89 81       	ldd	r24, Y+1	; 0x01
    2e7a:	9a 81       	ldd	r25, Y+2	; 0x02
    2e7c:	fc 01       	movw	r30, r24
    2e7e:	80 81       	ld	r24, Z
    2e80:	0e 94 c2 16 	call	0x2d84	; 0x2d84 <debug_printbin_uint8>
    2e84:	00 00       	nop
    2e86:	0f 90       	pop	r0
    2e88:	0f 90       	pop	r0
    2e8a:	0f 90       	pop	r0
    2e8c:	0f 90       	pop	r0
    2e8e:	df 91       	pop	r29
    2e90:	cf 91       	pop	r28
    2e92:	08 95       	ret

00002e94 <debug_printbin_uint32>:
    2e94:	cf 93       	push	r28
    2e96:	df 93       	push	r29
    2e98:	00 d0       	rcall	.+0      	; 0x2e9a <debug_printbin_uint32+0x6>
    2e9a:	00 d0       	rcall	.+0      	; 0x2e9c <debug_printbin_uint32+0x8>
    2e9c:	00 d0       	rcall	.+0      	; 0x2e9e <debug_printbin_uint32+0xa>
    2e9e:	cd b7       	in	r28, 0x3d	; 61
    2ea0:	de b7       	in	r29, 0x3e	; 62
    2ea2:	6b 83       	std	Y+3, r22	; 0x03
    2ea4:	7c 83       	std	Y+4, r23	; 0x04
    2ea6:	8d 83       	std	Y+5, r24	; 0x05
    2ea8:	9e 83       	std	Y+6, r25	; 0x06
    2eaa:	ce 01       	movw	r24, r28
    2eac:	03 96       	adiw	r24, 0x03	; 3
    2eae:	9a 83       	std	Y+2, r25	; 0x02
    2eb0:	89 83       	std	Y+1, r24	; 0x01
    2eb2:	89 81       	ldd	r24, Y+1	; 0x01
    2eb4:	9a 81       	ldd	r25, Y+2	; 0x02
    2eb6:	03 96       	adiw	r24, 0x03	; 3
    2eb8:	fc 01       	movw	r30, r24
    2eba:	80 81       	ld	r24, Z
    2ebc:	0e 94 c2 16 	call	0x2d84	; 0x2d84 <debug_printbin_uint8>
    2ec0:	89 81       	ldd	r24, Y+1	; 0x01
    2ec2:	9a 81       	ldd	r25, Y+2	; 0x02
    2ec4:	02 96       	adiw	r24, 0x02	; 2
    2ec6:	fc 01       	movw	r30, r24
    2ec8:	80 81       	ld	r24, Z
    2eca:	0e 94 c2 16 	call	0x2d84	; 0x2d84 <debug_printbin_uint8>
    2ece:	89 81       	ldd	r24, Y+1	; 0x01
    2ed0:	9a 81       	ldd	r25, Y+2	; 0x02
    2ed2:	01 96       	adiw	r24, 0x01	; 1
    2ed4:	fc 01       	movw	r30, r24
    2ed6:	80 81       	ld	r24, Z
    2ed8:	0e 94 c2 16 	call	0x2d84	; 0x2d84 <debug_printbin_uint8>
    2edc:	89 81       	ldd	r24, Y+1	; 0x01
    2ede:	9a 81       	ldd	r25, Y+2	; 0x02
    2ee0:	fc 01       	movw	r30, r24
    2ee2:	80 81       	ld	r24, Z
    2ee4:	0e 94 c2 16 	call	0x2d84	; 0x2d84 <debug_printbin_uint8>
    2ee8:	00 00       	nop
    2eea:	26 96       	adiw	r28, 0x06	; 6
    2eec:	0f b6       	in	r0, 0x3f	; 63
    2eee:	f8 94       	cli
    2ef0:	de bf       	out	0x3e, r29	; 62
    2ef2:	0f be       	out	0x3f, r0	; 63
    2ef4:	cd bf       	out	0x3d, r28	; 61
    2ef6:	df 91       	pop	r29
    2ef8:	cf 91       	pop	r28
    2efa:	08 95       	ret

00002efc <debug_printbin_uint64>:
    2efc:	cf 93       	push	r28
    2efe:	df 93       	push	r29
    2f00:	cd b7       	in	r28, 0x3d	; 61
    2f02:	de b7       	in	r29, 0x3e	; 62
    2f04:	2a 97       	sbiw	r28, 0x0a	; 10
    2f06:	0f b6       	in	r0, 0x3f	; 63
    2f08:	f8 94       	cli
    2f0a:	de bf       	out	0x3e, r29	; 62
    2f0c:	0f be       	out	0x3f, r0	; 63
    2f0e:	cd bf       	out	0x3d, r28	; 61
    2f10:	2b 83       	std	Y+3, r18	; 0x03
    2f12:	3c 83       	std	Y+4, r19	; 0x04
    2f14:	4d 83       	std	Y+5, r20	; 0x05
    2f16:	5e 83       	std	Y+6, r21	; 0x06
    2f18:	6f 83       	std	Y+7, r22	; 0x07
    2f1a:	78 87       	std	Y+8, r23	; 0x08
    2f1c:	89 87       	std	Y+9, r24	; 0x09
    2f1e:	9a 87       	std	Y+10, r25	; 0x0a
    2f20:	ce 01       	movw	r24, r28
    2f22:	03 96       	adiw	r24, 0x03	; 3
    2f24:	9a 83       	std	Y+2, r25	; 0x02
    2f26:	89 83       	std	Y+1, r24	; 0x01
    2f28:	89 81       	ldd	r24, Y+1	; 0x01
    2f2a:	9a 81       	ldd	r25, Y+2	; 0x02
    2f2c:	07 96       	adiw	r24, 0x07	; 7
    2f2e:	fc 01       	movw	r30, r24
    2f30:	80 81       	ld	r24, Z
    2f32:	0e 94 c2 16 	call	0x2d84	; 0x2d84 <debug_printbin_uint8>
    2f36:	89 81       	ldd	r24, Y+1	; 0x01
    2f38:	9a 81       	ldd	r25, Y+2	; 0x02
    2f3a:	06 96       	adiw	r24, 0x06	; 6
    2f3c:	fc 01       	movw	r30, r24
    2f3e:	80 81       	ld	r24, Z
    2f40:	0e 94 c2 16 	call	0x2d84	; 0x2d84 <debug_printbin_uint8>
    2f44:	89 81       	ldd	r24, Y+1	; 0x01
    2f46:	9a 81       	ldd	r25, Y+2	; 0x02
    2f48:	05 96       	adiw	r24, 0x05	; 5
    2f4a:	fc 01       	movw	r30, r24
    2f4c:	80 81       	ld	r24, Z
    2f4e:	0e 94 c2 16 	call	0x2d84	; 0x2d84 <debug_printbin_uint8>
    2f52:	89 81       	ldd	r24, Y+1	; 0x01
    2f54:	9a 81       	ldd	r25, Y+2	; 0x02
    2f56:	04 96       	adiw	r24, 0x04	; 4
    2f58:	fc 01       	movw	r30, r24
    2f5a:	80 81       	ld	r24, Z
    2f5c:	0e 94 c2 16 	call	0x2d84	; 0x2d84 <debug_printbin_uint8>
    2f60:	89 81       	ldd	r24, Y+1	; 0x01
    2f62:	9a 81       	ldd	r25, Y+2	; 0x02
    2f64:	03 96       	adiw	r24, 0x03	; 3
    2f66:	fc 01       	movw	r30, r24
    2f68:	80 81       	ld	r24, Z
    2f6a:	0e 94 c2 16 	call	0x2d84	; 0x2d84 <debug_printbin_uint8>
    2f6e:	89 81       	ldd	r24, Y+1	; 0x01
    2f70:	9a 81       	ldd	r25, Y+2	; 0x02
    2f72:	02 96       	adiw	r24, 0x02	; 2
    2f74:	fc 01       	movw	r30, r24
    2f76:	80 81       	ld	r24, Z
    2f78:	0e 94 c2 16 	call	0x2d84	; 0x2d84 <debug_printbin_uint8>
    2f7c:	89 81       	ldd	r24, Y+1	; 0x01
    2f7e:	9a 81       	ldd	r25, Y+2	; 0x02
    2f80:	01 96       	adiw	r24, 0x01	; 1
    2f82:	fc 01       	movw	r30, r24
    2f84:	80 81       	ld	r24, Z
    2f86:	0e 94 c2 16 	call	0x2d84	; 0x2d84 <debug_printbin_uint8>
    2f8a:	89 81       	ldd	r24, Y+1	; 0x01
    2f8c:	9a 81       	ldd	r25, Y+2	; 0x02
    2f8e:	fc 01       	movw	r30, r24
    2f90:	80 81       	ld	r24, Z
    2f92:	0e 94 c2 16 	call	0x2d84	; 0x2d84 <debug_printbin_uint8>
    2f96:	00 00       	nop
    2f98:	2a 96       	adiw	r28, 0x0a	; 10
    2f9a:	0f b6       	in	r0, 0x3f	; 63
    2f9c:	f8 94       	cli
    2f9e:	de bf       	out	0x3e, r29	; 62
    2fa0:	0f be       	out	0x3f, r0	; 63
    2fa2:	cd bf       	out	0x3d, r28	; 61
    2fa4:	df 91       	pop	r29
    2fa6:	cf 91       	pop	r28
    2fa8:	08 95       	ret

00002faa <debug_printdec_uint64>:
    2faa:	2f 92       	push	r2
    2fac:	3f 92       	push	r3
    2fae:	4f 92       	push	r4
    2fb0:	5f 92       	push	r5
    2fb2:	6f 92       	push	r6
    2fb4:	7f 92       	push	r7
    2fb6:	8f 92       	push	r8
    2fb8:	9f 92       	push	r9
    2fba:	af 92       	push	r10
    2fbc:	bf 92       	push	r11
    2fbe:	cf 92       	push	r12
    2fc0:	df 92       	push	r13
    2fc2:	ef 92       	push	r14
    2fc4:	ff 92       	push	r15
    2fc6:	0f 93       	push	r16
    2fc8:	1f 93       	push	r17
    2fca:	cf 93       	push	r28
    2fcc:	df 93       	push	r29
    2fce:	cd b7       	in	r28, 0x3d	; 61
    2fd0:	de b7       	in	r29, 0x3e	; 62
    2fd2:	a4 97       	sbiw	r28, 0x24	; 36
    2fd4:	0f b6       	in	r0, 0x3f	; 63
    2fd6:	f8 94       	cli
    2fd8:	de bf       	out	0x3e, r29	; 62
    2fda:	0f be       	out	0x3f, r0	; 63
    2fdc:	cd bf       	out	0x3d, r28	; 61
    2fde:	2d 8f       	std	Y+29, r18	; 0x1d
    2fe0:	3e 8f       	std	Y+30, r19	; 0x1e
    2fe2:	4f 8f       	std	Y+31, r20	; 0x1f
    2fe4:	58 a3       	std	Y+32, r21	; 0x20
    2fe6:	69 a3       	std	Y+33, r22	; 0x21
    2fe8:	7a a3       	std	Y+34, r23	; 0x22
    2fea:	8b a3       	std	Y+35, r24	; 0x23
    2fec:	9c a3       	std	Y+36, r25	; 0x24
    2fee:	ce 01       	movw	r24, r28
    2ff0:	05 96       	adiw	r24, 0x05	; 5
    2ff2:	48 96       	adiw	r24, 0x18	; 24
    2ff4:	9c 83       	std	Y+4, r25	; 0x04
    2ff6:	8b 83       	std	Y+3, r24	; 0x03
    2ff8:	8b 81       	ldd	r24, Y+3	; 0x03
    2ffa:	9c 81       	ldd	r25, Y+4	; 0x04
    2ffc:	9a 83       	std	Y+2, r25	; 0x02
    2ffe:	89 83       	std	Y+1, r24	; 0x01
    3000:	ad 8c       	ldd	r10, Y+29	; 0x1d
    3002:	be 8c       	ldd	r11, Y+30	; 0x1e
    3004:	cf 8c       	ldd	r12, Y+31	; 0x1f
    3006:	d8 a0       	ldd	r13, Y+32	; 0x20
    3008:	e9 a0       	ldd	r14, Y+33	; 0x21
    300a:	fa a0       	ldd	r15, Y+34	; 0x22
    300c:	0b a1       	ldd	r16, Y+35	; 0x23
    300e:	1c a1       	ldd	r17, Y+36	; 0x24
    3010:	2a 2d       	mov	r18, r10
    3012:	3b 2d       	mov	r19, r11
    3014:	4c 2d       	mov	r20, r12
    3016:	5d 2d       	mov	r21, r13
    3018:	6e 2d       	mov	r22, r14
    301a:	7f 2d       	mov	r23, r15
    301c:	80 2f       	mov	r24, r16
    301e:	91 2f       	mov	r25, r17
    3020:	a0 e0       	ldi	r26, 0x00	; 0
    3022:	0e 94 df 31 	call	0x63be	; 0x63be <__cmpdi2_s8>
    3026:	19 f4       	brne	.+6      	; 0x302e <debug_printdec_uint64+0x84>
    3028:	80 e3       	ldi	r24, 0x30	; 48
    302a:	0e 94 6c 01 	call	0x2d8	; 0x2d8 <debug_putchar>
    302e:	89 81       	ldd	r24, Y+1	; 0x01
    3030:	9a 81       	ldd	r25, Y+2	; 0x02
    3032:	01 97       	sbiw	r24, 0x01	; 1
    3034:	9a 83       	std	Y+2, r25	; 0x02
    3036:	89 83       	std	Y+1, r24	; 0x01
    3038:	89 81       	ldd	r24, Y+1	; 0x01
    303a:	9a 81       	ldd	r25, Y+2	; 0x02
    303c:	fc 01       	movw	r30, r24
    303e:	10 82       	st	Z, r1
    3040:	66 c0       	rjmp	.+204    	; 0x310e <debug_printdec_uint64+0x164>
    3042:	89 81       	ldd	r24, Y+1	; 0x01
    3044:	9a 81       	ldd	r25, Y+2	; 0x02
    3046:	01 97       	sbiw	r24, 0x01	; 1
    3048:	9a 83       	std	Y+2, r25	; 0x02
    304a:	89 83       	std	Y+1, r24	; 0x01
    304c:	2d 8c       	ldd	r2, Y+29	; 0x1d
    304e:	3e 8c       	ldd	r3, Y+30	; 0x1e
    3050:	4f 8c       	ldd	r4, Y+31	; 0x1f
    3052:	58 a0       	ldd	r5, Y+32	; 0x20
    3054:	69 a0       	ldd	r6, Y+33	; 0x21
    3056:	7a a0       	ldd	r7, Y+34	; 0x22
    3058:	8b a0       	ldd	r8, Y+35	; 0x23
    305a:	9c a0       	ldd	r9, Y+36	; 0x24
    305c:	0f 2e       	mov	r0, r31
    305e:	fa e0       	ldi	r31, 0x0A	; 10
    3060:	af 2e       	mov	r10, r31
    3062:	f0 2d       	mov	r31, r0
    3064:	b1 2c       	mov	r11, r1
    3066:	c1 2c       	mov	r12, r1
    3068:	d1 2c       	mov	r13, r1
    306a:	e1 2c       	mov	r14, r1
    306c:	f1 2c       	mov	r15, r1
    306e:	00 e0       	ldi	r16, 0x00	; 0
    3070:	10 e0       	ldi	r17, 0x00	; 0
    3072:	22 2d       	mov	r18, r2
    3074:	33 2d       	mov	r19, r3
    3076:	44 2d       	mov	r20, r4
    3078:	55 2d       	mov	r21, r5
    307a:	66 2d       	mov	r22, r6
    307c:	77 2d       	mov	r23, r7
    307e:	88 2d       	mov	r24, r8
    3080:	99 2d       	mov	r25, r9
    3082:	0e 94 12 31 	call	0x6224	; 0x6224 <__umoddi3>
    3086:	a2 2e       	mov	r10, r18
    3088:	b3 2e       	mov	r11, r19
    308a:	c4 2e       	mov	r12, r20
    308c:	d5 2e       	mov	r13, r21
    308e:	e6 2e       	mov	r14, r22
    3090:	f7 2e       	mov	r15, r23
    3092:	08 2f       	mov	r16, r24
    3094:	19 2f       	mov	r17, r25
    3096:	2a 2d       	mov	r18, r10
    3098:	3b 2d       	mov	r19, r11
    309a:	4c 2d       	mov	r20, r12
    309c:	5d 2d       	mov	r21, r13
    309e:	6e 2d       	mov	r22, r14
    30a0:	7f 2d       	mov	r23, r15
    30a2:	80 2f       	mov	r24, r16
    30a4:	91 2f       	mov	r25, r17
    30a6:	82 2f       	mov	r24, r18
    30a8:	80 5d       	subi	r24, 0xD0	; 208
    30aa:	28 2f       	mov	r18, r24
    30ac:	89 81       	ldd	r24, Y+1	; 0x01
    30ae:	9a 81       	ldd	r25, Y+2	; 0x02
    30b0:	fc 01       	movw	r30, r24
    30b2:	20 83       	st	Z, r18
    30b4:	2d 8c       	ldd	r2, Y+29	; 0x1d
    30b6:	3e 8c       	ldd	r3, Y+30	; 0x1e
    30b8:	4f 8c       	ldd	r4, Y+31	; 0x1f
    30ba:	58 a0       	ldd	r5, Y+32	; 0x20
    30bc:	69 a0       	ldd	r6, Y+33	; 0x21
    30be:	7a a0       	ldd	r7, Y+34	; 0x22
    30c0:	8b a0       	ldd	r8, Y+35	; 0x23
    30c2:	9c a0       	ldd	r9, Y+36	; 0x24
    30c4:	0f 2e       	mov	r0, r31
    30c6:	fa e0       	ldi	r31, 0x0A	; 10
    30c8:	af 2e       	mov	r10, r31
    30ca:	f0 2d       	mov	r31, r0
    30cc:	b1 2c       	mov	r11, r1
    30ce:	c1 2c       	mov	r12, r1
    30d0:	d1 2c       	mov	r13, r1
    30d2:	e1 2c       	mov	r14, r1
    30d4:	f1 2c       	mov	r15, r1
    30d6:	00 e0       	ldi	r16, 0x00	; 0
    30d8:	10 e0       	ldi	r17, 0x00	; 0
    30da:	22 2d       	mov	r18, r2
    30dc:	33 2d       	mov	r19, r3
    30de:	44 2d       	mov	r20, r4
    30e0:	55 2d       	mov	r21, r5
    30e2:	66 2d       	mov	r22, r6
    30e4:	77 2d       	mov	r23, r7
    30e6:	88 2d       	mov	r24, r8
    30e8:	99 2d       	mov	r25, r9
    30ea:	0e 94 14 31 	call	0x6228	; 0x6228 <__udivdi3>
    30ee:	a2 2e       	mov	r10, r18
    30f0:	b3 2e       	mov	r11, r19
    30f2:	c4 2e       	mov	r12, r20
    30f4:	d5 2e       	mov	r13, r21
    30f6:	e6 2e       	mov	r14, r22
    30f8:	f7 2e       	mov	r15, r23
    30fa:	08 2f       	mov	r16, r24
    30fc:	19 2f       	mov	r17, r25
    30fe:	ad 8e       	std	Y+29, r10	; 0x1d
    3100:	be 8e       	std	Y+30, r11	; 0x1e
    3102:	cf 8e       	std	Y+31, r12	; 0x1f
    3104:	d8 a2       	std	Y+32, r13	; 0x20
    3106:	e9 a2       	std	Y+33, r14	; 0x21
    3108:	fa a2       	std	Y+34, r15	; 0x22
    310a:	0b a3       	std	Y+35, r16	; 0x23
    310c:	1c a3       	std	Y+36, r17	; 0x24
    310e:	ad 8c       	ldd	r10, Y+29	; 0x1d
    3110:	be 8c       	ldd	r11, Y+30	; 0x1e
    3112:	cf 8c       	ldd	r12, Y+31	; 0x1f
    3114:	d8 a0       	ldd	r13, Y+32	; 0x20
    3116:	e9 a0       	ldd	r14, Y+33	; 0x21
    3118:	fa a0       	ldd	r15, Y+34	; 0x22
    311a:	0b a1       	ldd	r16, Y+35	; 0x23
    311c:	1c a1       	ldd	r17, Y+36	; 0x24
    311e:	2a 2d       	mov	r18, r10
    3120:	3b 2d       	mov	r19, r11
    3122:	4c 2d       	mov	r20, r12
    3124:	5d 2d       	mov	r21, r13
    3126:	6e 2d       	mov	r22, r14
    3128:	7f 2d       	mov	r23, r15
    312a:	80 2f       	mov	r24, r16
    312c:	91 2f       	mov	r25, r17
    312e:	a0 e0       	ldi	r26, 0x00	; 0
    3130:	0e 94 df 31 	call	0x63be	; 0x63be <__cmpdi2_s8>
    3134:	09 f0       	breq	.+2      	; 0x3138 <debug_printdec_uint64+0x18e>
    3136:	85 cf       	rjmp	.-246    	; 0x3042 <debug_printdec_uint64+0x98>
    3138:	89 81       	ldd	r24, Y+1	; 0x01
    313a:	9a 81       	ldd	r25, Y+2	; 0x02
    313c:	0e 94 1c 1d 	call	0x3a38	; 0x3a38 <debug_print>
    3140:	00 00       	nop
    3142:	a4 96       	adiw	r28, 0x24	; 36
    3144:	0f b6       	in	r0, 0x3f	; 63
    3146:	f8 94       	cli
    3148:	de bf       	out	0x3e, r29	; 62
    314a:	0f be       	out	0x3f, r0	; 63
    314c:	cd bf       	out	0x3d, r28	; 61
    314e:	df 91       	pop	r29
    3150:	cf 91       	pop	r28
    3152:	1f 91       	pop	r17
    3154:	0f 91       	pop	r16
    3156:	ff 90       	pop	r15
    3158:	ef 90       	pop	r14
    315a:	df 90       	pop	r13
    315c:	cf 90       	pop	r12
    315e:	bf 90       	pop	r11
    3160:	af 90       	pop	r10
    3162:	9f 90       	pop	r9
    3164:	8f 90       	pop	r8
    3166:	7f 90       	pop	r7
    3168:	6f 90       	pop	r6
    316a:	5f 90       	pop	r5
    316c:	4f 90       	pop	r4
    316e:	3f 90       	pop	r3
    3170:	2f 90       	pop	r2
    3172:	08 95       	ret

00003174 <debug_printhex_uint4>:
    3174:	cf 93       	push	r28
    3176:	df 93       	push	r29
    3178:	00 d0       	rcall	.+0      	; 0x317a <debug_printhex_uint4+0x6>
    317a:	cd b7       	in	r28, 0x3d	; 61
    317c:	de b7       	in	r29, 0x3e	; 62
    317e:	8a 83       	std	Y+2, r24	; 0x02
    3180:	8a 81       	ldd	r24, Y+2	; 0x02
    3182:	8a 30       	cpi	r24, 0x0A	; 10
    3184:	18 f4       	brcc	.+6      	; 0x318c <debug_printhex_uint4+0x18>
    3186:	8a 81       	ldd	r24, Y+2	; 0x02
    3188:	80 5d       	subi	r24, 0xD0	; 208
    318a:	02 c0       	rjmp	.+4      	; 0x3190 <debug_printhex_uint4+0x1c>
    318c:	8a 81       	ldd	r24, Y+2	; 0x02
    318e:	89 5c       	subi	r24, 0xC9	; 201
    3190:	89 83       	std	Y+1, r24	; 0x01
    3192:	89 81       	ldd	r24, Y+1	; 0x01
    3194:	0e 94 6c 01 	call	0x2d8	; 0x2d8 <debug_putchar>
    3198:	00 00       	nop
    319a:	0f 90       	pop	r0
    319c:	0f 90       	pop	r0
    319e:	df 91       	pop	r29
    31a0:	cf 91       	pop	r28
    31a2:	08 95       	ret

000031a4 <debug_printhex_uint8>:
    31a4:	cf 93       	push	r28
    31a6:	df 93       	push	r29
    31a8:	1f 92       	push	r1
    31aa:	cd b7       	in	r28, 0x3d	; 61
    31ac:	de b7       	in	r29, 0x3e	; 62
    31ae:	89 83       	std	Y+1, r24	; 0x01
    31b0:	89 81       	ldd	r24, Y+1	; 0x01
    31b2:	82 95       	swap	r24
    31b4:	8f 70       	andi	r24, 0x0F	; 15
    31b6:	0e 94 ba 18 	call	0x3174	; 0x3174 <debug_printhex_uint4>
    31ba:	89 81       	ldd	r24, Y+1	; 0x01
    31bc:	8f 70       	andi	r24, 0x0F	; 15
    31be:	0e 94 ba 18 	call	0x3174	; 0x3174 <debug_printhex_uint4>
    31c2:	00 00       	nop
    31c4:	0f 90       	pop	r0
    31c6:	df 91       	pop	r29
    31c8:	cf 91       	pop	r28
    31ca:	08 95       	ret

000031cc <debug_printhex_n>:
    31cc:	cf 93       	push	r28
    31ce:	df 93       	push	r29
    31d0:	00 d0       	rcall	.+0      	; 0x31d2 <debug_printhex_n+0x6>
    31d2:	00 d0       	rcall	.+0      	; 0x31d4 <debug_printhex_n+0x8>
    31d4:	00 d0       	rcall	.+0      	; 0x31d6 <debug_printhex_n+0xa>
    31d6:	cd b7       	in	r28, 0x3d	; 61
    31d8:	de b7       	in	r29, 0x3e	; 62
    31da:	9c 83       	std	Y+4, r25	; 0x04
    31dc:	8b 83       	std	Y+3, r24	; 0x03
    31de:	7e 83       	std	Y+6, r23	; 0x06
    31e0:	6d 83       	std	Y+5, r22	; 0x05
    31e2:	8d 81       	ldd	r24, Y+5	; 0x05
    31e4:	9e 81       	ldd	r25, Y+6	; 0x06
    31e6:	2b 81       	ldd	r18, Y+3	; 0x03
    31e8:	3c 81       	ldd	r19, Y+4	; 0x04
    31ea:	82 0f       	add	r24, r18
    31ec:	93 1f       	adc	r25, r19
    31ee:	9a 83       	std	Y+2, r25	; 0x02
    31f0:	89 83       	std	Y+1, r24	; 0x01
    31f2:	0b c0       	rjmp	.+22     	; 0x320a <debug_printhex_n+0x3e>
    31f4:	89 81       	ldd	r24, Y+1	; 0x01
    31f6:	9a 81       	ldd	r25, Y+2	; 0x02
    31f8:	01 97       	sbiw	r24, 0x01	; 1
    31fa:	9a 83       	std	Y+2, r25	; 0x02
    31fc:	89 83       	std	Y+1, r24	; 0x01
    31fe:	89 81       	ldd	r24, Y+1	; 0x01
    3200:	9a 81       	ldd	r25, Y+2	; 0x02
    3202:	fc 01       	movw	r30, r24
    3204:	80 81       	ld	r24, Z
    3206:	0e 94 d2 18 	call	0x31a4	; 0x31a4 <debug_printhex_uint8>
    320a:	8d 81       	ldd	r24, Y+5	; 0x05
    320c:	9e 81       	ldd	r25, Y+6	; 0x06
    320e:	9c 01       	movw	r18, r24
    3210:	21 50       	subi	r18, 0x01	; 1
    3212:	31 09       	sbc	r19, r1
    3214:	3e 83       	std	Y+6, r19	; 0x06
    3216:	2d 83       	std	Y+5, r18	; 0x05
    3218:	89 2b       	or	r24, r25
    321a:	61 f7       	brne	.-40     	; 0x31f4 <debug_printhex_n+0x28>
    321c:	00 00       	nop
    321e:	26 96       	adiw	r28, 0x06	; 6
    3220:	0f b6       	in	r0, 0x3f	; 63
    3222:	f8 94       	cli
    3224:	de bf       	out	0x3e, r29	; 62
    3226:	0f be       	out	0x3f, r0	; 63
    3228:	cd bf       	out	0x3d, r28	; 61
    322a:	df 91       	pop	r29
    322c:	cf 91       	pop	r28
    322e:	08 95       	ret

00003230 <debug_printhex_char>:
    3230:	cf 93       	push	r28
    3232:	df 93       	push	r29
    3234:	1f 92       	push	r1
    3236:	cd b7       	in	r28, 0x3d	; 61
    3238:	de b7       	in	r29, 0x3e	; 62
    323a:	89 83       	std	Y+1, r24	; 0x01
    323c:	89 81       	ldd	r24, Y+1	; 0x01
    323e:	0e 94 d2 18 	call	0x31a4	; 0x31a4 <debug_printhex_uint8>
    3242:	00 00       	nop
    3244:	0f 90       	pop	r0
    3246:	df 91       	pop	r29
    3248:	cf 91       	pop	r28
    324a:	08 95       	ret

0000324c <debug_printhex_unsigned_char>:
    324c:	cf 93       	push	r28
    324e:	df 93       	push	r29
    3250:	1f 92       	push	r1
    3252:	cd b7       	in	r28, 0x3d	; 61
    3254:	de b7       	in	r29, 0x3e	; 62
    3256:	89 83       	std	Y+1, r24	; 0x01
    3258:	89 81       	ldd	r24, Y+1	; 0x01
    325a:	0e 94 d2 18 	call	0x31a4	; 0x31a4 <debug_printhex_uint8>
    325e:	00 00       	nop
    3260:	0f 90       	pop	r0
    3262:	df 91       	pop	r29
    3264:	cf 91       	pop	r28
    3266:	08 95       	ret

00003268 <debug_printhex_unsigned_short>:
    3268:	cf 93       	push	r28
    326a:	df 93       	push	r29
    326c:	00 d0       	rcall	.+0      	; 0x326e <debug_printhex_unsigned_short+0x6>
    326e:	cd b7       	in	r28, 0x3d	; 61
    3270:	de b7       	in	r29, 0x3e	; 62
    3272:	9a 83       	std	Y+2, r25	; 0x02
    3274:	89 83       	std	Y+1, r24	; 0x01
    3276:	62 e0       	ldi	r22, 0x02	; 2
    3278:	70 e0       	ldi	r23, 0x00	; 0
    327a:	ce 01       	movw	r24, r28
    327c:	01 96       	adiw	r24, 0x01	; 1
    327e:	0e 94 e6 18 	call	0x31cc	; 0x31cc <debug_printhex_n>
    3282:	00 00       	nop
    3284:	0f 90       	pop	r0
    3286:	0f 90       	pop	r0
    3288:	df 91       	pop	r29
    328a:	cf 91       	pop	r28
    328c:	08 95       	ret

0000328e <debug_printhex_unsigned_int>:
    328e:	cf 93       	push	r28
    3290:	df 93       	push	r29
    3292:	00 d0       	rcall	.+0      	; 0x3294 <debug_printhex_unsigned_int+0x6>
    3294:	cd b7       	in	r28, 0x3d	; 61
    3296:	de b7       	in	r29, 0x3e	; 62
    3298:	9a 83       	std	Y+2, r25	; 0x02
    329a:	89 83       	std	Y+1, r24	; 0x01
    329c:	62 e0       	ldi	r22, 0x02	; 2
    329e:	70 e0       	ldi	r23, 0x00	; 0
    32a0:	ce 01       	movw	r24, r28
    32a2:	01 96       	adiw	r24, 0x01	; 1
    32a4:	0e 94 e6 18 	call	0x31cc	; 0x31cc <debug_printhex_n>
    32a8:	00 00       	nop
    32aa:	0f 90       	pop	r0
    32ac:	0f 90       	pop	r0
    32ae:	df 91       	pop	r29
    32b0:	cf 91       	pop	r28
    32b2:	08 95       	ret

000032b4 <debug_printhex_unsigned_long>:
    32b4:	cf 93       	push	r28
    32b6:	df 93       	push	r29
    32b8:	00 d0       	rcall	.+0      	; 0x32ba <debug_printhex_unsigned_long+0x6>
    32ba:	00 d0       	rcall	.+0      	; 0x32bc <debug_printhex_unsigned_long+0x8>
    32bc:	cd b7       	in	r28, 0x3d	; 61
    32be:	de b7       	in	r29, 0x3e	; 62
    32c0:	69 83       	std	Y+1, r22	; 0x01
    32c2:	7a 83       	std	Y+2, r23	; 0x02
    32c4:	8b 83       	std	Y+3, r24	; 0x03
    32c6:	9c 83       	std	Y+4, r25	; 0x04
    32c8:	64 e0       	ldi	r22, 0x04	; 4
    32ca:	70 e0       	ldi	r23, 0x00	; 0
    32cc:	ce 01       	movw	r24, r28
    32ce:	01 96       	adiw	r24, 0x01	; 1
    32d0:	0e 94 e6 18 	call	0x31cc	; 0x31cc <debug_printhex_n>
    32d4:	00 00       	nop
    32d6:	0f 90       	pop	r0
    32d8:	0f 90       	pop	r0
    32da:	0f 90       	pop	r0
    32dc:	0f 90       	pop	r0
    32de:	df 91       	pop	r29
    32e0:	cf 91       	pop	r28
    32e2:	08 95       	ret

000032e4 <debug_printhex_unsigned_long_long>:
    32e4:	cf 93       	push	r28
    32e6:	df 93       	push	r29
    32e8:	cd b7       	in	r28, 0x3d	; 61
    32ea:	de b7       	in	r29, 0x3e	; 62
    32ec:	28 97       	sbiw	r28, 0x08	; 8
    32ee:	0f b6       	in	r0, 0x3f	; 63
    32f0:	f8 94       	cli
    32f2:	de bf       	out	0x3e, r29	; 62
    32f4:	0f be       	out	0x3f, r0	; 63
    32f6:	cd bf       	out	0x3d, r28	; 61
    32f8:	29 83       	std	Y+1, r18	; 0x01
    32fa:	3a 83       	std	Y+2, r19	; 0x02
    32fc:	4b 83       	std	Y+3, r20	; 0x03
    32fe:	5c 83       	std	Y+4, r21	; 0x04
    3300:	6d 83       	std	Y+5, r22	; 0x05
    3302:	7e 83       	std	Y+6, r23	; 0x06
    3304:	8f 83       	std	Y+7, r24	; 0x07
    3306:	98 87       	std	Y+8, r25	; 0x08
    3308:	68 e0       	ldi	r22, 0x08	; 8
    330a:	70 e0       	ldi	r23, 0x00	; 0
    330c:	ce 01       	movw	r24, r28
    330e:	01 96       	adiw	r24, 0x01	; 1
    3310:	0e 94 e6 18 	call	0x31cc	; 0x31cc <debug_printhex_n>
    3314:	00 00       	nop
    3316:	28 96       	adiw	r28, 0x08	; 8
    3318:	0f b6       	in	r0, 0x3f	; 63
    331a:	f8 94       	cli
    331c:	de bf       	out	0x3e, r29	; 62
    331e:	0f be       	out	0x3f, r0	; 63
    3320:	cd bf       	out	0x3d, r28	; 61
    3322:	df 91       	pop	r29
    3324:	cf 91       	pop	r28
    3326:	08 95       	ret

00003328 <debug_printhex_signed_char>:
    3328:	cf 93       	push	r28
    332a:	df 93       	push	r29
    332c:	1f 92       	push	r1
    332e:	cd b7       	in	r28, 0x3d	; 61
    3330:	de b7       	in	r29, 0x3e	; 62
    3332:	89 83       	std	Y+1, r24	; 0x01
    3334:	89 81       	ldd	r24, Y+1	; 0x01
    3336:	0e 94 d2 18 	call	0x31a4	; 0x31a4 <debug_printhex_uint8>
    333a:	00 00       	nop
    333c:	0f 90       	pop	r0
    333e:	df 91       	pop	r29
    3340:	cf 91       	pop	r28
    3342:	08 95       	ret

00003344 <debug_printhex_signed_short>:
    3344:	cf 93       	push	r28
    3346:	df 93       	push	r29
    3348:	00 d0       	rcall	.+0      	; 0x334a <debug_printhex_signed_short+0x6>
    334a:	cd b7       	in	r28, 0x3d	; 61
    334c:	de b7       	in	r29, 0x3e	; 62
    334e:	9a 83       	std	Y+2, r25	; 0x02
    3350:	89 83       	std	Y+1, r24	; 0x01
    3352:	62 e0       	ldi	r22, 0x02	; 2
    3354:	70 e0       	ldi	r23, 0x00	; 0
    3356:	ce 01       	movw	r24, r28
    3358:	01 96       	adiw	r24, 0x01	; 1
    335a:	0e 94 e6 18 	call	0x31cc	; 0x31cc <debug_printhex_n>
    335e:	00 00       	nop
    3360:	0f 90       	pop	r0
    3362:	0f 90       	pop	r0
    3364:	df 91       	pop	r29
    3366:	cf 91       	pop	r28
    3368:	08 95       	ret

0000336a <debug_printhex_signed_int>:
    336a:	cf 93       	push	r28
    336c:	df 93       	push	r29
    336e:	00 d0       	rcall	.+0      	; 0x3370 <debug_printhex_signed_int+0x6>
    3370:	cd b7       	in	r28, 0x3d	; 61
    3372:	de b7       	in	r29, 0x3e	; 62
    3374:	9a 83       	std	Y+2, r25	; 0x02
    3376:	89 83       	std	Y+1, r24	; 0x01
    3378:	62 e0       	ldi	r22, 0x02	; 2
    337a:	70 e0       	ldi	r23, 0x00	; 0
    337c:	ce 01       	movw	r24, r28
    337e:	01 96       	adiw	r24, 0x01	; 1
    3380:	0e 94 e6 18 	call	0x31cc	; 0x31cc <debug_printhex_n>
    3384:	00 00       	nop
    3386:	0f 90       	pop	r0
    3388:	0f 90       	pop	r0
    338a:	df 91       	pop	r29
    338c:	cf 91       	pop	r28
    338e:	08 95       	ret

00003390 <debug_printhex_signed_long>:
    3390:	cf 93       	push	r28
    3392:	df 93       	push	r29
    3394:	00 d0       	rcall	.+0      	; 0x3396 <debug_printhex_signed_long+0x6>
    3396:	00 d0       	rcall	.+0      	; 0x3398 <debug_printhex_signed_long+0x8>
    3398:	cd b7       	in	r28, 0x3d	; 61
    339a:	de b7       	in	r29, 0x3e	; 62
    339c:	69 83       	std	Y+1, r22	; 0x01
    339e:	7a 83       	std	Y+2, r23	; 0x02
    33a0:	8b 83       	std	Y+3, r24	; 0x03
    33a2:	9c 83       	std	Y+4, r25	; 0x04
    33a4:	64 e0       	ldi	r22, 0x04	; 4
    33a6:	70 e0       	ldi	r23, 0x00	; 0
    33a8:	ce 01       	movw	r24, r28
    33aa:	01 96       	adiw	r24, 0x01	; 1
    33ac:	0e 94 e6 18 	call	0x31cc	; 0x31cc <debug_printhex_n>
    33b0:	00 00       	nop
    33b2:	0f 90       	pop	r0
    33b4:	0f 90       	pop	r0
    33b6:	0f 90       	pop	r0
    33b8:	0f 90       	pop	r0
    33ba:	df 91       	pop	r29
    33bc:	cf 91       	pop	r28
    33be:	08 95       	ret

000033c0 <debug_printhex_signed_long_long>:
    33c0:	cf 93       	push	r28
    33c2:	df 93       	push	r29
    33c4:	cd b7       	in	r28, 0x3d	; 61
    33c6:	de b7       	in	r29, 0x3e	; 62
    33c8:	28 97       	sbiw	r28, 0x08	; 8
    33ca:	0f b6       	in	r0, 0x3f	; 63
    33cc:	f8 94       	cli
    33ce:	de bf       	out	0x3e, r29	; 62
    33d0:	0f be       	out	0x3f, r0	; 63
    33d2:	cd bf       	out	0x3d, r28	; 61
    33d4:	29 83       	std	Y+1, r18	; 0x01
    33d6:	3a 83       	std	Y+2, r19	; 0x02
    33d8:	4b 83       	std	Y+3, r20	; 0x03
    33da:	5c 83       	std	Y+4, r21	; 0x04
    33dc:	6d 83       	std	Y+5, r22	; 0x05
    33de:	7e 83       	std	Y+6, r23	; 0x06
    33e0:	8f 83       	std	Y+7, r24	; 0x07
    33e2:	98 87       	std	Y+8, r25	; 0x08
    33e4:	68 e0       	ldi	r22, 0x08	; 8
    33e6:	70 e0       	ldi	r23, 0x00	; 0
    33e8:	ce 01       	movw	r24, r28
    33ea:	01 96       	adiw	r24, 0x01	; 1
    33ec:	0e 94 e6 18 	call	0x31cc	; 0x31cc <debug_printhex_n>
    33f0:	00 00       	nop
    33f2:	28 96       	adiw	r28, 0x08	; 8
    33f4:	0f b6       	in	r0, 0x3f	; 63
    33f6:	f8 94       	cli
    33f8:	de bf       	out	0x3e, r29	; 62
    33fa:	0f be       	out	0x3f, r0	; 63
    33fc:	cd bf       	out	0x3d, r28	; 61
    33fe:	df 91       	pop	r29
    3400:	cf 91       	pop	r28
    3402:	08 95       	ret

00003404 <debug_printhex_uint16>:
    3404:	cf 93       	push	r28
    3406:	df 93       	push	r29
    3408:	00 d0       	rcall	.+0      	; 0x340a <debug_printhex_uint16+0x6>
    340a:	00 d0       	rcall	.+0      	; 0x340c <debug_printhex_uint16+0x8>
    340c:	cd b7       	in	r28, 0x3d	; 61
    340e:	de b7       	in	r29, 0x3e	; 62
    3410:	9c 83       	std	Y+4, r25	; 0x04
    3412:	8b 83       	std	Y+3, r24	; 0x03
    3414:	ce 01       	movw	r24, r28
    3416:	03 96       	adiw	r24, 0x03	; 3
    3418:	9a 83       	std	Y+2, r25	; 0x02
    341a:	89 83       	std	Y+1, r24	; 0x01
    341c:	89 81       	ldd	r24, Y+1	; 0x01
    341e:	9a 81       	ldd	r25, Y+2	; 0x02
    3420:	01 96       	adiw	r24, 0x01	; 1
    3422:	fc 01       	movw	r30, r24
    3424:	80 81       	ld	r24, Z
    3426:	0e 94 d2 18 	call	0x31a4	; 0x31a4 <debug_printhex_uint8>
    342a:	89 81       	ldd	r24, Y+1	; 0x01
    342c:	9a 81       	ldd	r25, Y+2	; 0x02
    342e:	fc 01       	movw	r30, r24
    3430:	80 81       	ld	r24, Z
    3432:	0e 94 d2 18 	call	0x31a4	; 0x31a4 <debug_printhex_uint8>
    3436:	00 00       	nop
    3438:	0f 90       	pop	r0
    343a:	0f 90       	pop	r0
    343c:	0f 90       	pop	r0
    343e:	0f 90       	pop	r0
    3440:	df 91       	pop	r29
    3442:	cf 91       	pop	r28
    3444:	08 95       	ret

00003446 <debug_printhex_uint32>:
    3446:	cf 93       	push	r28
    3448:	df 93       	push	r29
    344a:	00 d0       	rcall	.+0      	; 0x344c <debug_printhex_uint32+0x6>
    344c:	00 d0       	rcall	.+0      	; 0x344e <debug_printhex_uint32+0x8>
    344e:	00 d0       	rcall	.+0      	; 0x3450 <debug_printhex_uint32+0xa>
    3450:	cd b7       	in	r28, 0x3d	; 61
    3452:	de b7       	in	r29, 0x3e	; 62
    3454:	6b 83       	std	Y+3, r22	; 0x03
    3456:	7c 83       	std	Y+4, r23	; 0x04
    3458:	8d 83       	std	Y+5, r24	; 0x05
    345a:	9e 83       	std	Y+6, r25	; 0x06
    345c:	ce 01       	movw	r24, r28
    345e:	03 96       	adiw	r24, 0x03	; 3
    3460:	9a 83       	std	Y+2, r25	; 0x02
    3462:	89 83       	std	Y+1, r24	; 0x01
    3464:	89 81       	ldd	r24, Y+1	; 0x01
    3466:	9a 81       	ldd	r25, Y+2	; 0x02
    3468:	03 96       	adiw	r24, 0x03	; 3
    346a:	fc 01       	movw	r30, r24
    346c:	80 81       	ld	r24, Z
    346e:	0e 94 d2 18 	call	0x31a4	; 0x31a4 <debug_printhex_uint8>
    3472:	89 81       	ldd	r24, Y+1	; 0x01
    3474:	9a 81       	ldd	r25, Y+2	; 0x02
    3476:	02 96       	adiw	r24, 0x02	; 2
    3478:	fc 01       	movw	r30, r24
    347a:	80 81       	ld	r24, Z
    347c:	0e 94 d2 18 	call	0x31a4	; 0x31a4 <debug_printhex_uint8>
    3480:	89 81       	ldd	r24, Y+1	; 0x01
    3482:	9a 81       	ldd	r25, Y+2	; 0x02
    3484:	01 96       	adiw	r24, 0x01	; 1
    3486:	fc 01       	movw	r30, r24
    3488:	80 81       	ld	r24, Z
    348a:	0e 94 d2 18 	call	0x31a4	; 0x31a4 <debug_printhex_uint8>
    348e:	89 81       	ldd	r24, Y+1	; 0x01
    3490:	9a 81       	ldd	r25, Y+2	; 0x02
    3492:	fc 01       	movw	r30, r24
    3494:	80 81       	ld	r24, Z
    3496:	0e 94 d2 18 	call	0x31a4	; 0x31a4 <debug_printhex_uint8>
    349a:	00 00       	nop
    349c:	26 96       	adiw	r28, 0x06	; 6
    349e:	0f b6       	in	r0, 0x3f	; 63
    34a0:	f8 94       	cli
    34a2:	de bf       	out	0x3e, r29	; 62
    34a4:	0f be       	out	0x3f, r0	; 63
    34a6:	cd bf       	out	0x3d, r28	; 61
    34a8:	df 91       	pop	r29
    34aa:	cf 91       	pop	r28
    34ac:	08 95       	ret

000034ae <debug_printhex_uint64>:
    34ae:	cf 93       	push	r28
    34b0:	df 93       	push	r29
    34b2:	cd b7       	in	r28, 0x3d	; 61
    34b4:	de b7       	in	r29, 0x3e	; 62
    34b6:	2a 97       	sbiw	r28, 0x0a	; 10
    34b8:	0f b6       	in	r0, 0x3f	; 63
    34ba:	f8 94       	cli
    34bc:	de bf       	out	0x3e, r29	; 62
    34be:	0f be       	out	0x3f, r0	; 63
    34c0:	cd bf       	out	0x3d, r28	; 61
    34c2:	2b 83       	std	Y+3, r18	; 0x03
    34c4:	3c 83       	std	Y+4, r19	; 0x04
    34c6:	4d 83       	std	Y+5, r20	; 0x05
    34c8:	5e 83       	std	Y+6, r21	; 0x06
    34ca:	6f 83       	std	Y+7, r22	; 0x07
    34cc:	78 87       	std	Y+8, r23	; 0x08
    34ce:	89 87       	std	Y+9, r24	; 0x09
    34d0:	9a 87       	std	Y+10, r25	; 0x0a
    34d2:	ce 01       	movw	r24, r28
    34d4:	03 96       	adiw	r24, 0x03	; 3
    34d6:	9a 83       	std	Y+2, r25	; 0x02
    34d8:	89 83       	std	Y+1, r24	; 0x01
    34da:	89 81       	ldd	r24, Y+1	; 0x01
    34dc:	9a 81       	ldd	r25, Y+2	; 0x02
    34de:	07 96       	adiw	r24, 0x07	; 7
    34e0:	fc 01       	movw	r30, r24
    34e2:	80 81       	ld	r24, Z
    34e4:	0e 94 d2 18 	call	0x31a4	; 0x31a4 <debug_printhex_uint8>
    34e8:	89 81       	ldd	r24, Y+1	; 0x01
    34ea:	9a 81       	ldd	r25, Y+2	; 0x02
    34ec:	06 96       	adiw	r24, 0x06	; 6
    34ee:	fc 01       	movw	r30, r24
    34f0:	80 81       	ld	r24, Z
    34f2:	0e 94 d2 18 	call	0x31a4	; 0x31a4 <debug_printhex_uint8>
    34f6:	89 81       	ldd	r24, Y+1	; 0x01
    34f8:	9a 81       	ldd	r25, Y+2	; 0x02
    34fa:	05 96       	adiw	r24, 0x05	; 5
    34fc:	fc 01       	movw	r30, r24
    34fe:	80 81       	ld	r24, Z
    3500:	0e 94 d2 18 	call	0x31a4	; 0x31a4 <debug_printhex_uint8>
    3504:	89 81       	ldd	r24, Y+1	; 0x01
    3506:	9a 81       	ldd	r25, Y+2	; 0x02
    3508:	04 96       	adiw	r24, 0x04	; 4
    350a:	fc 01       	movw	r30, r24
    350c:	80 81       	ld	r24, Z
    350e:	0e 94 d2 18 	call	0x31a4	; 0x31a4 <debug_printhex_uint8>
    3512:	89 81       	ldd	r24, Y+1	; 0x01
    3514:	9a 81       	ldd	r25, Y+2	; 0x02
    3516:	03 96       	adiw	r24, 0x03	; 3
    3518:	fc 01       	movw	r30, r24
    351a:	80 81       	ld	r24, Z
    351c:	0e 94 d2 18 	call	0x31a4	; 0x31a4 <debug_printhex_uint8>
    3520:	89 81       	ldd	r24, Y+1	; 0x01
    3522:	9a 81       	ldd	r25, Y+2	; 0x02
    3524:	02 96       	adiw	r24, 0x02	; 2
    3526:	fc 01       	movw	r30, r24
    3528:	80 81       	ld	r24, Z
    352a:	0e 94 d2 18 	call	0x31a4	; 0x31a4 <debug_printhex_uint8>
    352e:	89 81       	ldd	r24, Y+1	; 0x01
    3530:	9a 81       	ldd	r25, Y+2	; 0x02
    3532:	01 96       	adiw	r24, 0x01	; 1
    3534:	fc 01       	movw	r30, r24
    3536:	80 81       	ld	r24, Z
    3538:	0e 94 d2 18 	call	0x31a4	; 0x31a4 <debug_printhex_uint8>
    353c:	89 81       	ldd	r24, Y+1	; 0x01
    353e:	9a 81       	ldd	r25, Y+2	; 0x02
    3540:	fc 01       	movw	r30, r24
    3542:	80 81       	ld	r24, Z
    3544:	0e 94 d2 18 	call	0x31a4	; 0x31a4 <debug_printhex_uint8>
    3548:	00 00       	nop
    354a:	2a 96       	adiw	r28, 0x0a	; 10
    354c:	0f b6       	in	r0, 0x3f	; 63
    354e:	f8 94       	cli
    3550:	de bf       	out	0x3e, r29	; 62
    3552:	0f be       	out	0x3f, r0	; 63
    3554:	cd bf       	out	0x3d, r28	; 61
    3556:	df 91       	pop	r29
    3558:	cf 91       	pop	r28
    355a:	08 95       	ret

0000355c <debug_writehex>:
    355c:	cf 93       	push	r28
    355e:	df 93       	push	r29
    3560:	00 d0       	rcall	.+0      	; 0x3562 <debug_writehex+0x6>
    3562:	00 d0       	rcall	.+0      	; 0x3564 <debug_writehex+0x8>
    3564:	00 d0       	rcall	.+0      	; 0x3566 <debug_writehex+0xa>
    3566:	cd b7       	in	r28, 0x3d	; 61
    3568:	de b7       	in	r29, 0x3e	; 62
    356a:	9c 83       	std	Y+4, r25	; 0x04
    356c:	8b 83       	std	Y+3, r24	; 0x03
    356e:	7e 83       	std	Y+6, r23	; 0x06
    3570:	6d 83       	std	Y+5, r22	; 0x05
    3572:	8b 81       	ldd	r24, Y+3	; 0x03
    3574:	9c 81       	ldd	r25, Y+4	; 0x04
    3576:	9a 83       	std	Y+2, r25	; 0x02
    3578:	89 83       	std	Y+1, r24	; 0x01
    357a:	0b c0       	rjmp	.+22     	; 0x3592 <debug_writehex+0x36>
    357c:	89 81       	ldd	r24, Y+1	; 0x01
    357e:	9a 81       	ldd	r25, Y+2	; 0x02
    3580:	9c 01       	movw	r18, r24
    3582:	2f 5f       	subi	r18, 0xFF	; 255
    3584:	3f 4f       	sbci	r19, 0xFF	; 255
    3586:	3a 83       	std	Y+2, r19	; 0x02
    3588:	29 83       	std	Y+1, r18	; 0x01
    358a:	fc 01       	movw	r30, r24
    358c:	80 81       	ld	r24, Z
    358e:	0e 94 d2 18 	call	0x31a4	; 0x31a4 <debug_printhex_uint8>
    3592:	8d 81       	ldd	r24, Y+5	; 0x05
    3594:	9e 81       	ldd	r25, Y+6	; 0x06
    3596:	9c 01       	movw	r18, r24
    3598:	21 50       	subi	r18, 0x01	; 1
    359a:	31 09       	sbc	r19, r1
    359c:	3e 83       	std	Y+6, r19	; 0x06
    359e:	2d 83       	std	Y+5, r18	; 0x05
    35a0:	89 2b       	or	r24, r25
    35a2:	61 f7       	brne	.-40     	; 0x357c <debug_writehex+0x20>
    35a4:	00 00       	nop
    35a6:	26 96       	adiw	r28, 0x06	; 6
    35a8:	0f b6       	in	r0, 0x3f	; 63
    35aa:	f8 94       	cli
    35ac:	de bf       	out	0x3e, r29	; 62
    35ae:	0f be       	out	0x3f, r0	; 63
    35b0:	cd bf       	out	0x3d, r28	; 61
    35b2:	df 91       	pop	r29
    35b4:	cf 91       	pop	r28
    35b6:	08 95       	ret

000035b8 <debug_writehex_reversed>:
    35b8:	cf 93       	push	r28
    35ba:	df 93       	push	r29
    35bc:	00 d0       	rcall	.+0      	; 0x35be <debug_writehex_reversed+0x6>
    35be:	00 d0       	rcall	.+0      	; 0x35c0 <debug_writehex_reversed+0x8>
    35c0:	00 d0       	rcall	.+0      	; 0x35c2 <debug_writehex_reversed+0xa>
    35c2:	cd b7       	in	r28, 0x3d	; 61
    35c4:	de b7       	in	r29, 0x3e	; 62
    35c6:	9c 83       	std	Y+4, r25	; 0x04
    35c8:	8b 83       	std	Y+3, r24	; 0x03
    35ca:	7e 83       	std	Y+6, r23	; 0x06
    35cc:	6d 83       	std	Y+5, r22	; 0x05
    35ce:	2b 81       	ldd	r18, Y+3	; 0x03
    35d0:	3c 81       	ldd	r19, Y+4	; 0x04
    35d2:	8d 81       	ldd	r24, Y+5	; 0x05
    35d4:	9e 81       	ldd	r25, Y+6	; 0x06
    35d6:	82 0f       	add	r24, r18
    35d8:	93 1f       	adc	r25, r19
    35da:	9a 83       	std	Y+2, r25	; 0x02
    35dc:	89 83       	std	Y+1, r24	; 0x01
    35de:	0b c0       	rjmp	.+22     	; 0x35f6 <debug_writehex_reversed+0x3e>
    35e0:	89 81       	ldd	r24, Y+1	; 0x01
    35e2:	9a 81       	ldd	r25, Y+2	; 0x02
    35e4:	01 97       	sbiw	r24, 0x01	; 1
    35e6:	9a 83       	std	Y+2, r25	; 0x02
    35e8:	89 83       	std	Y+1, r24	; 0x01
    35ea:	89 81       	ldd	r24, Y+1	; 0x01
    35ec:	9a 81       	ldd	r25, Y+2	; 0x02
    35ee:	fc 01       	movw	r30, r24
    35f0:	80 81       	ld	r24, Z
    35f2:	0e 94 d2 18 	call	0x31a4	; 0x31a4 <debug_printhex_uint8>
    35f6:	8d 81       	ldd	r24, Y+5	; 0x05
    35f8:	9e 81       	ldd	r25, Y+6	; 0x06
    35fa:	9c 01       	movw	r18, r24
    35fc:	21 50       	subi	r18, 0x01	; 1
    35fe:	31 09       	sbc	r19, r1
    3600:	3e 83       	std	Y+6, r19	; 0x06
    3602:	2d 83       	std	Y+5, r18	; 0x05
    3604:	89 2b       	or	r24, r25
    3606:	61 f7       	brne	.-40     	; 0x35e0 <debug_writehex_reversed+0x28>
    3608:	00 00       	nop
    360a:	26 96       	adiw	r28, 0x06	; 6
    360c:	0f b6       	in	r0, 0x3f	; 63
    360e:	f8 94       	cli
    3610:	de bf       	out	0x3e, r29	; 62
    3612:	0f be       	out	0x3f, r0	; 63
    3614:	cd bf       	out	0x3d, r28	; 61
    3616:	df 91       	pop	r29
    3618:	cf 91       	pop	r28
    361a:	08 95       	ret

0000361c <debug_writebin>:
    361c:	cf 93       	push	r28
    361e:	df 93       	push	r29
    3620:	00 d0       	rcall	.+0      	; 0x3622 <debug_writebin+0x6>
    3622:	00 d0       	rcall	.+0      	; 0x3624 <debug_writebin+0x8>
    3624:	00 d0       	rcall	.+0      	; 0x3626 <debug_writebin+0xa>
    3626:	cd b7       	in	r28, 0x3d	; 61
    3628:	de b7       	in	r29, 0x3e	; 62
    362a:	9c 83       	std	Y+4, r25	; 0x04
    362c:	8b 83       	std	Y+3, r24	; 0x03
    362e:	7e 83       	std	Y+6, r23	; 0x06
    3630:	6d 83       	std	Y+5, r22	; 0x05
    3632:	8b 81       	ldd	r24, Y+3	; 0x03
    3634:	9c 81       	ldd	r25, Y+4	; 0x04
    3636:	9a 83       	std	Y+2, r25	; 0x02
    3638:	89 83       	std	Y+1, r24	; 0x01
    363a:	0b c0       	rjmp	.+22     	; 0x3652 <debug_writebin+0x36>
    363c:	89 81       	ldd	r24, Y+1	; 0x01
    363e:	9a 81       	ldd	r25, Y+2	; 0x02
    3640:	9c 01       	movw	r18, r24
    3642:	2f 5f       	subi	r18, 0xFF	; 255
    3644:	3f 4f       	sbci	r19, 0xFF	; 255
    3646:	3a 83       	std	Y+2, r19	; 0x02
    3648:	29 83       	std	Y+1, r18	; 0x01
    364a:	fc 01       	movw	r30, r24
    364c:	80 81       	ld	r24, Z
    364e:	0e 94 c2 16 	call	0x2d84	; 0x2d84 <debug_printbin_uint8>
    3652:	8d 81       	ldd	r24, Y+5	; 0x05
    3654:	9e 81       	ldd	r25, Y+6	; 0x06
    3656:	9c 01       	movw	r18, r24
    3658:	21 50       	subi	r18, 0x01	; 1
    365a:	31 09       	sbc	r19, r1
    365c:	3e 83       	std	Y+6, r19	; 0x06
    365e:	2d 83       	std	Y+5, r18	; 0x05
    3660:	89 2b       	or	r24, r25
    3662:	61 f7       	brne	.-40     	; 0x363c <debug_writebin+0x20>
    3664:	00 00       	nop
    3666:	26 96       	adiw	r28, 0x06	; 6
    3668:	0f b6       	in	r0, 0x3f	; 63
    366a:	f8 94       	cli
    366c:	de bf       	out	0x3e, r29	; 62
    366e:	0f be       	out	0x3f, r0	; 63
    3670:	cd bf       	out	0x3d, r28	; 61
    3672:	df 91       	pop	r29
    3674:	cf 91       	pop	r28
    3676:	08 95       	ret

00003678 <debug_writebin_reversed>:
    3678:	cf 93       	push	r28
    367a:	df 93       	push	r29
    367c:	00 d0       	rcall	.+0      	; 0x367e <debug_writebin_reversed+0x6>
    367e:	00 d0       	rcall	.+0      	; 0x3680 <debug_writebin_reversed+0x8>
    3680:	00 d0       	rcall	.+0      	; 0x3682 <debug_writebin_reversed+0xa>
    3682:	cd b7       	in	r28, 0x3d	; 61
    3684:	de b7       	in	r29, 0x3e	; 62
    3686:	9c 83       	std	Y+4, r25	; 0x04
    3688:	8b 83       	std	Y+3, r24	; 0x03
    368a:	7e 83       	std	Y+6, r23	; 0x06
    368c:	6d 83       	std	Y+5, r22	; 0x05
    368e:	2b 81       	ldd	r18, Y+3	; 0x03
    3690:	3c 81       	ldd	r19, Y+4	; 0x04
    3692:	8d 81       	ldd	r24, Y+5	; 0x05
    3694:	9e 81       	ldd	r25, Y+6	; 0x06
    3696:	82 0f       	add	r24, r18
    3698:	93 1f       	adc	r25, r19
    369a:	9a 83       	std	Y+2, r25	; 0x02
    369c:	89 83       	std	Y+1, r24	; 0x01
    369e:	0b c0       	rjmp	.+22     	; 0x36b6 <debug_writebin_reversed+0x3e>
    36a0:	89 81       	ldd	r24, Y+1	; 0x01
    36a2:	9a 81       	ldd	r25, Y+2	; 0x02
    36a4:	01 97       	sbiw	r24, 0x01	; 1
    36a6:	9a 83       	std	Y+2, r25	; 0x02
    36a8:	89 83       	std	Y+1, r24	; 0x01
    36aa:	89 81       	ldd	r24, Y+1	; 0x01
    36ac:	9a 81       	ldd	r25, Y+2	; 0x02
    36ae:	fc 01       	movw	r30, r24
    36b0:	80 81       	ld	r24, Z
    36b2:	0e 94 c2 16 	call	0x2d84	; 0x2d84 <debug_printbin_uint8>
    36b6:	8d 81       	ldd	r24, Y+5	; 0x05
    36b8:	9e 81       	ldd	r25, Y+6	; 0x06
    36ba:	9c 01       	movw	r18, r24
    36bc:	21 50       	subi	r18, 0x01	; 1
    36be:	31 09       	sbc	r19, r1
    36c0:	3e 83       	std	Y+6, r19	; 0x06
    36c2:	2d 83       	std	Y+5, r18	; 0x05
    36c4:	89 2b       	or	r24, r25
    36c6:	61 f7       	brne	.-40     	; 0x36a0 <debug_writebin_reversed+0x28>
    36c8:	00 00       	nop
    36ca:	26 96       	adiw	r28, 0x06	; 6
    36cc:	0f b6       	in	r0, 0x3f	; 63
    36ce:	f8 94       	cli
    36d0:	de bf       	out	0x3e, r29	; 62
    36d2:	0f be       	out	0x3f, r0	; 63
    36d4:	cd bf       	out	0x3d, r28	; 61
    36d6:	df 91       	pop	r29
    36d8:	cf 91       	pop	r28
    36da:	08 95       	ret

000036dc <debug_printdec_float_prec>:
    36dc:	cf 93       	push	r28
    36de:	df 93       	push	r29
    36e0:	00 d0       	rcall	.+0      	; 0x36e2 <debug_printdec_float_prec+0x6>
    36e2:	00 d0       	rcall	.+0      	; 0x36e4 <debug_printdec_float_prec+0x8>
    36e4:	00 d0       	rcall	.+0      	; 0x36e6 <debug_printdec_float_prec+0xa>
    36e6:	cd b7       	in	r28, 0x3d	; 61
    36e8:	de b7       	in	r29, 0x3e	; 62
    36ea:	69 83       	std	Y+1, r22	; 0x01
    36ec:	7a 83       	std	Y+2, r23	; 0x02
    36ee:	8b 83       	std	Y+3, r24	; 0x03
    36f0:	9c 83       	std	Y+4, r25	; 0x04
    36f2:	5e 83       	std	Y+6, r21	; 0x06
    36f4:	4d 83       	std	Y+5, r20	; 0x05
    36f6:	2d 81       	ldd	r18, Y+5	; 0x05
    36f8:	3e 81       	ldd	r19, Y+6	; 0x06
    36fa:	89 81       	ldd	r24, Y+1	; 0x01
    36fc:	9a 81       	ldd	r25, Y+2	; 0x02
    36fe:	ab 81       	ldd	r26, Y+3	; 0x03
    3700:	bc 81       	ldd	r27, Y+4	; 0x04
    3702:	a9 01       	movw	r20, r18
    3704:	bc 01       	movw	r22, r24
    3706:	cd 01       	movw	r24, r26
    3708:	0e 94 f7 1b 	call	0x37ee	; 0x37ee <debug_printdec_double_prec>
    370c:	00 00       	nop
    370e:	26 96       	adiw	r28, 0x06	; 6
    3710:	0f b6       	in	r0, 0x3f	; 63
    3712:	f8 94       	cli
    3714:	de bf       	out	0x3e, r29	; 62
    3716:	0f be       	out	0x3f, r0	; 63
    3718:	cd bf       	out	0x3d, r28	; 61
    371a:	df 91       	pop	r29
    371c:	cf 91       	pop	r28
    371e:	08 95       	ret

00003720 <__FLOAT_BITS>:
    3720:	cf 93       	push	r28
    3722:	df 93       	push	r29
    3724:	cd b7       	in	r28, 0x3d	; 61
    3726:	de b7       	in	r29, 0x3e	; 62
    3728:	28 97       	sbiw	r28, 0x08	; 8
    372a:	0f b6       	in	r0, 0x3f	; 63
    372c:	f8 94       	cli
    372e:	de bf       	out	0x3e, r29	; 62
    3730:	0f be       	out	0x3f, r0	; 63
    3732:	cd bf       	out	0x3d, r28	; 61
    3734:	6d 83       	std	Y+5, r22	; 0x05
    3736:	7e 83       	std	Y+6, r23	; 0x06
    3738:	8f 83       	std	Y+7, r24	; 0x07
    373a:	98 87       	std	Y+8, r25	; 0x08
    373c:	8d 81       	ldd	r24, Y+5	; 0x05
    373e:	9e 81       	ldd	r25, Y+6	; 0x06
    3740:	af 81       	ldd	r26, Y+7	; 0x07
    3742:	b8 85       	ldd	r27, Y+8	; 0x08
    3744:	89 83       	std	Y+1, r24	; 0x01
    3746:	9a 83       	std	Y+2, r25	; 0x02
    3748:	ab 83       	std	Y+3, r26	; 0x03
    374a:	bc 83       	std	Y+4, r27	; 0x04
    374c:	89 81       	ldd	r24, Y+1	; 0x01
    374e:	9a 81       	ldd	r25, Y+2	; 0x02
    3750:	28 96       	adiw	r28, 0x08	; 8
    3752:	0f b6       	in	r0, 0x3f	; 63
    3754:	f8 94       	cli
    3756:	de bf       	out	0x3e, r29	; 62
    3758:	0f be       	out	0x3f, r0	; 63
    375a:	cd bf       	out	0x3d, r28	; 61
    375c:	df 91       	pop	r29
    375e:	cf 91       	pop	r28
    3760:	08 95       	ret

00003762 <__isnan>:
    3762:	cf 93       	push	r28
    3764:	df 93       	push	r29
    3766:	00 d0       	rcall	.+0      	; 0x3768 <__isnan+0x6>
    3768:	00 d0       	rcall	.+0      	; 0x376a <__isnan+0x8>
    376a:	cd b7       	in	r28, 0x3d	; 61
    376c:	de b7       	in	r29, 0x3e	; 62
    376e:	69 83       	std	Y+1, r22	; 0x01
    3770:	7a 83       	std	Y+2, r23	; 0x02
    3772:	8b 83       	std	Y+3, r24	; 0x03
    3774:	9c 83       	std	Y+4, r25	; 0x04
    3776:	89 81       	ldd	r24, Y+1	; 0x01
    3778:	9a 81       	ldd	r25, Y+2	; 0x02
    377a:	ab 81       	ldd	r26, Y+3	; 0x03
    377c:	bc 81       	ldd	r27, Y+4	; 0x04
    377e:	bc 01       	movw	r22, r24
    3780:	cd 01       	movw	r24, r26
    3782:	0e 94 90 1b 	call	0x3720	; 0x3720 <__FLOAT_BITS>
    3786:	cc 01       	movw	r24, r24
    3788:	a0 e0       	ldi	r26, 0x00	; 0
    378a:	b0 e0       	ldi	r27, 0x00	; 0
    378c:	21 e0       	ldi	r18, 0x01	; 1
    378e:	01 97       	sbiw	r24, 0x01	; 1
    3790:	a0 48       	sbci	r26, 0x80	; 128
    3792:	bf 47       	sbci	r27, 0x7F	; 127
    3794:	0c f4       	brge	.+2      	; 0x3798 <__isnan+0x36>
    3796:	20 e0       	ldi	r18, 0x00	; 0
    3798:	82 2f       	mov	r24, r18
    379a:	0f 90       	pop	r0
    379c:	0f 90       	pop	r0
    379e:	0f 90       	pop	r0
    37a0:	0f 90       	pop	r0
    37a2:	df 91       	pop	r29
    37a4:	cf 91       	pop	r28
    37a6:	08 95       	ret

000037a8 <__isinf>:
    37a8:	cf 93       	push	r28
    37aa:	df 93       	push	r29
    37ac:	00 d0       	rcall	.+0      	; 0x37ae <__isinf+0x6>
    37ae:	00 d0       	rcall	.+0      	; 0x37b0 <__isinf+0x8>
    37b0:	cd b7       	in	r28, 0x3d	; 61
    37b2:	de b7       	in	r29, 0x3e	; 62
    37b4:	69 83       	std	Y+1, r22	; 0x01
    37b6:	7a 83       	std	Y+2, r23	; 0x02
    37b8:	8b 83       	std	Y+3, r24	; 0x03
    37ba:	9c 83       	std	Y+4, r25	; 0x04
    37bc:	89 81       	ldd	r24, Y+1	; 0x01
    37be:	9a 81       	ldd	r25, Y+2	; 0x02
    37c0:	ab 81       	ldd	r26, Y+3	; 0x03
    37c2:	bc 81       	ldd	r27, Y+4	; 0x04
    37c4:	bc 01       	movw	r22, r24
    37c6:	cd 01       	movw	r24, r26
    37c8:	0e 94 90 1b 	call	0x3720	; 0x3720 <__FLOAT_BITS>
    37cc:	cc 01       	movw	r24, r24
    37ce:	a0 e0       	ldi	r26, 0x00	; 0
    37d0:	b0 e0       	ldi	r27, 0x00	; 0
    37d2:	21 e0       	ldi	r18, 0x01	; 1
    37d4:	00 97       	sbiw	r24, 0x00	; 0
    37d6:	a0 48       	sbci	r26, 0x80	; 128
    37d8:	bf 47       	sbci	r27, 0x7F	; 127
    37da:	09 f0       	breq	.+2      	; 0x37de <__isinf+0x36>
    37dc:	20 e0       	ldi	r18, 0x00	; 0
    37de:	82 2f       	mov	r24, r18
    37e0:	0f 90       	pop	r0
    37e2:	0f 90       	pop	r0
    37e4:	0f 90       	pop	r0
    37e6:	0f 90       	pop	r0
    37e8:	df 91       	pop	r29
    37ea:	cf 91       	pop	r28
    37ec:	08 95       	ret

000037ee <debug_printdec_double_prec>:
    37ee:	af 92       	push	r10
    37f0:	bf 92       	push	r11
    37f2:	cf 92       	push	r12
    37f4:	df 92       	push	r13
    37f6:	ef 92       	push	r14
    37f8:	ff 92       	push	r15
    37fa:	0f 93       	push	r16
    37fc:	1f 93       	push	r17
    37fe:	cf 93       	push	r28
    3800:	df 93       	push	r29
    3802:	cd b7       	in	r28, 0x3d	; 61
    3804:	de b7       	in	r29, 0x3e	; 62
    3806:	64 97       	sbiw	r28, 0x14	; 20
    3808:	0f b6       	in	r0, 0x3f	; 63
    380a:	f8 94       	cli
    380c:	de bf       	out	0x3e, r29	; 62
    380e:	0f be       	out	0x3f, r0	; 63
    3810:	cd bf       	out	0x3d, r28	; 61
    3812:	6f 87       	std	Y+15, r22	; 0x0f
    3814:	78 8b       	std	Y+16, r23	; 0x10
    3816:	89 8b       	std	Y+17, r24	; 0x11
    3818:	9a 8b       	std	Y+18, r25	; 0x12
    381a:	5c 8b       	std	Y+20, r21	; 0x14
    381c:	4b 8b       	std	Y+19, r20	; 0x13
    381e:	8f 85       	ldd	r24, Y+15	; 0x0f
    3820:	98 89       	ldd	r25, Y+16	; 0x10
    3822:	a9 89       	ldd	r26, Y+17	; 0x11
    3824:	ba 89       	ldd	r27, Y+18	; 0x12
    3826:	bc 01       	movw	r22, r24
    3828:	cd 01       	movw	r24, r26
    382a:	0e 94 b1 1b 	call	0x3762	; 0x3762 <__isnan>
    382e:	88 23       	and	r24, r24
    3830:	29 f0       	breq	.+10     	; 0x383c <debug_printdec_double_prec+0x4e>
    3832:	81 ec       	ldi	r24, 0xC1	; 193
    3834:	91 e0       	ldi	r25, 0x01	; 1
    3836:	0e 94 1c 1d 	call	0x3a38	; 0x3a38 <debug_print>
    383a:	da c0       	rjmp	.+436    	; 0x39f0 <debug_printdec_double_prec+0x202>
    383c:	8f 85       	ldd	r24, Y+15	; 0x0f
    383e:	98 89       	ldd	r25, Y+16	; 0x10
    3840:	a9 89       	ldd	r26, Y+17	; 0x11
    3842:	ba 89       	ldd	r27, Y+18	; 0x12
    3844:	bc 01       	movw	r22, r24
    3846:	cd 01       	movw	r24, r26
    3848:	0e 94 d4 1b 	call	0x37a8	; 0x37a8 <__isinf>
    384c:	88 23       	and	r24, r24
    384e:	a9 f0       	breq	.+42     	; 0x387a <debug_printdec_double_prec+0x8c>
    3850:	20 e0       	ldi	r18, 0x00	; 0
    3852:	30 e0       	ldi	r19, 0x00	; 0
    3854:	a9 01       	movw	r20, r18
    3856:	6f 85       	ldd	r22, Y+15	; 0x0f
    3858:	78 89       	ldd	r23, Y+16	; 0x10
    385a:	89 89       	ldd	r24, Y+17	; 0x11
    385c:	9a 89       	ldd	r25, Y+18	; 0x12
    385e:	0e 94 56 34 	call	0x68ac	; 0x68ac <__gesf2>
    3862:	18 16       	cp	r1, r24
    3864:	2c f4       	brge	.+10     	; 0x3870 <debug_printdec_double_prec+0x82>
    3866:	85 ec       	ldi	r24, 0xC5	; 197
    3868:	91 e0       	ldi	r25, 0x01	; 1
    386a:	0e 94 1c 1d 	call	0x3a38	; 0x3a38 <debug_print>
    386e:	c0 c0       	rjmp	.+384    	; 0x39f0 <debug_printdec_double_prec+0x202>
    3870:	8a ec       	ldi	r24, 0xCA	; 202
    3872:	91 e0       	ldi	r25, 0x01	; 1
    3874:	0e 94 1c 1d 	call	0x3a38	; 0x3a38 <debug_print>
    3878:	bb c0       	rjmp	.+374    	; 0x39f0 <debug_printdec_double_prec+0x202>
    387a:	20 e0       	ldi	r18, 0x00	; 0
    387c:	30 e0       	ldi	r19, 0x00	; 0
    387e:	a9 01       	movw	r20, r18
    3880:	6f 85       	ldd	r22, Y+15	; 0x0f
    3882:	78 89       	ldd	r23, Y+16	; 0x10
    3884:	89 89       	ldd	r24, Y+17	; 0x11
    3886:	9a 89       	ldd	r25, Y+18	; 0x12
    3888:	0e 94 67 32 	call	0x64ce	; 0x64ce <__cmpsf2>
    388c:	88 23       	and	r24, r24
    388e:	1c f4       	brge	.+6      	; 0x3896 <debug_printdec_double_prec+0xa8>
    3890:	8d e2       	ldi	r24, 0x2D	; 45
    3892:	0e 94 6c 01 	call	0x2d8	; 0x2d8 <debug_putchar>
    3896:	20 e0       	ldi	r18, 0x00	; 0
    3898:	30 e0       	ldi	r19, 0x00	; 0
    389a:	a9 01       	movw	r20, r18
    389c:	6f 85       	ldd	r22, Y+15	; 0x0f
    389e:	78 89       	ldd	r23, Y+16	; 0x10
    38a0:	89 89       	ldd	r24, Y+17	; 0x11
    38a2:	9a 89       	ldd	r25, Y+18	; 0x12
    38a4:	0e 94 67 32 	call	0x64ce	; 0x64ce <__cmpsf2>
    38a8:	88 23       	and	r24, r24
    38aa:	4c f4       	brge	.+18     	; 0x38be <debug_printdec_double_prec+0xd0>
    38ac:	8f 85       	ldd	r24, Y+15	; 0x0f
    38ae:	98 89       	ldd	r25, Y+16	; 0x10
    38b0:	a9 89       	ldd	r26, Y+17	; 0x11
    38b2:	ba 89       	ldd	r27, Y+18	; 0x12
    38b4:	b0 58       	subi	r27, 0x80	; 128
    38b6:	8f 87       	std	Y+15, r24	; 0x0f
    38b8:	98 8b       	std	Y+16, r25	; 0x10
    38ba:	a9 8b       	std	Y+17, r26	; 0x11
    38bc:	ba 8b       	std	Y+18, r27	; 0x12
    38be:	6f 85       	ldd	r22, Y+15	; 0x0f
    38c0:	78 89       	ldd	r23, Y+16	; 0x10
    38c2:	89 89       	ldd	r24, Y+17	; 0x11
    38c4:	9a 89       	ldd	r25, Y+18	; 0x12
    38c6:	0e 94 e3 32 	call	0x65c6	; 0x65c6 <__fixunssfdi>
    38ca:	a2 2e       	mov	r10, r18
    38cc:	b3 2e       	mov	r11, r19
    38ce:	c4 2e       	mov	r12, r20
    38d0:	d5 2e       	mov	r13, r21
    38d2:	e6 2e       	mov	r14, r22
    38d4:	f7 2e       	mov	r15, r23
    38d6:	08 2f       	mov	r16, r24
    38d8:	19 2f       	mov	r17, r25
    38da:	af 82       	std	Y+7, r10	; 0x07
    38dc:	b8 86       	std	Y+8, r11	; 0x08
    38de:	c9 86       	std	Y+9, r12	; 0x09
    38e0:	da 86       	std	Y+10, r13	; 0x0a
    38e2:	eb 86       	std	Y+11, r14	; 0x0b
    38e4:	fc 86       	std	Y+12, r15	; 0x0c
    38e6:	0d 87       	std	Y+13, r16	; 0x0d
    38e8:	1e 87       	std	Y+14, r17	; 0x0e
    38ea:	af 80       	ldd	r10, Y+7	; 0x07
    38ec:	b8 84       	ldd	r11, Y+8	; 0x08
    38ee:	c9 84       	ldd	r12, Y+9	; 0x09
    38f0:	da 84       	ldd	r13, Y+10	; 0x0a
    38f2:	eb 84       	ldd	r14, Y+11	; 0x0b
    38f4:	fc 84       	ldd	r15, Y+12	; 0x0c
    38f6:	0d 85       	ldd	r16, Y+13	; 0x0d
    38f8:	1e 85       	ldd	r17, Y+14	; 0x0e
    38fa:	2a 2d       	mov	r18, r10
    38fc:	3b 2d       	mov	r19, r11
    38fe:	4c 2d       	mov	r20, r12
    3900:	5d 2d       	mov	r21, r13
    3902:	6e 2d       	mov	r22, r14
    3904:	7f 2d       	mov	r23, r15
    3906:	80 2f       	mov	r24, r16
    3908:	91 2f       	mov	r25, r17
    390a:	0e 94 d5 17 	call	0x2faa	; 0x2faa <debug_printdec_uint64>
    390e:	8e e2       	ldi	r24, 0x2E	; 46
    3910:	0e 94 6c 01 	call	0x2d8	; 0x2d8 <debug_putchar>
    3914:	2f 81       	ldd	r18, Y+7	; 0x07
    3916:	38 85       	ldd	r19, Y+8	; 0x08
    3918:	49 85       	ldd	r20, Y+9	; 0x09
    391a:	5a 85       	ldd	r21, Y+10	; 0x0a
    391c:	6b 85       	ldd	r22, Y+11	; 0x0b
    391e:	7c 85       	ldd	r23, Y+12	; 0x0c
    3920:	8d 85       	ldd	r24, Y+13	; 0x0d
    3922:	9e 85       	ldd	r25, Y+14	; 0x0e
    3924:	0e 94 93 33 	call	0x6726	; 0x6726 <__floatundisf>
    3928:	dc 01       	movw	r26, r24
    392a:	cb 01       	movw	r24, r22
    392c:	9c 01       	movw	r18, r24
    392e:	ad 01       	movw	r20, r26
    3930:	6f 85       	ldd	r22, Y+15	; 0x0f
    3932:	78 89       	ldd	r23, Y+16	; 0x10
    3934:	89 89       	ldd	r24, Y+17	; 0x11
    3936:	9a 89       	ldd	r25, Y+18	; 0x12
    3938:	0e 94 fa 31 	call	0x63f4	; 0x63f4 <__subsf3>
    393c:	dc 01       	movw	r26, r24
    393e:	cb 01       	movw	r24, r22
    3940:	89 83       	std	Y+1, r24	; 0x01
    3942:	9a 83       	std	Y+2, r25	; 0x02
    3944:	ab 83       	std	Y+3, r26	; 0x03
    3946:	bc 83       	std	Y+4, r27	; 0x04
    3948:	1e 82       	std	Y+6, r1	; 0x06
    394a:	1d 82       	std	Y+5, r1	; 0x05
    394c:	22 c0       	rjmp	.+68     	; 0x3992 <debug_printdec_double_prec+0x1a4>
    394e:	20 e0       	ldi	r18, 0x00	; 0
    3950:	30 e0       	ldi	r19, 0x00	; 0
    3952:	40 e2       	ldi	r20, 0x20	; 32
    3954:	51 e4       	ldi	r21, 0x41	; 65
    3956:	69 81       	ldd	r22, Y+1	; 0x01
    3958:	7a 81       	ldd	r23, Y+2	; 0x02
    395a:	8b 81       	ldd	r24, Y+3	; 0x03
    395c:	9c 81       	ldd	r25, Y+4	; 0x04
    395e:	0e 94 5b 34 	call	0x68b6	; 0x68b6 <__mulsf3>
    3962:	dc 01       	movw	r26, r24
    3964:	cb 01       	movw	r24, r22
    3966:	89 83       	std	Y+1, r24	; 0x01
    3968:	9a 83       	std	Y+2, r25	; 0x02
    396a:	ab 83       	std	Y+3, r26	; 0x03
    396c:	bc 83       	std	Y+4, r27	; 0x04
    396e:	69 81       	ldd	r22, Y+1	; 0x01
    3970:	7a 81       	ldd	r23, Y+2	; 0x02
    3972:	8b 81       	ldd	r24, Y+3	; 0x03
    3974:	9c 81       	ldd	r25, Y+4	; 0x04
    3976:	0e 94 1a 33 	call	0x6634	; 0x6634 <__fixsfsi>
    397a:	dc 01       	movw	r26, r24
    397c:	cb 01       	movw	r24, r22
    397e:	89 2b       	or	r24, r25
    3980:	19 f4       	brne	.+6      	; 0x3988 <debug_printdec_double_prec+0x19a>
    3982:	80 e3       	ldi	r24, 0x30	; 48
    3984:	0e 94 6c 01 	call	0x2d8	; 0x2d8 <debug_putchar>
    3988:	8d 81       	ldd	r24, Y+5	; 0x05
    398a:	9e 81       	ldd	r25, Y+6	; 0x06
    398c:	01 96       	adiw	r24, 0x01	; 1
    398e:	9e 83       	std	Y+6, r25	; 0x06
    3990:	8d 83       	std	Y+5, r24	; 0x05
    3992:	2d 81       	ldd	r18, Y+5	; 0x05
    3994:	3e 81       	ldd	r19, Y+6	; 0x06
    3996:	8b 89       	ldd	r24, Y+19	; 0x13
    3998:	9c 89       	ldd	r25, Y+20	; 0x14
    399a:	28 17       	cp	r18, r24
    399c:	39 07       	cpc	r19, r25
    399e:	bc f2       	brlt	.-82     	; 0x394e <debug_printdec_double_prec+0x160>
    39a0:	20 e0       	ldi	r18, 0x00	; 0
    39a2:	30 e0       	ldi	r19, 0x00	; 0
    39a4:	40 e0       	ldi	r20, 0x00	; 0
    39a6:	5f e3       	ldi	r21, 0x3F	; 63
    39a8:	69 81       	ldd	r22, Y+1	; 0x01
    39aa:	7a 81       	ldd	r23, Y+2	; 0x02
    39ac:	8b 81       	ldd	r24, Y+3	; 0x03
    39ae:	9c 81       	ldd	r25, Y+4	; 0x04
    39b0:	0e 94 fb 31 	call	0x63f6	; 0x63f6 <__addsf3>
    39b4:	dc 01       	movw	r26, r24
    39b6:	cb 01       	movw	r24, r22
    39b8:	89 83       	std	Y+1, r24	; 0x01
    39ba:	9a 83       	std	Y+2, r25	; 0x02
    39bc:	ab 83       	std	Y+3, r26	; 0x03
    39be:	bc 83       	std	Y+4, r27	; 0x04
    39c0:	69 81       	ldd	r22, Y+1	; 0x01
    39c2:	7a 81       	ldd	r23, Y+2	; 0x02
    39c4:	8b 81       	ldd	r24, Y+3	; 0x03
    39c6:	9c 81       	ldd	r25, Y+4	; 0x04
    39c8:	0e 94 de 32 	call	0x65bc	; 0x65bc <__fixsfdi>
    39cc:	a2 2e       	mov	r10, r18
    39ce:	b3 2e       	mov	r11, r19
    39d0:	c4 2e       	mov	r12, r20
    39d2:	d5 2e       	mov	r13, r21
    39d4:	e6 2e       	mov	r14, r22
    39d6:	f7 2e       	mov	r15, r23
    39d8:	08 2f       	mov	r16, r24
    39da:	19 2f       	mov	r17, r25
    39dc:	2a 2d       	mov	r18, r10
    39de:	3b 2d       	mov	r19, r11
    39e0:	4c 2d       	mov	r20, r12
    39e2:	5d 2d       	mov	r21, r13
    39e4:	6e 2d       	mov	r22, r14
    39e6:	7f 2d       	mov	r23, r15
    39e8:	80 2f       	mov	r24, r16
    39ea:	91 2f       	mov	r25, r17
    39ec:	0e 94 df 1e 	call	0x3dbe	; 0x3dbe <debug_printdec_signed_long_long>
    39f0:	64 96       	adiw	r28, 0x14	; 20
    39f2:	0f b6       	in	r0, 0x3f	; 63
    39f4:	f8 94       	cli
    39f6:	de bf       	out	0x3e, r29	; 62
    39f8:	0f be       	out	0x3f, r0	; 63
    39fa:	cd bf       	out	0x3d, r28	; 61
    39fc:	df 91       	pop	r29
    39fe:	cf 91       	pop	r28
    3a00:	1f 91       	pop	r17
    3a02:	0f 91       	pop	r16
    3a04:	ff 90       	pop	r15
    3a06:	ef 90       	pop	r14
    3a08:	df 90       	pop	r13
    3a0a:	cf 90       	pop	r12
    3a0c:	bf 90       	pop	r11
    3a0e:	af 90       	pop	r10
    3a10:	08 95       	ret

00003a12 <debug_printhex_ptr>:
    3a12:	cf 93       	push	r28
    3a14:	df 93       	push	r29
    3a16:	00 d0       	rcall	.+0      	; 0x3a18 <debug_printhex_ptr+0x6>
    3a18:	cd b7       	in	r28, 0x3d	; 61
    3a1a:	de b7       	in	r29, 0x3e	; 62
    3a1c:	9a 83       	std	Y+2, r25	; 0x02
    3a1e:	89 83       	std	Y+1, r24	; 0x01
    3a20:	62 e0       	ldi	r22, 0x02	; 2
    3a22:	70 e0       	ldi	r23, 0x00	; 0
    3a24:	ce 01       	movw	r24, r28
    3a26:	01 96       	adiw	r24, 0x01	; 1
    3a28:	0e 94 dc 1a 	call	0x35b8	; 0x35b8 <debug_writehex_reversed>
    3a2c:	00 00       	nop
    3a2e:	0f 90       	pop	r0
    3a30:	0f 90       	pop	r0
    3a32:	df 91       	pop	r29
    3a34:	cf 91       	pop	r28
    3a36:	08 95       	ret

00003a38 <debug_print>:
    3a38:	cf 93       	push	r28
    3a3a:	df 93       	push	r29
    3a3c:	00 d0       	rcall	.+0      	; 0x3a3e <debug_print+0x6>
    3a3e:	cd b7       	in	r28, 0x3d	; 61
    3a40:	de b7       	in	r29, 0x3e	; 62
    3a42:	9a 83       	std	Y+2, r25	; 0x02
    3a44:	89 83       	std	Y+1, r24	; 0x01
    3a46:	89 81       	ldd	r24, Y+1	; 0x01
    3a48:	9a 81       	ldd	r25, Y+2	; 0x02
    3a4a:	89 2b       	or	r24, r25
    3a4c:	69 f4       	brne	.+26     	; 0x3a68 <debug_print+0x30>
    3a4e:	8e e4       	ldi	r24, 0x4E	; 78
    3a50:	0e 94 6c 01 	call	0x2d8	; 0x2d8 <debug_putchar>
    3a54:	85 e5       	ldi	r24, 0x55	; 85
    3a56:	0e 94 6c 01 	call	0x2d8	; 0x2d8 <debug_putchar>
    3a5a:	8c e4       	ldi	r24, 0x4C	; 76
    3a5c:	0e 94 6c 01 	call	0x2d8	; 0x2d8 <debug_putchar>
    3a60:	8c e4       	ldi	r24, 0x4C	; 76
    3a62:	0e 94 6c 01 	call	0x2d8	; 0x2d8 <debug_putchar>
    3a66:	0a c0       	rjmp	.+20     	; 0x3a7c <debug_print+0x44>
    3a68:	89 81       	ldd	r24, Y+1	; 0x01
    3a6a:	9a 81       	ldd	r25, Y+2	; 0x02
    3a6c:	0e 94 56 16 	call	0x2cac	; 0x2cac <debug_strlen>
    3a70:	9c 01       	movw	r18, r24
    3a72:	89 81       	ldd	r24, Y+1	; 0x01
    3a74:	9a 81       	ldd	r25, Y+2	; 0x02
    3a76:	b9 01       	movw	r22, r18
    3a78:	0e 94 7a 01 	call	0x2f4	; 0x2f4 <debug_write>
    3a7c:	00 00       	nop
    3a7e:	0f 90       	pop	r0
    3a80:	0f 90       	pop	r0
    3a82:	df 91       	pop	r29
    3a84:	cf 91       	pop	r28
    3a86:	08 95       	ret

00003a88 <debug_print_dump>:
    3a88:	cf 93       	push	r28
    3a8a:	df 93       	push	r29
    3a8c:	cd b7       	in	r28, 0x3d	; 61
    3a8e:	de b7       	in	r29, 0x3e	; 62
    3a90:	2a 97       	sbiw	r28, 0x0a	; 10
    3a92:	0f b6       	in	r0, 0x3f	; 63
    3a94:	f8 94       	cli
    3a96:	de bf       	out	0x3e, r29	; 62
    3a98:	0f be       	out	0x3f, r0	; 63
    3a9a:	cd bf       	out	0x3d, r28	; 61
    3a9c:	98 87       	std	Y+8, r25	; 0x08
    3a9e:	8f 83       	std	Y+7, r24	; 0x07
    3aa0:	7a 87       	std	Y+10, r23	; 0x0a
    3aa2:	69 87       	std	Y+9, r22	; 0x09
    3aa4:	88 e0       	ldi	r24, 0x08	; 8
    3aa6:	90 e0       	ldi	r25, 0x00	; 0
    3aa8:	9e 83       	std	Y+6, r25	; 0x06
    3aaa:	8d 83       	std	Y+5, r24	; 0x05
    3aac:	1a 82       	std	Y+2, r1	; 0x02
    3aae:	19 82       	std	Y+1, r1	; 0x01
    3ab0:	89 c0       	rjmp	.+274    	; 0x3bc4 <debug_print_dump+0x13c>
    3ab2:	2d 81       	ldd	r18, Y+5	; 0x05
    3ab4:	3e 81       	ldd	r19, Y+6	; 0x06
    3ab6:	89 81       	ldd	r24, Y+1	; 0x01
    3ab8:	9a 81       	ldd	r25, Y+2	; 0x02
    3aba:	b9 01       	movw	r22, r18
    3abc:	0e 94 59 30 	call	0x60b2	; 0x60b2 <__udivmodhi4>
    3ac0:	89 2b       	or	r24, r25
    3ac2:	89 f4       	brne	.+34     	; 0x3ae6 <debug_print_dump+0x5e>
    3ac4:	62 e0       	ldi	r22, 0x02	; 2
    3ac6:	70 e0       	ldi	r23, 0x00	; 0
    3ac8:	8f ec       	ldi	r24, 0xCF	; 207
    3aca:	91 e0       	ldi	r25, 0x01	; 1
    3acc:	0e 94 7a 01 	call	0x2f4	; 0x2f4 <debug_write>
    3ad0:	2f 81       	ldd	r18, Y+7	; 0x07
    3ad2:	38 85       	ldd	r19, Y+8	; 0x08
    3ad4:	89 81       	ldd	r24, Y+1	; 0x01
    3ad6:	9a 81       	ldd	r25, Y+2	; 0x02
    3ad8:	82 0f       	add	r24, r18
    3ada:	93 1f       	adc	r25, r19
    3adc:	0e 94 09 1d 	call	0x3a12	; 0x3a12 <debug_printhex_ptr>
    3ae0:	8a e3       	ldi	r24, 0x3A	; 58
    3ae2:	0e 94 6c 01 	call	0x2d8	; 0x2d8 <debug_putchar>
    3ae6:	29 81       	ldd	r18, Y+1	; 0x01
    3ae8:	3a 81       	ldd	r19, Y+2	; 0x02
    3aea:	89 85       	ldd	r24, Y+9	; 0x09
    3aec:	9a 85       	ldd	r25, Y+10	; 0x0a
    3aee:	28 17       	cp	r18, r24
    3af0:	39 07       	cpc	r19, r25
    3af2:	70 f4       	brcc	.+28     	; 0x3b10 <debug_print_dump+0x88>
    3af4:	2f 81       	ldd	r18, Y+7	; 0x07
    3af6:	38 85       	ldd	r19, Y+8	; 0x08
    3af8:	89 81       	ldd	r24, Y+1	; 0x01
    3afa:	9a 81       	ldd	r25, Y+2	; 0x02
    3afc:	82 0f       	add	r24, r18
    3afe:	93 1f       	adc	r25, r19
    3b00:	fc 01       	movw	r30, r24
    3b02:	80 81       	ld	r24, Z
    3b04:	0e 94 d2 18 	call	0x31a4	; 0x31a4 <debug_printhex_uint8>
    3b08:	80 e2       	ldi	r24, 0x20	; 32
    3b0a:	0e 94 6c 01 	call	0x2d8	; 0x2d8 <debug_putchar>
    3b0e:	04 c0       	rjmp	.+8      	; 0x3b18 <debug_print_dump+0x90>
    3b10:	82 ed       	ldi	r24, 0xD2	; 210
    3b12:	91 e0       	ldi	r25, 0x01	; 1
    3b14:	0e 94 1c 1d 	call	0x3a38	; 0x3a38 <debug_print>
    3b18:	2d 81       	ldd	r18, Y+5	; 0x05
    3b1a:	3e 81       	ldd	r19, Y+6	; 0x06
    3b1c:	89 81       	ldd	r24, Y+1	; 0x01
    3b1e:	9a 81       	ldd	r25, Y+2	; 0x02
    3b20:	b9 01       	movw	r22, r18
    3b22:	0e 94 59 30 	call	0x60b2	; 0x60b2 <__udivmodhi4>
    3b26:	9c 01       	movw	r18, r24
    3b28:	8d 81       	ldd	r24, Y+5	; 0x05
    3b2a:	9e 81       	ldd	r25, Y+6	; 0x06
    3b2c:	01 97       	sbiw	r24, 0x01	; 1
    3b2e:	28 17       	cp	r18, r24
    3b30:	39 07       	cpc	r19, r25
    3b32:	09 f0       	breq	.+2      	; 0x3b36 <debug_print_dump+0xae>
    3b34:	42 c0       	rjmp	.+132    	; 0x3bba <debug_print_dump+0x132>
    3b36:	8d 81       	ldd	r24, Y+5	; 0x05
    3b38:	9e 81       	ldd	r25, Y+6	; 0x06
    3b3a:	29 81       	ldd	r18, Y+1	; 0x01
    3b3c:	3a 81       	ldd	r19, Y+2	; 0x02
    3b3e:	a9 01       	movw	r20, r18
    3b40:	48 1b       	sub	r20, r24
    3b42:	59 0b       	sbc	r21, r25
    3b44:	ca 01       	movw	r24, r20
    3b46:	01 96       	adiw	r24, 0x01	; 1
    3b48:	9c 83       	std	Y+4, r25	; 0x04
    3b4a:	8b 83       	std	Y+3, r24	; 0x03
    3b4c:	2d c0       	rjmp	.+90     	; 0x3ba8 <debug_print_dump+0x120>
    3b4e:	2b 81       	ldd	r18, Y+3	; 0x03
    3b50:	3c 81       	ldd	r19, Y+4	; 0x04
    3b52:	89 85       	ldd	r24, Y+9	; 0x09
    3b54:	9a 85       	ldd	r25, Y+10	; 0x0a
    3b56:	28 17       	cp	r18, r24
    3b58:	39 07       	cpc	r19, r25
    3b5a:	20 f0       	brcs	.+8      	; 0x3b64 <debug_print_dump+0xdc>
    3b5c:	80 e2       	ldi	r24, 0x20	; 32
    3b5e:	0e 94 6c 01 	call	0x2d8	; 0x2d8 <debug_putchar>
    3b62:	1d c0       	rjmp	.+58     	; 0x3b9e <debug_print_dump+0x116>
    3b64:	2f 81       	ldd	r18, Y+7	; 0x07
    3b66:	38 85       	ldd	r19, Y+8	; 0x08
    3b68:	8b 81       	ldd	r24, Y+3	; 0x03
    3b6a:	9c 81       	ldd	r25, Y+4	; 0x04
    3b6c:	82 0f       	add	r24, r18
    3b6e:	93 1f       	adc	r25, r19
    3b70:	fc 01       	movw	r30, r24
    3b72:	80 81       	ld	r24, Z
    3b74:	08 2e       	mov	r0, r24
    3b76:	00 0c       	add	r0, r0
    3b78:	99 0b       	sbc	r25, r25
    3b7a:	0e 94 e0 34 	call	0x69c0	; 0x69c0 <isprint>
    3b7e:	89 2b       	or	r24, r25
    3b80:	59 f0       	breq	.+22     	; 0x3b98 <debug_print_dump+0x110>
    3b82:	2f 81       	ldd	r18, Y+7	; 0x07
    3b84:	38 85       	ldd	r19, Y+8	; 0x08
    3b86:	8b 81       	ldd	r24, Y+3	; 0x03
    3b88:	9c 81       	ldd	r25, Y+4	; 0x04
    3b8a:	82 0f       	add	r24, r18
    3b8c:	93 1f       	adc	r25, r19
    3b8e:	fc 01       	movw	r30, r24
    3b90:	80 81       	ld	r24, Z
    3b92:	0e 94 6c 01 	call	0x2d8	; 0x2d8 <debug_putchar>
    3b96:	03 c0       	rjmp	.+6      	; 0x3b9e <debug_print_dump+0x116>
    3b98:	8e e2       	ldi	r24, 0x2E	; 46
    3b9a:	0e 94 6c 01 	call	0x2d8	; 0x2d8 <debug_putchar>
    3b9e:	8b 81       	ldd	r24, Y+3	; 0x03
    3ba0:	9c 81       	ldd	r25, Y+4	; 0x04
    3ba2:	01 96       	adiw	r24, 0x01	; 1
    3ba4:	9c 83       	std	Y+4, r25	; 0x04
    3ba6:	8b 83       	std	Y+3, r24	; 0x03
    3ba8:	2b 81       	ldd	r18, Y+3	; 0x03
    3baa:	3c 81       	ldd	r19, Y+4	; 0x04
    3bac:	89 81       	ldd	r24, Y+1	; 0x01
    3bae:	9a 81       	ldd	r25, Y+2	; 0x02
    3bb0:	82 17       	cp	r24, r18
    3bb2:	93 07       	cpc	r25, r19
    3bb4:	60 f6       	brcc	.-104    	; 0x3b4e <debug_print_dump+0xc6>
    3bb6:	0e 94 79 16 	call	0x2cf2	; 0x2cf2 <debug_print_newline>
    3bba:	89 81       	ldd	r24, Y+1	; 0x01
    3bbc:	9a 81       	ldd	r25, Y+2	; 0x02
    3bbe:	01 96       	adiw	r24, 0x01	; 1
    3bc0:	9a 83       	std	Y+2, r25	; 0x02
    3bc2:	89 83       	std	Y+1, r24	; 0x01
    3bc4:	2d 81       	ldd	r18, Y+5	; 0x05
    3bc6:	3e 81       	ldd	r19, Y+6	; 0x06
    3bc8:	89 85       	ldd	r24, Y+9	; 0x09
    3bca:	9a 85       	ldd	r25, Y+10	; 0x0a
    3bcc:	b9 01       	movw	r22, r18
    3bce:	0e 94 59 30 	call	0x60b2	; 0x60b2 <__udivmodhi4>
    3bd2:	89 2b       	or	r24, r25
    3bd4:	71 f0       	breq	.+28     	; 0x3bf2 <debug_print_dump+0x16a>
    3bd6:	2d 81       	ldd	r18, Y+5	; 0x05
    3bd8:	3e 81       	ldd	r19, Y+6	; 0x06
    3bda:	4d 81       	ldd	r20, Y+5	; 0x05
    3bdc:	5e 81       	ldd	r21, Y+6	; 0x06
    3bde:	89 85       	ldd	r24, Y+9	; 0x09
    3be0:	9a 85       	ldd	r25, Y+10	; 0x0a
    3be2:	ba 01       	movw	r22, r20
    3be4:	0e 94 59 30 	call	0x60b2	; 0x60b2 <__udivmodhi4>
    3be8:	a9 01       	movw	r20, r18
    3bea:	48 1b       	sub	r20, r24
    3bec:	59 0b       	sbc	r21, r25
    3bee:	ca 01       	movw	r24, r20
    3bf0:	02 c0       	rjmp	.+4      	; 0x3bf6 <debug_print_dump+0x16e>
    3bf2:	80 e0       	ldi	r24, 0x00	; 0
    3bf4:	90 e0       	ldi	r25, 0x00	; 0
    3bf6:	29 85       	ldd	r18, Y+9	; 0x09
    3bf8:	3a 85       	ldd	r19, Y+10	; 0x0a
    3bfa:	28 0f       	add	r18, r24
    3bfc:	39 1f       	adc	r19, r25
    3bfe:	89 81       	ldd	r24, Y+1	; 0x01
    3c00:	9a 81       	ldd	r25, Y+2	; 0x02
    3c02:	82 17       	cp	r24, r18
    3c04:	93 07       	cpc	r25, r19
    3c06:	08 f4       	brcc	.+2      	; 0x3c0a <debug_print_dump+0x182>
    3c08:	54 cf       	rjmp	.-344    	; 0x3ab2 <debug_print_dump+0x2a>
    3c0a:	00 00       	nop
    3c0c:	2a 96       	adiw	r28, 0x0a	; 10
    3c0e:	0f b6       	in	r0, 0x3f	; 63
    3c10:	f8 94       	cli
    3c12:	de bf       	out	0x3e, r29	; 62
    3c14:	0f be       	out	0x3f, r0	; 63
    3c16:	cd bf       	out	0x3d, r28	; 61
    3c18:	df 91       	pop	r29
    3c1a:	cf 91       	pop	r28
    3c1c:	08 95       	ret

00003c1e <debug_printdec_signed_char>:
    3c1e:	af 92       	push	r10
    3c20:	bf 92       	push	r11
    3c22:	cf 92       	push	r12
    3c24:	df 92       	push	r13
    3c26:	ef 92       	push	r14
    3c28:	ff 92       	push	r15
    3c2a:	0f 93       	push	r16
    3c2c:	1f 93       	push	r17
    3c2e:	cf 93       	push	r28
    3c30:	df 93       	push	r29
    3c32:	1f 92       	push	r1
    3c34:	cd b7       	in	r28, 0x3d	; 61
    3c36:	de b7       	in	r29, 0x3e	; 62
    3c38:	89 83       	std	Y+1, r24	; 0x01
    3c3a:	89 81       	ldd	r24, Y+1	; 0x01
    3c3c:	a8 2e       	mov	r10, r24
    3c3e:	88 0f       	add	r24, r24
    3c40:	88 0b       	sbc	r24, r24
    3c42:	b8 2e       	mov	r11, r24
    3c44:	c8 2e       	mov	r12, r24
    3c46:	d8 2e       	mov	r13, r24
    3c48:	e8 2e       	mov	r14, r24
    3c4a:	f8 2e       	mov	r15, r24
    3c4c:	08 2f       	mov	r16, r24
    3c4e:	18 2f       	mov	r17, r24
    3c50:	2a 2d       	mov	r18, r10
    3c52:	3b 2d       	mov	r19, r11
    3c54:	4c 2d       	mov	r20, r12
    3c56:	5d 2d       	mov	r21, r13
    3c58:	6e 2d       	mov	r22, r14
    3c5a:	7f 2d       	mov	r23, r15
    3c5c:	80 2f       	mov	r24, r16
    3c5e:	91 2f       	mov	r25, r17
    3c60:	0e 94 df 1e 	call	0x3dbe	; 0x3dbe <debug_printdec_signed_long_long>
    3c64:	00 00       	nop
    3c66:	0f 90       	pop	r0
    3c68:	df 91       	pop	r29
    3c6a:	cf 91       	pop	r28
    3c6c:	1f 91       	pop	r17
    3c6e:	0f 91       	pop	r16
    3c70:	ff 90       	pop	r15
    3c72:	ef 90       	pop	r14
    3c74:	df 90       	pop	r13
    3c76:	cf 90       	pop	r12
    3c78:	bf 90       	pop	r11
    3c7a:	af 90       	pop	r10
    3c7c:	08 95       	ret

00003c7e <debug_printdec_signed_short>:
    3c7e:	af 92       	push	r10
    3c80:	bf 92       	push	r11
    3c82:	cf 92       	push	r12
    3c84:	df 92       	push	r13
    3c86:	ef 92       	push	r14
    3c88:	ff 92       	push	r15
    3c8a:	0f 93       	push	r16
    3c8c:	1f 93       	push	r17
    3c8e:	cf 93       	push	r28
    3c90:	df 93       	push	r29
    3c92:	00 d0       	rcall	.+0      	; 0x3c94 <debug_printdec_signed_short+0x16>
    3c94:	cd b7       	in	r28, 0x3d	; 61
    3c96:	de b7       	in	r29, 0x3e	; 62
    3c98:	9a 83       	std	Y+2, r25	; 0x02
    3c9a:	89 83       	std	Y+1, r24	; 0x01
    3c9c:	89 81       	ldd	r24, Y+1	; 0x01
    3c9e:	9a 81       	ldd	r25, Y+2	; 0x02
    3ca0:	5c 01       	movw	r10, r24
    3ca2:	89 2f       	mov	r24, r25
    3ca4:	88 0f       	add	r24, r24
    3ca6:	88 0b       	sbc	r24, r24
    3ca8:	c8 2e       	mov	r12, r24
    3caa:	d8 2e       	mov	r13, r24
    3cac:	e8 2e       	mov	r14, r24
    3cae:	f8 2e       	mov	r15, r24
    3cb0:	08 2f       	mov	r16, r24
    3cb2:	18 2f       	mov	r17, r24
    3cb4:	2a 2d       	mov	r18, r10
    3cb6:	3b 2d       	mov	r19, r11
    3cb8:	4c 2d       	mov	r20, r12
    3cba:	5d 2d       	mov	r21, r13
    3cbc:	6e 2d       	mov	r22, r14
    3cbe:	7f 2d       	mov	r23, r15
    3cc0:	80 2f       	mov	r24, r16
    3cc2:	91 2f       	mov	r25, r17
    3cc4:	0e 94 df 1e 	call	0x3dbe	; 0x3dbe <debug_printdec_signed_long_long>
    3cc8:	00 00       	nop
    3cca:	0f 90       	pop	r0
    3ccc:	0f 90       	pop	r0
    3cce:	df 91       	pop	r29
    3cd0:	cf 91       	pop	r28
    3cd2:	1f 91       	pop	r17
    3cd4:	0f 91       	pop	r16
    3cd6:	ff 90       	pop	r15
    3cd8:	ef 90       	pop	r14
    3cda:	df 90       	pop	r13
    3cdc:	cf 90       	pop	r12
    3cde:	bf 90       	pop	r11
    3ce0:	af 90       	pop	r10
    3ce2:	08 95       	ret

00003ce4 <debug_printdec_signed_int>:
    3ce4:	af 92       	push	r10
    3ce6:	bf 92       	push	r11
    3ce8:	cf 92       	push	r12
    3cea:	df 92       	push	r13
    3cec:	ef 92       	push	r14
    3cee:	ff 92       	push	r15
    3cf0:	0f 93       	push	r16
    3cf2:	1f 93       	push	r17
    3cf4:	cf 93       	push	r28
    3cf6:	df 93       	push	r29
    3cf8:	00 d0       	rcall	.+0      	; 0x3cfa <debug_printdec_signed_int+0x16>
    3cfa:	cd b7       	in	r28, 0x3d	; 61
    3cfc:	de b7       	in	r29, 0x3e	; 62
    3cfe:	9a 83       	std	Y+2, r25	; 0x02
    3d00:	89 83       	std	Y+1, r24	; 0x01
    3d02:	89 81       	ldd	r24, Y+1	; 0x01
    3d04:	9a 81       	ldd	r25, Y+2	; 0x02
    3d06:	5c 01       	movw	r10, r24
    3d08:	89 2f       	mov	r24, r25
    3d0a:	88 0f       	add	r24, r24
    3d0c:	88 0b       	sbc	r24, r24
    3d0e:	c8 2e       	mov	r12, r24
    3d10:	d8 2e       	mov	r13, r24
    3d12:	e8 2e       	mov	r14, r24
    3d14:	f8 2e       	mov	r15, r24
    3d16:	08 2f       	mov	r16, r24
    3d18:	18 2f       	mov	r17, r24
    3d1a:	2a 2d       	mov	r18, r10
    3d1c:	3b 2d       	mov	r19, r11
    3d1e:	4c 2d       	mov	r20, r12
    3d20:	5d 2d       	mov	r21, r13
    3d22:	6e 2d       	mov	r22, r14
    3d24:	7f 2d       	mov	r23, r15
    3d26:	80 2f       	mov	r24, r16
    3d28:	91 2f       	mov	r25, r17
    3d2a:	0e 94 df 1e 	call	0x3dbe	; 0x3dbe <debug_printdec_signed_long_long>
    3d2e:	00 00       	nop
    3d30:	0f 90       	pop	r0
    3d32:	0f 90       	pop	r0
    3d34:	df 91       	pop	r29
    3d36:	cf 91       	pop	r28
    3d38:	1f 91       	pop	r17
    3d3a:	0f 91       	pop	r16
    3d3c:	ff 90       	pop	r15
    3d3e:	ef 90       	pop	r14
    3d40:	df 90       	pop	r13
    3d42:	cf 90       	pop	r12
    3d44:	bf 90       	pop	r11
    3d46:	af 90       	pop	r10
    3d48:	08 95       	ret

00003d4a <debug_printdec_signed_long>:
    3d4a:	af 92       	push	r10
    3d4c:	bf 92       	push	r11
    3d4e:	cf 92       	push	r12
    3d50:	df 92       	push	r13
    3d52:	ef 92       	push	r14
    3d54:	ff 92       	push	r15
    3d56:	0f 93       	push	r16
    3d58:	1f 93       	push	r17
    3d5a:	cf 93       	push	r28
    3d5c:	df 93       	push	r29
    3d5e:	00 d0       	rcall	.+0      	; 0x3d60 <debug_printdec_signed_long+0x16>
    3d60:	00 d0       	rcall	.+0      	; 0x3d62 <debug_printdec_signed_long+0x18>
    3d62:	cd b7       	in	r28, 0x3d	; 61
    3d64:	de b7       	in	r29, 0x3e	; 62
    3d66:	69 83       	std	Y+1, r22	; 0x01
    3d68:	7a 83       	std	Y+2, r23	; 0x02
    3d6a:	8b 83       	std	Y+3, r24	; 0x03
    3d6c:	9c 83       	std	Y+4, r25	; 0x04
    3d6e:	89 81       	ldd	r24, Y+1	; 0x01
    3d70:	9a 81       	ldd	r25, Y+2	; 0x02
    3d72:	ab 81       	ldd	r26, Y+3	; 0x03
    3d74:	bc 81       	ldd	r27, Y+4	; 0x04
    3d76:	5c 01       	movw	r10, r24
    3d78:	6d 01       	movw	r12, r26
    3d7a:	bb 0f       	add	r27, r27
    3d7c:	88 0b       	sbc	r24, r24
    3d7e:	98 2f       	mov	r25, r24
    3d80:	dc 01       	movw	r26, r24
    3d82:	e8 2e       	mov	r14, r24
    3d84:	f8 2e       	mov	r15, r24
    3d86:	08 2f       	mov	r16, r24
    3d88:	18 2f       	mov	r17, r24
    3d8a:	2a 2d       	mov	r18, r10
    3d8c:	3b 2d       	mov	r19, r11
    3d8e:	4c 2d       	mov	r20, r12
    3d90:	5d 2d       	mov	r21, r13
    3d92:	6e 2d       	mov	r22, r14
    3d94:	7f 2d       	mov	r23, r15
    3d96:	80 2f       	mov	r24, r16
    3d98:	91 2f       	mov	r25, r17
    3d9a:	0e 94 df 1e 	call	0x3dbe	; 0x3dbe <debug_printdec_signed_long_long>
    3d9e:	00 00       	nop
    3da0:	0f 90       	pop	r0
    3da2:	0f 90       	pop	r0
    3da4:	0f 90       	pop	r0
    3da6:	0f 90       	pop	r0
    3da8:	df 91       	pop	r29
    3daa:	cf 91       	pop	r28
    3dac:	1f 91       	pop	r17
    3dae:	0f 91       	pop	r16
    3db0:	ff 90       	pop	r15
    3db2:	ef 90       	pop	r14
    3db4:	df 90       	pop	r13
    3db6:	cf 90       	pop	r12
    3db8:	bf 90       	pop	r11
    3dba:	af 90       	pop	r10
    3dbc:	08 95       	ret

00003dbe <debug_printdec_signed_long_long>:
    3dbe:	af 92       	push	r10
    3dc0:	bf 92       	push	r11
    3dc2:	cf 92       	push	r12
    3dc4:	df 92       	push	r13
    3dc6:	ef 92       	push	r14
    3dc8:	ff 92       	push	r15
    3dca:	0f 93       	push	r16
    3dcc:	1f 93       	push	r17
    3dce:	cf 93       	push	r28
    3dd0:	df 93       	push	r29
    3dd2:	cd b7       	in	r28, 0x3d	; 61
    3dd4:	de b7       	in	r29, 0x3e	; 62
    3dd6:	28 97       	sbiw	r28, 0x08	; 8
    3dd8:	0f b6       	in	r0, 0x3f	; 63
    3dda:	f8 94       	cli
    3ddc:	de bf       	out	0x3e, r29	; 62
    3dde:	0f be       	out	0x3f, r0	; 63
    3de0:	cd bf       	out	0x3d, r28	; 61
    3de2:	29 83       	std	Y+1, r18	; 0x01
    3de4:	3a 83       	std	Y+2, r19	; 0x02
    3de6:	4b 83       	std	Y+3, r20	; 0x03
    3de8:	5c 83       	std	Y+4, r21	; 0x04
    3dea:	6d 83       	std	Y+5, r22	; 0x05
    3dec:	7e 83       	std	Y+6, r23	; 0x06
    3dee:	8f 83       	std	Y+7, r24	; 0x07
    3df0:	98 87       	std	Y+8, r25	; 0x08
    3df2:	a9 80       	ldd	r10, Y+1	; 0x01
    3df4:	ba 80       	ldd	r11, Y+2	; 0x02
    3df6:	cb 80       	ldd	r12, Y+3	; 0x03
    3df8:	dc 80       	ldd	r13, Y+4	; 0x04
    3dfa:	ed 80       	ldd	r14, Y+5	; 0x05
    3dfc:	fe 80       	ldd	r15, Y+6	; 0x06
    3dfe:	0f 81       	ldd	r16, Y+7	; 0x07
    3e00:	18 85       	ldd	r17, Y+8	; 0x08
    3e02:	2a 2d       	mov	r18, r10
    3e04:	3b 2d       	mov	r19, r11
    3e06:	4c 2d       	mov	r20, r12
    3e08:	5d 2d       	mov	r21, r13
    3e0a:	6e 2d       	mov	r22, r14
    3e0c:	7f 2d       	mov	r23, r15
    3e0e:	80 2f       	mov	r24, r16
    3e10:	91 2f       	mov	r25, r17
    3e12:	a0 e0       	ldi	r26, 0x00	; 0
    3e14:	0e 94 df 31 	call	0x63be	; 0x63be <__cmpdi2_s8>
    3e18:	ec f4       	brge	.+58     	; 0x3e54 <debug_printdec_signed_long_long+0x96>
    3e1a:	29 81       	ldd	r18, Y+1	; 0x01
    3e1c:	3a 81       	ldd	r19, Y+2	; 0x02
    3e1e:	4b 81       	ldd	r20, Y+3	; 0x03
    3e20:	5c 81       	ldd	r21, Y+4	; 0x04
    3e22:	6d 81       	ldd	r22, Y+5	; 0x05
    3e24:	7e 81       	ldd	r23, Y+6	; 0x06
    3e26:	8f 81       	ldd	r24, Y+7	; 0x07
    3e28:	98 85       	ldd	r25, Y+8	; 0x08
    3e2a:	0e 94 71 31 	call	0x62e2	; 0x62e2 <__negdi2>
    3e2e:	a2 2e       	mov	r10, r18
    3e30:	b3 2e       	mov	r11, r19
    3e32:	c4 2e       	mov	r12, r20
    3e34:	d5 2e       	mov	r13, r21
    3e36:	e6 2e       	mov	r14, r22
    3e38:	f7 2e       	mov	r15, r23
    3e3a:	08 2f       	mov	r16, r24
    3e3c:	19 2f       	mov	r17, r25
    3e3e:	a9 82       	std	Y+1, r10	; 0x01
    3e40:	ba 82       	std	Y+2, r11	; 0x02
    3e42:	cb 82       	std	Y+3, r12	; 0x03
    3e44:	dc 82       	std	Y+4, r13	; 0x04
    3e46:	ed 82       	std	Y+5, r14	; 0x05
    3e48:	fe 82       	std	Y+6, r15	; 0x06
    3e4a:	0f 83       	std	Y+7, r16	; 0x07
    3e4c:	18 87       	std	Y+8, r17	; 0x08
    3e4e:	8d e2       	ldi	r24, 0x2D	; 45
    3e50:	0e 94 6c 01 	call	0x2d8	; 0x2d8 <debug_putchar>
    3e54:	a9 80       	ldd	r10, Y+1	; 0x01
    3e56:	ba 80       	ldd	r11, Y+2	; 0x02
    3e58:	cb 80       	ldd	r12, Y+3	; 0x03
    3e5a:	dc 80       	ldd	r13, Y+4	; 0x04
    3e5c:	ed 80       	ldd	r14, Y+5	; 0x05
    3e5e:	fe 80       	ldd	r15, Y+6	; 0x06
    3e60:	0f 81       	ldd	r16, Y+7	; 0x07
    3e62:	18 85       	ldd	r17, Y+8	; 0x08
    3e64:	2a 2d       	mov	r18, r10
    3e66:	3b 2d       	mov	r19, r11
    3e68:	4c 2d       	mov	r20, r12
    3e6a:	5d 2d       	mov	r21, r13
    3e6c:	6e 2d       	mov	r22, r14
    3e6e:	7f 2d       	mov	r23, r15
    3e70:	80 2f       	mov	r24, r16
    3e72:	91 2f       	mov	r25, r17
    3e74:	0e 94 d5 17 	call	0x2faa	; 0x2faa <debug_printdec_uint64>
    3e78:	00 00       	nop
    3e7a:	28 96       	adiw	r28, 0x08	; 8
    3e7c:	0f b6       	in	r0, 0x3f	; 63
    3e7e:	f8 94       	cli
    3e80:	de bf       	out	0x3e, r29	; 62
    3e82:	0f be       	out	0x3f, r0	; 63
    3e84:	cd bf       	out	0x3d, r28	; 61
    3e86:	df 91       	pop	r29
    3e88:	cf 91       	pop	r28
    3e8a:	1f 91       	pop	r17
    3e8c:	0f 91       	pop	r16
    3e8e:	ff 90       	pop	r15
    3e90:	ef 90       	pop	r14
    3e92:	df 90       	pop	r13
    3e94:	cf 90       	pop	r12
    3e96:	bf 90       	pop	r11
    3e98:	af 90       	pop	r10
    3e9a:	08 95       	ret

00003e9c <debug_printdec_unsigned_char>:
    3e9c:	af 92       	push	r10
    3e9e:	bf 92       	push	r11
    3ea0:	cf 92       	push	r12
    3ea2:	df 92       	push	r13
    3ea4:	ef 92       	push	r14
    3ea6:	ff 92       	push	r15
    3ea8:	0f 93       	push	r16
    3eaa:	1f 93       	push	r17
    3eac:	cf 93       	push	r28
    3eae:	df 93       	push	r29
    3eb0:	1f 92       	push	r1
    3eb2:	cd b7       	in	r28, 0x3d	; 61
    3eb4:	de b7       	in	r29, 0x3e	; 62
    3eb6:	89 83       	std	Y+1, r24	; 0x01
    3eb8:	89 81       	ldd	r24, Y+1	; 0x01
    3eba:	a8 2e       	mov	r10, r24
    3ebc:	b1 2c       	mov	r11, r1
    3ebe:	c1 2c       	mov	r12, r1
    3ec0:	d1 2c       	mov	r13, r1
    3ec2:	e1 2c       	mov	r14, r1
    3ec4:	f1 2c       	mov	r15, r1
    3ec6:	87 01       	movw	r16, r14
    3ec8:	2a 2d       	mov	r18, r10
    3eca:	3b 2d       	mov	r19, r11
    3ecc:	4c 2d       	mov	r20, r12
    3ece:	5d 2d       	mov	r21, r13
    3ed0:	6e 2d       	mov	r22, r14
    3ed2:	7f 2d       	mov	r23, r15
    3ed4:	80 2f       	mov	r24, r16
    3ed6:	91 2f       	mov	r25, r17
    3ed8:	0e 94 0e 20 	call	0x401c	; 0x401c <debug_printdec_unsigned_long_long>
    3edc:	00 00       	nop
    3ede:	0f 90       	pop	r0
    3ee0:	df 91       	pop	r29
    3ee2:	cf 91       	pop	r28
    3ee4:	1f 91       	pop	r17
    3ee6:	0f 91       	pop	r16
    3ee8:	ff 90       	pop	r15
    3eea:	ef 90       	pop	r14
    3eec:	df 90       	pop	r13
    3eee:	cf 90       	pop	r12
    3ef0:	bf 90       	pop	r11
    3ef2:	af 90       	pop	r10
    3ef4:	08 95       	ret

00003ef6 <debug_printdec_unsigned_short>:
    3ef6:	af 92       	push	r10
    3ef8:	bf 92       	push	r11
    3efa:	cf 92       	push	r12
    3efc:	df 92       	push	r13
    3efe:	ef 92       	push	r14
    3f00:	ff 92       	push	r15
    3f02:	0f 93       	push	r16
    3f04:	1f 93       	push	r17
    3f06:	cf 93       	push	r28
    3f08:	df 93       	push	r29
    3f0a:	00 d0       	rcall	.+0      	; 0x3f0c <debug_printdec_unsigned_short+0x16>
    3f0c:	cd b7       	in	r28, 0x3d	; 61
    3f0e:	de b7       	in	r29, 0x3e	; 62
    3f10:	9a 83       	std	Y+2, r25	; 0x02
    3f12:	89 83       	std	Y+1, r24	; 0x01
    3f14:	89 81       	ldd	r24, Y+1	; 0x01
    3f16:	9a 81       	ldd	r25, Y+2	; 0x02
    3f18:	5c 01       	movw	r10, r24
    3f1a:	c1 2c       	mov	r12, r1
    3f1c:	d1 2c       	mov	r13, r1
    3f1e:	e1 2c       	mov	r14, r1
    3f20:	f1 2c       	mov	r15, r1
    3f22:	87 01       	movw	r16, r14
    3f24:	2a 2d       	mov	r18, r10
    3f26:	3b 2d       	mov	r19, r11
    3f28:	4c 2d       	mov	r20, r12
    3f2a:	5d 2d       	mov	r21, r13
    3f2c:	6e 2d       	mov	r22, r14
    3f2e:	7f 2d       	mov	r23, r15
    3f30:	80 2f       	mov	r24, r16
    3f32:	91 2f       	mov	r25, r17
    3f34:	0e 94 0e 20 	call	0x401c	; 0x401c <debug_printdec_unsigned_long_long>
    3f38:	00 00       	nop
    3f3a:	0f 90       	pop	r0
    3f3c:	0f 90       	pop	r0
    3f3e:	df 91       	pop	r29
    3f40:	cf 91       	pop	r28
    3f42:	1f 91       	pop	r17
    3f44:	0f 91       	pop	r16
    3f46:	ff 90       	pop	r15
    3f48:	ef 90       	pop	r14
    3f4a:	df 90       	pop	r13
    3f4c:	cf 90       	pop	r12
    3f4e:	bf 90       	pop	r11
    3f50:	af 90       	pop	r10
    3f52:	08 95       	ret

00003f54 <debug_printdec_unsigned_int>:
    3f54:	af 92       	push	r10
    3f56:	bf 92       	push	r11
    3f58:	cf 92       	push	r12
    3f5a:	df 92       	push	r13
    3f5c:	ef 92       	push	r14
    3f5e:	ff 92       	push	r15
    3f60:	0f 93       	push	r16
    3f62:	1f 93       	push	r17
    3f64:	cf 93       	push	r28
    3f66:	df 93       	push	r29
    3f68:	00 d0       	rcall	.+0      	; 0x3f6a <debug_printdec_unsigned_int+0x16>
    3f6a:	cd b7       	in	r28, 0x3d	; 61
    3f6c:	de b7       	in	r29, 0x3e	; 62
    3f6e:	9a 83       	std	Y+2, r25	; 0x02
    3f70:	89 83       	std	Y+1, r24	; 0x01
    3f72:	89 81       	ldd	r24, Y+1	; 0x01
    3f74:	9a 81       	ldd	r25, Y+2	; 0x02
    3f76:	5c 01       	movw	r10, r24
    3f78:	c1 2c       	mov	r12, r1
    3f7a:	d1 2c       	mov	r13, r1
    3f7c:	e1 2c       	mov	r14, r1
    3f7e:	f1 2c       	mov	r15, r1
    3f80:	87 01       	movw	r16, r14
    3f82:	2a 2d       	mov	r18, r10
    3f84:	3b 2d       	mov	r19, r11
    3f86:	4c 2d       	mov	r20, r12
    3f88:	5d 2d       	mov	r21, r13
    3f8a:	6e 2d       	mov	r22, r14
    3f8c:	7f 2d       	mov	r23, r15
    3f8e:	80 2f       	mov	r24, r16
    3f90:	91 2f       	mov	r25, r17
    3f92:	0e 94 0e 20 	call	0x401c	; 0x401c <debug_printdec_unsigned_long_long>
    3f96:	00 00       	nop
    3f98:	0f 90       	pop	r0
    3f9a:	0f 90       	pop	r0
    3f9c:	df 91       	pop	r29
    3f9e:	cf 91       	pop	r28
    3fa0:	1f 91       	pop	r17
    3fa2:	0f 91       	pop	r16
    3fa4:	ff 90       	pop	r15
    3fa6:	ef 90       	pop	r14
    3fa8:	df 90       	pop	r13
    3faa:	cf 90       	pop	r12
    3fac:	bf 90       	pop	r11
    3fae:	af 90       	pop	r10
    3fb0:	08 95       	ret

00003fb2 <debug_printdec_unsigned_long>:
    3fb2:	af 92       	push	r10
    3fb4:	bf 92       	push	r11
    3fb6:	cf 92       	push	r12
    3fb8:	df 92       	push	r13
    3fba:	ef 92       	push	r14
    3fbc:	ff 92       	push	r15
    3fbe:	0f 93       	push	r16
    3fc0:	1f 93       	push	r17
    3fc2:	cf 93       	push	r28
    3fc4:	df 93       	push	r29
    3fc6:	00 d0       	rcall	.+0      	; 0x3fc8 <debug_printdec_unsigned_long+0x16>
    3fc8:	00 d0       	rcall	.+0      	; 0x3fca <debug_printdec_unsigned_long+0x18>
    3fca:	cd b7       	in	r28, 0x3d	; 61
    3fcc:	de b7       	in	r29, 0x3e	; 62
    3fce:	69 83       	std	Y+1, r22	; 0x01
    3fd0:	7a 83       	std	Y+2, r23	; 0x02
    3fd2:	8b 83       	std	Y+3, r24	; 0x03
    3fd4:	9c 83       	std	Y+4, r25	; 0x04
    3fd6:	89 81       	ldd	r24, Y+1	; 0x01
    3fd8:	9a 81       	ldd	r25, Y+2	; 0x02
    3fda:	ab 81       	ldd	r26, Y+3	; 0x03
    3fdc:	bc 81       	ldd	r27, Y+4	; 0x04
    3fde:	5c 01       	movw	r10, r24
    3fe0:	6d 01       	movw	r12, r26
    3fe2:	e1 2c       	mov	r14, r1
    3fe4:	f1 2c       	mov	r15, r1
    3fe6:	87 01       	movw	r16, r14
    3fe8:	2a 2d       	mov	r18, r10
    3fea:	3b 2d       	mov	r19, r11
    3fec:	4c 2d       	mov	r20, r12
    3fee:	5d 2d       	mov	r21, r13
    3ff0:	6e 2d       	mov	r22, r14
    3ff2:	7f 2d       	mov	r23, r15
    3ff4:	80 2f       	mov	r24, r16
    3ff6:	91 2f       	mov	r25, r17
    3ff8:	0e 94 0e 20 	call	0x401c	; 0x401c <debug_printdec_unsigned_long_long>
    3ffc:	00 00       	nop
    3ffe:	0f 90       	pop	r0
    4000:	0f 90       	pop	r0
    4002:	0f 90       	pop	r0
    4004:	0f 90       	pop	r0
    4006:	df 91       	pop	r29
    4008:	cf 91       	pop	r28
    400a:	1f 91       	pop	r17
    400c:	0f 91       	pop	r16
    400e:	ff 90       	pop	r15
    4010:	ef 90       	pop	r14
    4012:	df 90       	pop	r13
    4014:	cf 90       	pop	r12
    4016:	bf 90       	pop	r11
    4018:	af 90       	pop	r10
    401a:	08 95       	ret

0000401c <debug_printdec_unsigned_long_long>:
    401c:	af 92       	push	r10
    401e:	bf 92       	push	r11
    4020:	cf 92       	push	r12
    4022:	df 92       	push	r13
    4024:	ef 92       	push	r14
    4026:	ff 92       	push	r15
    4028:	0f 93       	push	r16
    402a:	1f 93       	push	r17
    402c:	cf 93       	push	r28
    402e:	df 93       	push	r29
    4030:	cd b7       	in	r28, 0x3d	; 61
    4032:	de b7       	in	r29, 0x3e	; 62
    4034:	28 97       	sbiw	r28, 0x08	; 8
    4036:	0f b6       	in	r0, 0x3f	; 63
    4038:	f8 94       	cli
    403a:	de bf       	out	0x3e, r29	; 62
    403c:	0f be       	out	0x3f, r0	; 63
    403e:	cd bf       	out	0x3d, r28	; 61
    4040:	29 83       	std	Y+1, r18	; 0x01
    4042:	3a 83       	std	Y+2, r19	; 0x02
    4044:	4b 83       	std	Y+3, r20	; 0x03
    4046:	5c 83       	std	Y+4, r21	; 0x04
    4048:	6d 83       	std	Y+5, r22	; 0x05
    404a:	7e 83       	std	Y+6, r23	; 0x06
    404c:	8f 83       	std	Y+7, r24	; 0x07
    404e:	98 87       	std	Y+8, r25	; 0x08
    4050:	a9 80       	ldd	r10, Y+1	; 0x01
    4052:	ba 80       	ldd	r11, Y+2	; 0x02
    4054:	cb 80       	ldd	r12, Y+3	; 0x03
    4056:	dc 80       	ldd	r13, Y+4	; 0x04
    4058:	ed 80       	ldd	r14, Y+5	; 0x05
    405a:	fe 80       	ldd	r15, Y+6	; 0x06
    405c:	0f 81       	ldd	r16, Y+7	; 0x07
    405e:	18 85       	ldd	r17, Y+8	; 0x08
    4060:	2a 2d       	mov	r18, r10
    4062:	3b 2d       	mov	r19, r11
    4064:	4c 2d       	mov	r20, r12
    4066:	5d 2d       	mov	r21, r13
    4068:	6e 2d       	mov	r22, r14
    406a:	7f 2d       	mov	r23, r15
    406c:	80 2f       	mov	r24, r16
    406e:	91 2f       	mov	r25, r17
    4070:	0e 94 d5 17 	call	0x2faa	; 0x2faa <debug_printdec_uint64>
    4074:	00 00       	nop
    4076:	28 96       	adiw	r28, 0x08	; 8
    4078:	0f b6       	in	r0, 0x3f	; 63
    407a:	f8 94       	cli
    407c:	de bf       	out	0x3e, r29	; 62
    407e:	0f be       	out	0x3f, r0	; 63
    4080:	cd bf       	out	0x3d, r28	; 61
    4082:	df 91       	pop	r29
    4084:	cf 91       	pop	r28
    4086:	1f 91       	pop	r17
    4088:	0f 91       	pop	r16
    408a:	ff 90       	pop	r15
    408c:	ef 90       	pop	r14
    408e:	df 90       	pop	r13
    4090:	cf 90       	pop	r12
    4092:	bf 90       	pop	r11
    4094:	af 90       	pop	r10
    4096:	08 95       	ret

00004098 <debug_printdec_uint8>:
    4098:	af 92       	push	r10
    409a:	bf 92       	push	r11
    409c:	cf 92       	push	r12
    409e:	df 92       	push	r13
    40a0:	ef 92       	push	r14
    40a2:	ff 92       	push	r15
    40a4:	0f 93       	push	r16
    40a6:	1f 93       	push	r17
    40a8:	cf 93       	push	r28
    40aa:	df 93       	push	r29
    40ac:	1f 92       	push	r1
    40ae:	cd b7       	in	r28, 0x3d	; 61
    40b0:	de b7       	in	r29, 0x3e	; 62
    40b2:	89 83       	std	Y+1, r24	; 0x01
    40b4:	89 81       	ldd	r24, Y+1	; 0x01
    40b6:	a8 2e       	mov	r10, r24
    40b8:	b1 2c       	mov	r11, r1
    40ba:	c1 2c       	mov	r12, r1
    40bc:	d1 2c       	mov	r13, r1
    40be:	e1 2c       	mov	r14, r1
    40c0:	f1 2c       	mov	r15, r1
    40c2:	87 01       	movw	r16, r14
    40c4:	2a 2d       	mov	r18, r10
    40c6:	3b 2d       	mov	r19, r11
    40c8:	4c 2d       	mov	r20, r12
    40ca:	5d 2d       	mov	r21, r13
    40cc:	6e 2d       	mov	r22, r14
    40ce:	7f 2d       	mov	r23, r15
    40d0:	80 2f       	mov	r24, r16
    40d2:	91 2f       	mov	r25, r17
    40d4:	0e 94 d5 17 	call	0x2faa	; 0x2faa <debug_printdec_uint64>
    40d8:	00 00       	nop
    40da:	0f 90       	pop	r0
    40dc:	df 91       	pop	r29
    40de:	cf 91       	pop	r28
    40e0:	1f 91       	pop	r17
    40e2:	0f 91       	pop	r16
    40e4:	ff 90       	pop	r15
    40e6:	ef 90       	pop	r14
    40e8:	df 90       	pop	r13
    40ea:	cf 90       	pop	r12
    40ec:	bf 90       	pop	r11
    40ee:	af 90       	pop	r10
    40f0:	08 95       	ret

000040f2 <debug_printdec_uint16>:
    40f2:	af 92       	push	r10
    40f4:	bf 92       	push	r11
    40f6:	cf 92       	push	r12
    40f8:	df 92       	push	r13
    40fa:	ef 92       	push	r14
    40fc:	ff 92       	push	r15
    40fe:	0f 93       	push	r16
    4100:	1f 93       	push	r17
    4102:	cf 93       	push	r28
    4104:	df 93       	push	r29
    4106:	00 d0       	rcall	.+0      	; 0x4108 <debug_printdec_uint16+0x16>
    4108:	cd b7       	in	r28, 0x3d	; 61
    410a:	de b7       	in	r29, 0x3e	; 62
    410c:	9a 83       	std	Y+2, r25	; 0x02
    410e:	89 83       	std	Y+1, r24	; 0x01
    4110:	89 81       	ldd	r24, Y+1	; 0x01
    4112:	9a 81       	ldd	r25, Y+2	; 0x02
    4114:	5c 01       	movw	r10, r24
    4116:	c1 2c       	mov	r12, r1
    4118:	d1 2c       	mov	r13, r1
    411a:	e1 2c       	mov	r14, r1
    411c:	f1 2c       	mov	r15, r1
    411e:	87 01       	movw	r16, r14
    4120:	2a 2d       	mov	r18, r10
    4122:	3b 2d       	mov	r19, r11
    4124:	4c 2d       	mov	r20, r12
    4126:	5d 2d       	mov	r21, r13
    4128:	6e 2d       	mov	r22, r14
    412a:	7f 2d       	mov	r23, r15
    412c:	80 2f       	mov	r24, r16
    412e:	91 2f       	mov	r25, r17
    4130:	0e 94 d5 17 	call	0x2faa	; 0x2faa <debug_printdec_uint64>
    4134:	00 00       	nop
    4136:	0f 90       	pop	r0
    4138:	0f 90       	pop	r0
    413a:	df 91       	pop	r29
    413c:	cf 91       	pop	r28
    413e:	1f 91       	pop	r17
    4140:	0f 91       	pop	r16
    4142:	ff 90       	pop	r15
    4144:	ef 90       	pop	r14
    4146:	df 90       	pop	r13
    4148:	cf 90       	pop	r12
    414a:	bf 90       	pop	r11
    414c:	af 90       	pop	r10
    414e:	08 95       	ret

00004150 <debug_printdec_uint32>:
    4150:	af 92       	push	r10
    4152:	bf 92       	push	r11
    4154:	cf 92       	push	r12
    4156:	df 92       	push	r13
    4158:	ef 92       	push	r14
    415a:	ff 92       	push	r15
    415c:	0f 93       	push	r16
    415e:	1f 93       	push	r17
    4160:	cf 93       	push	r28
    4162:	df 93       	push	r29
    4164:	00 d0       	rcall	.+0      	; 0x4166 <debug_printdec_uint32+0x16>
    4166:	00 d0       	rcall	.+0      	; 0x4168 <debug_printdec_uint32+0x18>
    4168:	cd b7       	in	r28, 0x3d	; 61
    416a:	de b7       	in	r29, 0x3e	; 62
    416c:	69 83       	std	Y+1, r22	; 0x01
    416e:	7a 83       	std	Y+2, r23	; 0x02
    4170:	8b 83       	std	Y+3, r24	; 0x03
    4172:	9c 83       	std	Y+4, r25	; 0x04
    4174:	89 81       	ldd	r24, Y+1	; 0x01
    4176:	9a 81       	ldd	r25, Y+2	; 0x02
    4178:	ab 81       	ldd	r26, Y+3	; 0x03
    417a:	bc 81       	ldd	r27, Y+4	; 0x04
    417c:	5c 01       	movw	r10, r24
    417e:	6d 01       	movw	r12, r26
    4180:	e1 2c       	mov	r14, r1
    4182:	f1 2c       	mov	r15, r1
    4184:	87 01       	movw	r16, r14
    4186:	2a 2d       	mov	r18, r10
    4188:	3b 2d       	mov	r19, r11
    418a:	4c 2d       	mov	r20, r12
    418c:	5d 2d       	mov	r21, r13
    418e:	6e 2d       	mov	r22, r14
    4190:	7f 2d       	mov	r23, r15
    4192:	80 2f       	mov	r24, r16
    4194:	91 2f       	mov	r25, r17
    4196:	0e 94 d5 17 	call	0x2faa	; 0x2faa <debug_printdec_uint64>
    419a:	00 00       	nop
    419c:	0f 90       	pop	r0
    419e:	0f 90       	pop	r0
    41a0:	0f 90       	pop	r0
    41a2:	0f 90       	pop	r0
    41a4:	df 91       	pop	r29
    41a6:	cf 91       	pop	r28
    41a8:	1f 91       	pop	r17
    41aa:	0f 91       	pop	r16
    41ac:	ff 90       	pop	r15
    41ae:	ef 90       	pop	r14
    41b0:	df 90       	pop	r13
    41b2:	cf 90       	pop	r12
    41b4:	bf 90       	pop	r11
    41b6:	af 90       	pop	r10
    41b8:	08 95       	ret

000041ba <debug_asmlink_test>:
    41ba:	cf 93       	push	r28
    41bc:	df 93       	push	r29
    41be:	cd b7       	in	r28, 0x3d	; 61
    41c0:	de b7       	in	r29, 0x3e	; 62
    41c2:	81 e4       	ldi	r24, 0x41	; 65
    41c4:	0e 94 6c 01 	call	0x2d8	; 0x2d8 <debug_putchar>
    41c8:	82 e4       	ldi	r24, 0x42	; 66
    41ca:	0e 94 6c 01 	call	0x2d8	; 0x2d8 <debug_putchar>
    41ce:	83 e4       	ldi	r24, 0x43	; 67
    41d0:	0e 94 6c 01 	call	0x2d8	; 0x2d8 <debug_putchar>
    41d4:	84 e4       	ldi	r24, 0x44	; 68
    41d6:	0e 94 6c 01 	call	0x2d8	; 0x2d8 <debug_putchar>
    41da:	85 e4       	ldi	r24, 0x45	; 69
    41dc:	0e 94 6c 01 	call	0x2d8	; 0x2d8 <debug_putchar>
    41e0:	81 e3       	ldi	r24, 0x31	; 49
    41e2:	0e 94 6c 01 	call	0x2d8	; 0x2d8 <debug_putchar>
    41e6:	82 e3       	ldi	r24, 0x32	; 50
    41e8:	0e 94 6c 01 	call	0x2d8	; 0x2d8 <debug_putchar>
    41ec:	83 e3       	ldi	r24, 0x33	; 51
    41ee:	0e 94 6c 01 	call	0x2d8	; 0x2d8 <debug_putchar>
    41f2:	84 e3       	ldi	r24, 0x34	; 52
    41f4:	0e 94 6c 01 	call	0x2d8	; 0x2d8 <debug_putchar>
    41f8:	85 e3       	ldi	r24, 0x35	; 53
    41fa:	0e 94 6c 01 	call	0x2d8	; 0x2d8 <debug_putchar>
    41fe:	00 00       	nop
    4200:	df 91       	pop	r29
    4202:	cf 91       	pop	r28
    4204:	08 95       	ret

00004206 <debug_asmlink_ret8>:
    4206:	cf 93       	push	r28
    4208:	df 93       	push	r29
    420a:	cd b7       	in	r28, 0x3d	; 61
    420c:	de b7       	in	r29, 0x3e	; 62
    420e:	8e ef       	ldi	r24, 0xFE	; 254
    4210:	df 91       	pop	r29
    4212:	cf 91       	pop	r28
    4214:	08 95       	ret

00004216 <debug_asmlink_ret16>:
    4216:	cf 93       	push	r28
    4218:	df 93       	push	r29
    421a:	cd b7       	in	r28, 0x3d	; 61
    421c:	de b7       	in	r29, 0x3e	; 62
    421e:	8c ed       	ldi	r24, 0xDC	; 220
    4220:	9e ef       	ldi	r25, 0xFE	; 254
    4222:	df 91       	pop	r29
    4224:	cf 91       	pop	r28
    4226:	08 95       	ret

00004228 <debug_asmlink_ret32>:
    4228:	cf 93       	push	r28
    422a:	df 93       	push	r29
    422c:	cd b7       	in	r28, 0x3d	; 61
    422e:	de b7       	in	r29, 0x3e	; 62
    4230:	88 e9       	ldi	r24, 0x98	; 152
    4232:	9a eb       	ldi	r25, 0xBA	; 186
    4234:	ac ed       	ldi	r26, 0xDC	; 220
    4236:	be ef       	ldi	r27, 0xFE	; 254
    4238:	bc 01       	movw	r22, r24
    423a:	cd 01       	movw	r24, r26
    423c:	df 91       	pop	r29
    423e:	cf 91       	pop	r28
    4240:	08 95       	ret

00004242 <debug_asmlink_ret64>:
    4242:	af 92       	push	r10
    4244:	bf 92       	push	r11
    4246:	cf 92       	push	r12
    4248:	df 92       	push	r13
    424a:	ef 92       	push	r14
    424c:	ff 92       	push	r15
    424e:	0f 93       	push	r16
    4250:	1f 93       	push	r17
    4252:	cf 93       	push	r28
    4254:	df 93       	push	r29
    4256:	cd b7       	in	r28, 0x3d	; 61
    4258:	de b7       	in	r29, 0x3e	; 62
    425a:	20 e1       	ldi	r18, 0x10	; 16
    425c:	32 e3       	ldi	r19, 0x32	; 50
    425e:	44 e5       	ldi	r20, 0x54	; 84
    4260:	56 e7       	ldi	r21, 0x76	; 118
    4262:	68 e9       	ldi	r22, 0x98	; 152
    4264:	7a eb       	ldi	r23, 0xBA	; 186
    4266:	8c ed       	ldi	r24, 0xDC	; 220
    4268:	9e ef       	ldi	r25, 0xFE	; 254
    426a:	a2 2e       	mov	r10, r18
    426c:	b3 2e       	mov	r11, r19
    426e:	c4 2e       	mov	r12, r20
    4270:	d5 2e       	mov	r13, r21
    4272:	e6 2e       	mov	r14, r22
    4274:	f7 2e       	mov	r15, r23
    4276:	08 2f       	mov	r16, r24
    4278:	19 2f       	mov	r17, r25
    427a:	2a 2d       	mov	r18, r10
    427c:	3b 2d       	mov	r19, r11
    427e:	4c 2d       	mov	r20, r12
    4280:	5d 2d       	mov	r21, r13
    4282:	6e 2d       	mov	r22, r14
    4284:	7f 2d       	mov	r23, r15
    4286:	80 2f       	mov	r24, r16
    4288:	91 2f       	mov	r25, r17
    428a:	df 91       	pop	r29
    428c:	cf 91       	pop	r28
    428e:	1f 91       	pop	r17
    4290:	0f 91       	pop	r16
    4292:	ff 90       	pop	r15
    4294:	ef 90       	pop	r14
    4296:	df 90       	pop	r13
    4298:	cf 90       	pop	r12
    429a:	bf 90       	pop	r11
    429c:	af 90       	pop	r10
    429e:	08 95       	ret

000042a0 <debug_asmlink_args8x1>:
    42a0:	cf 93       	push	r28
    42a2:	df 93       	push	r29
    42a4:	1f 92       	push	r1
    42a6:	cd b7       	in	r28, 0x3d	; 61
    42a8:	de b7       	in	r29, 0x3e	; 62
    42aa:	89 83       	std	Y+1, r24	; 0x01
    42ac:	89 81       	ldd	r24, Y+1	; 0x01
    42ae:	0e 94 d2 18 	call	0x31a4	; 0x31a4 <debug_printhex_uint8>
    42b2:	8a e3       	ldi	r24, 0x3A	; 58
    42b4:	0e 94 6c 01 	call	0x2d8	; 0x2d8 <debug_putchar>
    42b8:	00 00       	nop
    42ba:	0f 90       	pop	r0
    42bc:	df 91       	pop	r29
    42be:	cf 91       	pop	r28
    42c0:	08 95       	ret

000042c2 <debug_asmlink_args8x2>:
    42c2:	cf 93       	push	r28
    42c4:	df 93       	push	r29
    42c6:	00 d0       	rcall	.+0      	; 0x42c8 <debug_asmlink_args8x2+0x6>
    42c8:	cd b7       	in	r28, 0x3d	; 61
    42ca:	de b7       	in	r29, 0x3e	; 62
    42cc:	89 83       	std	Y+1, r24	; 0x01
    42ce:	6a 83       	std	Y+2, r22	; 0x02
    42d0:	89 81       	ldd	r24, Y+1	; 0x01
    42d2:	0e 94 d2 18 	call	0x31a4	; 0x31a4 <debug_printhex_uint8>
    42d6:	8a e3       	ldi	r24, 0x3A	; 58
    42d8:	0e 94 6c 01 	call	0x2d8	; 0x2d8 <debug_putchar>
    42dc:	8a 81       	ldd	r24, Y+2	; 0x02
    42de:	0e 94 d2 18 	call	0x31a4	; 0x31a4 <debug_printhex_uint8>
    42e2:	8a e3       	ldi	r24, 0x3A	; 58
    42e4:	0e 94 6c 01 	call	0x2d8	; 0x2d8 <debug_putchar>
    42e8:	00 00       	nop
    42ea:	0f 90       	pop	r0
    42ec:	0f 90       	pop	r0
    42ee:	df 91       	pop	r29
    42f0:	cf 91       	pop	r28
    42f2:	08 95       	ret

000042f4 <debug_asmlink_args8x3>:
    42f4:	cf 93       	push	r28
    42f6:	df 93       	push	r29
    42f8:	00 d0       	rcall	.+0      	; 0x42fa <debug_asmlink_args8x3+0x6>
    42fa:	1f 92       	push	r1
    42fc:	cd b7       	in	r28, 0x3d	; 61
    42fe:	de b7       	in	r29, 0x3e	; 62
    4300:	89 83       	std	Y+1, r24	; 0x01
    4302:	6a 83       	std	Y+2, r22	; 0x02
    4304:	4b 83       	std	Y+3, r20	; 0x03
    4306:	89 81       	ldd	r24, Y+1	; 0x01
    4308:	0e 94 d2 18 	call	0x31a4	; 0x31a4 <debug_printhex_uint8>
    430c:	8a e3       	ldi	r24, 0x3A	; 58
    430e:	0e 94 6c 01 	call	0x2d8	; 0x2d8 <debug_putchar>
    4312:	8a 81       	ldd	r24, Y+2	; 0x02
    4314:	0e 94 d2 18 	call	0x31a4	; 0x31a4 <debug_printhex_uint8>
    4318:	8a e3       	ldi	r24, 0x3A	; 58
    431a:	0e 94 6c 01 	call	0x2d8	; 0x2d8 <debug_putchar>
    431e:	8b 81       	ldd	r24, Y+3	; 0x03
    4320:	0e 94 d2 18 	call	0x31a4	; 0x31a4 <debug_printhex_uint8>
    4324:	8a e3       	ldi	r24, 0x3A	; 58
    4326:	0e 94 6c 01 	call	0x2d8	; 0x2d8 <debug_putchar>
    432a:	00 00       	nop
    432c:	0f 90       	pop	r0
    432e:	0f 90       	pop	r0
    4330:	0f 90       	pop	r0
    4332:	df 91       	pop	r29
    4334:	cf 91       	pop	r28
    4336:	08 95       	ret

00004338 <debug_asmlink_args8x4>:
    4338:	cf 93       	push	r28
    433a:	df 93       	push	r29
    433c:	00 d0       	rcall	.+0      	; 0x433e <debug_asmlink_args8x4+0x6>
    433e:	00 d0       	rcall	.+0      	; 0x4340 <debug_asmlink_args8x4+0x8>
    4340:	cd b7       	in	r28, 0x3d	; 61
    4342:	de b7       	in	r29, 0x3e	; 62
    4344:	89 83       	std	Y+1, r24	; 0x01
    4346:	6a 83       	std	Y+2, r22	; 0x02
    4348:	4b 83       	std	Y+3, r20	; 0x03
    434a:	2c 83       	std	Y+4, r18	; 0x04
    434c:	89 81       	ldd	r24, Y+1	; 0x01
    434e:	0e 94 d2 18 	call	0x31a4	; 0x31a4 <debug_printhex_uint8>
    4352:	8a e3       	ldi	r24, 0x3A	; 58
    4354:	0e 94 6c 01 	call	0x2d8	; 0x2d8 <debug_putchar>
    4358:	8a 81       	ldd	r24, Y+2	; 0x02
    435a:	0e 94 d2 18 	call	0x31a4	; 0x31a4 <debug_printhex_uint8>
    435e:	8a e3       	ldi	r24, 0x3A	; 58
    4360:	0e 94 6c 01 	call	0x2d8	; 0x2d8 <debug_putchar>
    4364:	8b 81       	ldd	r24, Y+3	; 0x03
    4366:	0e 94 d2 18 	call	0x31a4	; 0x31a4 <debug_printhex_uint8>
    436a:	8a e3       	ldi	r24, 0x3A	; 58
    436c:	0e 94 6c 01 	call	0x2d8	; 0x2d8 <debug_putchar>
    4370:	8c 81       	ldd	r24, Y+4	; 0x04
    4372:	0e 94 d2 18 	call	0x31a4	; 0x31a4 <debug_printhex_uint8>
    4376:	8a e3       	ldi	r24, 0x3A	; 58
    4378:	0e 94 6c 01 	call	0x2d8	; 0x2d8 <debug_putchar>
    437c:	00 00       	nop
    437e:	0f 90       	pop	r0
    4380:	0f 90       	pop	r0
    4382:	0f 90       	pop	r0
    4384:	0f 90       	pop	r0
    4386:	df 91       	pop	r29
    4388:	cf 91       	pop	r28
    438a:	08 95       	ret

0000438c <debug_asmlink_args16x1>:
    438c:	cf 93       	push	r28
    438e:	df 93       	push	r29
    4390:	00 d0       	rcall	.+0      	; 0x4392 <debug_asmlink_args16x1+0x6>
    4392:	cd b7       	in	r28, 0x3d	; 61
    4394:	de b7       	in	r29, 0x3e	; 62
    4396:	9a 83       	std	Y+2, r25	; 0x02
    4398:	89 83       	std	Y+1, r24	; 0x01
    439a:	89 81       	ldd	r24, Y+1	; 0x01
    439c:	9a 81       	ldd	r25, Y+2	; 0x02
    439e:	0e 94 02 1a 	call	0x3404	; 0x3404 <debug_printhex_uint16>
    43a2:	8a e3       	ldi	r24, 0x3A	; 58
    43a4:	0e 94 6c 01 	call	0x2d8	; 0x2d8 <debug_putchar>
    43a8:	00 00       	nop
    43aa:	0f 90       	pop	r0
    43ac:	0f 90       	pop	r0
    43ae:	df 91       	pop	r29
    43b0:	cf 91       	pop	r28
    43b2:	08 95       	ret

000043b4 <debug_asmlink_args16x2>:
    43b4:	cf 93       	push	r28
    43b6:	df 93       	push	r29
    43b8:	00 d0       	rcall	.+0      	; 0x43ba <debug_asmlink_args16x2+0x6>
    43ba:	00 d0       	rcall	.+0      	; 0x43bc <debug_asmlink_args16x2+0x8>
    43bc:	cd b7       	in	r28, 0x3d	; 61
    43be:	de b7       	in	r29, 0x3e	; 62
    43c0:	9a 83       	std	Y+2, r25	; 0x02
    43c2:	89 83       	std	Y+1, r24	; 0x01
    43c4:	7c 83       	std	Y+4, r23	; 0x04
    43c6:	6b 83       	std	Y+3, r22	; 0x03
    43c8:	89 81       	ldd	r24, Y+1	; 0x01
    43ca:	9a 81       	ldd	r25, Y+2	; 0x02
    43cc:	0e 94 02 1a 	call	0x3404	; 0x3404 <debug_printhex_uint16>
    43d0:	8a e3       	ldi	r24, 0x3A	; 58
    43d2:	0e 94 6c 01 	call	0x2d8	; 0x2d8 <debug_putchar>
    43d6:	8b 81       	ldd	r24, Y+3	; 0x03
    43d8:	9c 81       	ldd	r25, Y+4	; 0x04
    43da:	0e 94 02 1a 	call	0x3404	; 0x3404 <debug_printhex_uint16>
    43de:	8a e3       	ldi	r24, 0x3A	; 58
    43e0:	0e 94 6c 01 	call	0x2d8	; 0x2d8 <debug_putchar>
    43e4:	00 00       	nop
    43e6:	0f 90       	pop	r0
    43e8:	0f 90       	pop	r0
    43ea:	0f 90       	pop	r0
    43ec:	0f 90       	pop	r0
    43ee:	df 91       	pop	r29
    43f0:	cf 91       	pop	r28
    43f2:	08 95       	ret

000043f4 <debug_asmlink_args16x3>:
    43f4:	cf 93       	push	r28
    43f6:	df 93       	push	r29
    43f8:	00 d0       	rcall	.+0      	; 0x43fa <debug_asmlink_args16x3+0x6>
    43fa:	00 d0       	rcall	.+0      	; 0x43fc <debug_asmlink_args16x3+0x8>
    43fc:	00 d0       	rcall	.+0      	; 0x43fe <debug_asmlink_args16x3+0xa>
    43fe:	cd b7       	in	r28, 0x3d	; 61
    4400:	de b7       	in	r29, 0x3e	; 62
    4402:	9a 83       	std	Y+2, r25	; 0x02
    4404:	89 83       	std	Y+1, r24	; 0x01
    4406:	7c 83       	std	Y+4, r23	; 0x04
    4408:	6b 83       	std	Y+3, r22	; 0x03
    440a:	5e 83       	std	Y+6, r21	; 0x06
    440c:	4d 83       	std	Y+5, r20	; 0x05
    440e:	89 81       	ldd	r24, Y+1	; 0x01
    4410:	9a 81       	ldd	r25, Y+2	; 0x02
    4412:	0e 94 02 1a 	call	0x3404	; 0x3404 <debug_printhex_uint16>
    4416:	8a e3       	ldi	r24, 0x3A	; 58
    4418:	0e 94 6c 01 	call	0x2d8	; 0x2d8 <debug_putchar>
    441c:	8b 81       	ldd	r24, Y+3	; 0x03
    441e:	9c 81       	ldd	r25, Y+4	; 0x04
    4420:	0e 94 02 1a 	call	0x3404	; 0x3404 <debug_printhex_uint16>
    4424:	8a e3       	ldi	r24, 0x3A	; 58
    4426:	0e 94 6c 01 	call	0x2d8	; 0x2d8 <debug_putchar>
    442a:	8d 81       	ldd	r24, Y+5	; 0x05
    442c:	9e 81       	ldd	r25, Y+6	; 0x06
    442e:	0e 94 02 1a 	call	0x3404	; 0x3404 <debug_printhex_uint16>
    4432:	8a e3       	ldi	r24, 0x3A	; 58
    4434:	0e 94 6c 01 	call	0x2d8	; 0x2d8 <debug_putchar>
    4438:	00 00       	nop
    443a:	26 96       	adiw	r28, 0x06	; 6
    443c:	0f b6       	in	r0, 0x3f	; 63
    443e:	f8 94       	cli
    4440:	de bf       	out	0x3e, r29	; 62
    4442:	0f be       	out	0x3f, r0	; 63
    4444:	cd bf       	out	0x3d, r28	; 61
    4446:	df 91       	pop	r29
    4448:	cf 91       	pop	r28
    444a:	08 95       	ret

0000444c <debug_asmlink_args16x4>:
    444c:	cf 93       	push	r28
    444e:	df 93       	push	r29
    4450:	cd b7       	in	r28, 0x3d	; 61
    4452:	de b7       	in	r29, 0x3e	; 62
    4454:	28 97       	sbiw	r28, 0x08	; 8
    4456:	0f b6       	in	r0, 0x3f	; 63
    4458:	f8 94       	cli
    445a:	de bf       	out	0x3e, r29	; 62
    445c:	0f be       	out	0x3f, r0	; 63
    445e:	cd bf       	out	0x3d, r28	; 61
    4460:	9a 83       	std	Y+2, r25	; 0x02
    4462:	89 83       	std	Y+1, r24	; 0x01
    4464:	7c 83       	std	Y+4, r23	; 0x04
    4466:	6b 83       	std	Y+3, r22	; 0x03
    4468:	5e 83       	std	Y+6, r21	; 0x06
    446a:	4d 83       	std	Y+5, r20	; 0x05
    446c:	38 87       	std	Y+8, r19	; 0x08
    446e:	2f 83       	std	Y+7, r18	; 0x07
    4470:	89 81       	ldd	r24, Y+1	; 0x01
    4472:	9a 81       	ldd	r25, Y+2	; 0x02
    4474:	0e 94 02 1a 	call	0x3404	; 0x3404 <debug_printhex_uint16>
    4478:	8a e3       	ldi	r24, 0x3A	; 58
    447a:	0e 94 6c 01 	call	0x2d8	; 0x2d8 <debug_putchar>
    447e:	8b 81       	ldd	r24, Y+3	; 0x03
    4480:	9c 81       	ldd	r25, Y+4	; 0x04
    4482:	0e 94 02 1a 	call	0x3404	; 0x3404 <debug_printhex_uint16>
    4486:	8a e3       	ldi	r24, 0x3A	; 58
    4488:	0e 94 6c 01 	call	0x2d8	; 0x2d8 <debug_putchar>
    448c:	8d 81       	ldd	r24, Y+5	; 0x05
    448e:	9e 81       	ldd	r25, Y+6	; 0x06
    4490:	0e 94 02 1a 	call	0x3404	; 0x3404 <debug_printhex_uint16>
    4494:	8a e3       	ldi	r24, 0x3A	; 58
    4496:	0e 94 6c 01 	call	0x2d8	; 0x2d8 <debug_putchar>
    449a:	8f 81       	ldd	r24, Y+7	; 0x07
    449c:	98 85       	ldd	r25, Y+8	; 0x08
    449e:	0e 94 02 1a 	call	0x3404	; 0x3404 <debug_printhex_uint16>
    44a2:	8a e3       	ldi	r24, 0x3A	; 58
    44a4:	0e 94 6c 01 	call	0x2d8	; 0x2d8 <debug_putchar>
    44a8:	00 00       	nop
    44aa:	28 96       	adiw	r28, 0x08	; 8
    44ac:	0f b6       	in	r0, 0x3f	; 63
    44ae:	f8 94       	cli
    44b0:	de bf       	out	0x3e, r29	; 62
    44b2:	0f be       	out	0x3f, r0	; 63
    44b4:	cd bf       	out	0x3d, r28	; 61
    44b6:	df 91       	pop	r29
    44b8:	cf 91       	pop	r28
    44ba:	08 95       	ret

000044bc <debug_asmlink_args32x1>:
    44bc:	cf 93       	push	r28
    44be:	df 93       	push	r29
    44c0:	00 d0       	rcall	.+0      	; 0x44c2 <debug_asmlink_args32x1+0x6>
    44c2:	00 d0       	rcall	.+0      	; 0x44c4 <debug_asmlink_args32x1+0x8>
    44c4:	cd b7       	in	r28, 0x3d	; 61
    44c6:	de b7       	in	r29, 0x3e	; 62
    44c8:	69 83       	std	Y+1, r22	; 0x01
    44ca:	7a 83       	std	Y+2, r23	; 0x02
    44cc:	8b 83       	std	Y+3, r24	; 0x03
    44ce:	9c 83       	std	Y+4, r25	; 0x04
    44d0:	89 81       	ldd	r24, Y+1	; 0x01
    44d2:	9a 81       	ldd	r25, Y+2	; 0x02
    44d4:	ab 81       	ldd	r26, Y+3	; 0x03
    44d6:	bc 81       	ldd	r27, Y+4	; 0x04
    44d8:	bc 01       	movw	r22, r24
    44da:	cd 01       	movw	r24, r26
    44dc:	0e 94 23 1a 	call	0x3446	; 0x3446 <debug_printhex_uint32>
    44e0:	8a e3       	ldi	r24, 0x3A	; 58
    44e2:	0e 94 6c 01 	call	0x2d8	; 0x2d8 <debug_putchar>
    44e6:	00 00       	nop
    44e8:	0f 90       	pop	r0
    44ea:	0f 90       	pop	r0
    44ec:	0f 90       	pop	r0
    44ee:	0f 90       	pop	r0
    44f0:	df 91       	pop	r29
    44f2:	cf 91       	pop	r28
    44f4:	08 95       	ret

000044f6 <debug_asmlink_args32x2>:
    44f6:	cf 93       	push	r28
    44f8:	df 93       	push	r29
    44fa:	cd b7       	in	r28, 0x3d	; 61
    44fc:	de b7       	in	r29, 0x3e	; 62
    44fe:	28 97       	sbiw	r28, 0x08	; 8
    4500:	0f b6       	in	r0, 0x3f	; 63
    4502:	f8 94       	cli
    4504:	de bf       	out	0x3e, r29	; 62
    4506:	0f be       	out	0x3f, r0	; 63
    4508:	cd bf       	out	0x3d, r28	; 61
    450a:	69 83       	std	Y+1, r22	; 0x01
    450c:	7a 83       	std	Y+2, r23	; 0x02
    450e:	8b 83       	std	Y+3, r24	; 0x03
    4510:	9c 83       	std	Y+4, r25	; 0x04
    4512:	2d 83       	std	Y+5, r18	; 0x05
    4514:	3e 83       	std	Y+6, r19	; 0x06
    4516:	4f 83       	std	Y+7, r20	; 0x07
    4518:	58 87       	std	Y+8, r21	; 0x08
    451a:	89 81       	ldd	r24, Y+1	; 0x01
    451c:	9a 81       	ldd	r25, Y+2	; 0x02
    451e:	ab 81       	ldd	r26, Y+3	; 0x03
    4520:	bc 81       	ldd	r27, Y+4	; 0x04
    4522:	bc 01       	movw	r22, r24
    4524:	cd 01       	movw	r24, r26
    4526:	0e 94 23 1a 	call	0x3446	; 0x3446 <debug_printhex_uint32>
    452a:	8a e3       	ldi	r24, 0x3A	; 58
    452c:	0e 94 6c 01 	call	0x2d8	; 0x2d8 <debug_putchar>
    4530:	8d 81       	ldd	r24, Y+5	; 0x05
    4532:	9e 81       	ldd	r25, Y+6	; 0x06
    4534:	af 81       	ldd	r26, Y+7	; 0x07
    4536:	b8 85       	ldd	r27, Y+8	; 0x08
    4538:	bc 01       	movw	r22, r24
    453a:	cd 01       	movw	r24, r26
    453c:	0e 94 23 1a 	call	0x3446	; 0x3446 <debug_printhex_uint32>
    4540:	8a e3       	ldi	r24, 0x3A	; 58
    4542:	0e 94 6c 01 	call	0x2d8	; 0x2d8 <debug_putchar>
    4546:	00 00       	nop
    4548:	28 96       	adiw	r28, 0x08	; 8
    454a:	0f b6       	in	r0, 0x3f	; 63
    454c:	f8 94       	cli
    454e:	de bf       	out	0x3e, r29	; 62
    4550:	0f be       	out	0x3f, r0	; 63
    4552:	cd bf       	out	0x3d, r28	; 61
    4554:	df 91       	pop	r29
    4556:	cf 91       	pop	r28
    4558:	08 95       	ret

0000455a <debug_asmlink_args32x3>:
    455a:	ef 92       	push	r14
    455c:	ff 92       	push	r15
    455e:	0f 93       	push	r16
    4560:	1f 93       	push	r17
    4562:	cf 93       	push	r28
    4564:	df 93       	push	r29
    4566:	cd b7       	in	r28, 0x3d	; 61
    4568:	de b7       	in	r29, 0x3e	; 62
    456a:	2c 97       	sbiw	r28, 0x0c	; 12
    456c:	0f b6       	in	r0, 0x3f	; 63
    456e:	f8 94       	cli
    4570:	de bf       	out	0x3e, r29	; 62
    4572:	0f be       	out	0x3f, r0	; 63
    4574:	cd bf       	out	0x3d, r28	; 61
    4576:	69 83       	std	Y+1, r22	; 0x01
    4578:	7a 83       	std	Y+2, r23	; 0x02
    457a:	8b 83       	std	Y+3, r24	; 0x03
    457c:	9c 83       	std	Y+4, r25	; 0x04
    457e:	2d 83       	std	Y+5, r18	; 0x05
    4580:	3e 83       	std	Y+6, r19	; 0x06
    4582:	4f 83       	std	Y+7, r20	; 0x07
    4584:	58 87       	std	Y+8, r21	; 0x08
    4586:	e9 86       	std	Y+9, r14	; 0x09
    4588:	fa 86       	std	Y+10, r15	; 0x0a
    458a:	0b 87       	std	Y+11, r16	; 0x0b
    458c:	1c 87       	std	Y+12, r17	; 0x0c
    458e:	89 81       	ldd	r24, Y+1	; 0x01
    4590:	9a 81       	ldd	r25, Y+2	; 0x02
    4592:	ab 81       	ldd	r26, Y+3	; 0x03
    4594:	bc 81       	ldd	r27, Y+4	; 0x04
    4596:	bc 01       	movw	r22, r24
    4598:	cd 01       	movw	r24, r26
    459a:	0e 94 23 1a 	call	0x3446	; 0x3446 <debug_printhex_uint32>
    459e:	8a e3       	ldi	r24, 0x3A	; 58
    45a0:	0e 94 6c 01 	call	0x2d8	; 0x2d8 <debug_putchar>
    45a4:	8d 81       	ldd	r24, Y+5	; 0x05
    45a6:	9e 81       	ldd	r25, Y+6	; 0x06
    45a8:	af 81       	ldd	r26, Y+7	; 0x07
    45aa:	b8 85       	ldd	r27, Y+8	; 0x08
    45ac:	bc 01       	movw	r22, r24
    45ae:	cd 01       	movw	r24, r26
    45b0:	0e 94 23 1a 	call	0x3446	; 0x3446 <debug_printhex_uint32>
    45b4:	8a e3       	ldi	r24, 0x3A	; 58
    45b6:	0e 94 6c 01 	call	0x2d8	; 0x2d8 <debug_putchar>
    45ba:	89 85       	ldd	r24, Y+9	; 0x09
    45bc:	9a 85       	ldd	r25, Y+10	; 0x0a
    45be:	ab 85       	ldd	r26, Y+11	; 0x0b
    45c0:	bc 85       	ldd	r27, Y+12	; 0x0c
    45c2:	bc 01       	movw	r22, r24
    45c4:	cd 01       	movw	r24, r26
    45c6:	0e 94 23 1a 	call	0x3446	; 0x3446 <debug_printhex_uint32>
    45ca:	8a e3       	ldi	r24, 0x3A	; 58
    45cc:	0e 94 6c 01 	call	0x2d8	; 0x2d8 <debug_putchar>
    45d0:	00 00       	nop
    45d2:	2c 96       	adiw	r28, 0x0c	; 12
    45d4:	0f b6       	in	r0, 0x3f	; 63
    45d6:	f8 94       	cli
    45d8:	de bf       	out	0x3e, r29	; 62
    45da:	0f be       	out	0x3f, r0	; 63
    45dc:	cd bf       	out	0x3d, r28	; 61
    45de:	df 91       	pop	r29
    45e0:	cf 91       	pop	r28
    45e2:	1f 91       	pop	r17
    45e4:	0f 91       	pop	r16
    45e6:	ff 90       	pop	r15
    45e8:	ef 90       	pop	r14
    45ea:	08 95       	ret

000045ec <debug_asmlink_args32x4>:
    45ec:	af 92       	push	r10
    45ee:	bf 92       	push	r11
    45f0:	cf 92       	push	r12
    45f2:	df 92       	push	r13
    45f4:	ef 92       	push	r14
    45f6:	ff 92       	push	r15
    45f8:	0f 93       	push	r16
    45fa:	1f 93       	push	r17
    45fc:	cf 93       	push	r28
    45fe:	df 93       	push	r29
    4600:	cd b7       	in	r28, 0x3d	; 61
    4602:	de b7       	in	r29, 0x3e	; 62
    4604:	60 97       	sbiw	r28, 0x10	; 16
    4606:	0f b6       	in	r0, 0x3f	; 63
    4608:	f8 94       	cli
    460a:	de bf       	out	0x3e, r29	; 62
    460c:	0f be       	out	0x3f, r0	; 63
    460e:	cd bf       	out	0x3d, r28	; 61
    4610:	69 83       	std	Y+1, r22	; 0x01
    4612:	7a 83       	std	Y+2, r23	; 0x02
    4614:	8b 83       	std	Y+3, r24	; 0x03
    4616:	9c 83       	std	Y+4, r25	; 0x04
    4618:	2d 83       	std	Y+5, r18	; 0x05
    461a:	3e 83       	std	Y+6, r19	; 0x06
    461c:	4f 83       	std	Y+7, r20	; 0x07
    461e:	58 87       	std	Y+8, r21	; 0x08
    4620:	e9 86       	std	Y+9, r14	; 0x09
    4622:	fa 86       	std	Y+10, r15	; 0x0a
    4624:	0b 87       	std	Y+11, r16	; 0x0b
    4626:	1c 87       	std	Y+12, r17	; 0x0c
    4628:	ad 86       	std	Y+13, r10	; 0x0d
    462a:	be 86       	std	Y+14, r11	; 0x0e
    462c:	cf 86       	std	Y+15, r12	; 0x0f
    462e:	d8 8a       	std	Y+16, r13	; 0x10
    4630:	89 81       	ldd	r24, Y+1	; 0x01
    4632:	9a 81       	ldd	r25, Y+2	; 0x02
    4634:	ab 81       	ldd	r26, Y+3	; 0x03
    4636:	bc 81       	ldd	r27, Y+4	; 0x04
    4638:	bc 01       	movw	r22, r24
    463a:	cd 01       	movw	r24, r26
    463c:	0e 94 23 1a 	call	0x3446	; 0x3446 <debug_printhex_uint32>
    4640:	8a e3       	ldi	r24, 0x3A	; 58
    4642:	0e 94 6c 01 	call	0x2d8	; 0x2d8 <debug_putchar>
    4646:	8d 81       	ldd	r24, Y+5	; 0x05
    4648:	9e 81       	ldd	r25, Y+6	; 0x06
    464a:	af 81       	ldd	r26, Y+7	; 0x07
    464c:	b8 85       	ldd	r27, Y+8	; 0x08
    464e:	bc 01       	movw	r22, r24
    4650:	cd 01       	movw	r24, r26
    4652:	0e 94 23 1a 	call	0x3446	; 0x3446 <debug_printhex_uint32>
    4656:	8a e3       	ldi	r24, 0x3A	; 58
    4658:	0e 94 6c 01 	call	0x2d8	; 0x2d8 <debug_putchar>
    465c:	89 85       	ldd	r24, Y+9	; 0x09
    465e:	9a 85       	ldd	r25, Y+10	; 0x0a
    4660:	ab 85       	ldd	r26, Y+11	; 0x0b
    4662:	bc 85       	ldd	r27, Y+12	; 0x0c
    4664:	bc 01       	movw	r22, r24
    4666:	cd 01       	movw	r24, r26
    4668:	0e 94 23 1a 	call	0x3446	; 0x3446 <debug_printhex_uint32>
    466c:	8a e3       	ldi	r24, 0x3A	; 58
    466e:	0e 94 6c 01 	call	0x2d8	; 0x2d8 <debug_putchar>
    4672:	8d 85       	ldd	r24, Y+13	; 0x0d
    4674:	9e 85       	ldd	r25, Y+14	; 0x0e
    4676:	af 85       	ldd	r26, Y+15	; 0x0f
    4678:	b8 89       	ldd	r27, Y+16	; 0x10
    467a:	bc 01       	movw	r22, r24
    467c:	cd 01       	movw	r24, r26
    467e:	0e 94 23 1a 	call	0x3446	; 0x3446 <debug_printhex_uint32>
    4682:	8a e3       	ldi	r24, 0x3A	; 58
    4684:	0e 94 6c 01 	call	0x2d8	; 0x2d8 <debug_putchar>
    4688:	00 00       	nop
    468a:	60 96       	adiw	r28, 0x10	; 16
    468c:	0f b6       	in	r0, 0x3f	; 63
    468e:	f8 94       	cli
    4690:	de bf       	out	0x3e, r29	; 62
    4692:	0f be       	out	0x3f, r0	; 63
    4694:	cd bf       	out	0x3d, r28	; 61
    4696:	df 91       	pop	r29
    4698:	cf 91       	pop	r28
    469a:	1f 91       	pop	r17
    469c:	0f 91       	pop	r16
    469e:	ff 90       	pop	r15
    46a0:	ef 90       	pop	r14
    46a2:	df 90       	pop	r13
    46a4:	cf 90       	pop	r12
    46a6:	bf 90       	pop	r11
    46a8:	af 90       	pop	r10
    46aa:	08 95       	ret

000046ac <dprptr>:
    46ac:	cf 93       	push	r28
    46ae:	df 93       	push	r29
    46b0:	00 d0       	rcall	.+0      	; 0x46b2 <dprptr+0x6>
    46b2:	cd b7       	in	r28, 0x3d	; 61
    46b4:	de b7       	in	r29, 0x3e	; 62
    46b6:	9a 83       	std	Y+2, r25	; 0x02
    46b8:	89 83       	std	Y+1, r24	; 0x01
    46ba:	89 81       	ldd	r24, Y+1	; 0x01
    46bc:	9a 81       	ldd	r25, Y+2	; 0x02
    46be:	0e 94 09 1d 	call	0x3a12	; 0x3a12 <debug_printhex_ptr>
    46c2:	00 00       	nop
    46c4:	0f 90       	pop	r0
    46c6:	0f 90       	pop	r0
    46c8:	df 91       	pop	r29
    46ca:	cf 91       	pop	r28
    46cc:	08 95       	ret

000046ce <dprptrln>:
    46ce:	cf 93       	push	r28
    46d0:	df 93       	push	r29
    46d2:	00 d0       	rcall	.+0      	; 0x46d4 <dprptrln+0x6>
    46d4:	cd b7       	in	r28, 0x3d	; 61
    46d6:	de b7       	in	r29, 0x3e	; 62
    46d8:	9a 83       	std	Y+2, r25	; 0x02
    46da:	89 83       	std	Y+1, r24	; 0x01
    46dc:	89 81       	ldd	r24, Y+1	; 0x01
    46de:	9a 81       	ldd	r25, Y+2	; 0x02
    46e0:	0e 94 09 1d 	call	0x3a12	; 0x3a12 <debug_printhex_ptr>
    46e4:	8d e0       	ldi	r24, 0x0D	; 13
    46e6:	0e 94 6c 01 	call	0x2d8	; 0x2d8 <debug_putchar>
    46ea:	8a e0       	ldi	r24, 0x0A	; 10
    46ec:	0e 94 6c 01 	call	0x2d8	; 0x2d8 <debug_putchar>
    46f0:	00 00       	nop
    46f2:	0f 90       	pop	r0
    46f4:	0f 90       	pop	r0
    46f6:	df 91       	pop	r29
    46f8:	cf 91       	pop	r28
    46fa:	08 95       	ret

000046fc <diag_setup>:
    46fc:	cf 93       	push	r28
    46fe:	df 93       	push	r29
    4700:	00 d0       	rcall	.+0      	; 0x4702 <diag_setup+0x6>
    4702:	00 d0       	rcall	.+0      	; 0x4704 <diag_setup+0x8>
    4704:	cd b7       	in	r28, 0x3d	; 61
    4706:	de b7       	in	r29, 0x3e	; 62
    4708:	9a 83       	std	Y+2, r25	; 0x02
    470a:	89 83       	std	Y+1, r24	; 0x01
    470c:	7c 83       	std	Y+4, r23	; 0x04
    470e:	6b 83       	std	Y+3, r22	; 0x03
    4710:	89 81       	ldd	r24, Y+1	; 0x01
    4712:	9a 81       	ldd	r25, Y+2	; 0x02
    4714:	90 93 3c 02 	sts	0x023C, r25	; 0x80023c <current_diag_ops+0x1>
    4718:	80 93 3b 02 	sts	0x023B, r24	; 0x80023b <current_diag_ops>
    471c:	8b 81       	ldd	r24, Y+3	; 0x03
    471e:	9c 81       	ldd	r25, Y+4	; 0x04
    4720:	90 93 3e 02 	sts	0x023E, r25	; 0x80023e <current_diag_priv+0x1>
    4724:	80 93 3d 02 	sts	0x023D, r24	; 0x80023d <current_diag_priv>
    4728:	00 00       	nop
    472a:	0f 90       	pop	r0
    472c:	0f 90       	pop	r0
    472e:	0f 90       	pop	r0
    4730:	0f 90       	pop	r0
    4732:	df 91       	pop	r29
    4734:	cf 91       	pop	r28
    4736:	08 95       	ret

00004738 <diag_putc>:
    4738:	cf 93       	push	r28
    473a:	df 93       	push	r29
    473c:	1f 92       	push	r1
    473e:	cd b7       	in	r28, 0x3d	; 61
    4740:	de b7       	in	r29, 0x3e	; 62
    4742:	89 83       	std	Y+1, r24	; 0x01
    4744:	80 91 3b 02 	lds	r24, 0x023B	; 0x80023b <current_diag_ops>
    4748:	90 91 3c 02 	lds	r25, 0x023C	; 0x80023c <current_diag_ops+0x1>
    474c:	89 2b       	or	r24, r25
    474e:	19 f4       	brne	.+6      	; 0x4756 <diag_putc+0x1e>
    4750:	80 e0       	ldi	r24, 0x00	; 0
    4752:	90 e0       	ldi	r25, 0x00	; 0
    4754:	0e c0       	rjmp	.+28     	; 0x4772 <diag_putc+0x3a>
    4756:	80 91 3b 02 	lds	r24, 0x023B	; 0x80023b <current_diag_ops>
    475a:	90 91 3c 02 	lds	r25, 0x023C	; 0x80023c <current_diag_ops+0x1>
    475e:	fc 01       	movw	r30, r24
    4760:	20 81       	ld	r18, Z
    4762:	31 81       	ldd	r19, Z+1	; 0x01
    4764:	80 91 3d 02 	lds	r24, 0x023D	; 0x80023d <current_diag_priv>
    4768:	90 91 3e 02 	lds	r25, 0x023E	; 0x80023e <current_diag_priv+0x1>
    476c:	69 81       	ldd	r22, Y+1	; 0x01
    476e:	f9 01       	movw	r30, r18
    4770:	09 95       	icall
    4772:	0f 90       	pop	r0
    4774:	df 91       	pop	r29
    4776:	cf 91       	pop	r28
    4778:	08 95       	ret

0000477a <diag_getc>:
    477a:	cf 93       	push	r28
    477c:	df 93       	push	r29
    477e:	cd b7       	in	r28, 0x3d	; 61
    4780:	de b7       	in	r29, 0x3e	; 62
    4782:	80 91 3b 02 	lds	r24, 0x023B	; 0x80023b <current_diag_ops>
    4786:	90 91 3c 02 	lds	r25, 0x023C	; 0x80023c <current_diag_ops+0x1>
    478a:	89 2b       	or	r24, r25
    478c:	19 f4       	brne	.+6      	; 0x4794 <diag_getc+0x1a>
    478e:	80 e0       	ldi	r24, 0x00	; 0
    4790:	90 e0       	ldi	r25, 0x00	; 0
    4792:	0d c0       	rjmp	.+26     	; 0x47ae <diag_getc+0x34>
    4794:	80 91 3b 02 	lds	r24, 0x023B	; 0x80023b <current_diag_ops>
    4798:	90 91 3c 02 	lds	r25, 0x023C	; 0x80023c <current_diag_ops+0x1>
    479c:	fc 01       	movw	r30, r24
    479e:	22 81       	ldd	r18, Z+2	; 0x02
    47a0:	33 81       	ldd	r19, Z+3	; 0x03
    47a2:	80 91 3d 02 	lds	r24, 0x023D	; 0x80023d <current_diag_priv>
    47a6:	90 91 3e 02 	lds	r25, 0x023E	; 0x80023e <current_diag_priv+0x1>
    47aa:	f9 01       	movw	r30, r18
    47ac:	09 95       	icall
    47ae:	df 91       	pop	r29
    47b0:	cf 91       	pop	r28
    47b2:	08 95       	ret

000047b4 <diag_write>:
    47b4:	cf 93       	push	r28
    47b6:	df 93       	push	r29
    47b8:	00 d0       	rcall	.+0      	; 0x47ba <diag_write+0x6>
    47ba:	00 d0       	rcall	.+0      	; 0x47bc <diag_write+0x8>
    47bc:	cd b7       	in	r28, 0x3d	; 61
    47be:	de b7       	in	r29, 0x3e	; 62
    47c0:	9a 83       	std	Y+2, r25	; 0x02
    47c2:	89 83       	std	Y+1, r24	; 0x01
    47c4:	7c 83       	std	Y+4, r23	; 0x04
    47c6:	6b 83       	std	Y+3, r22	; 0x03
    47c8:	80 91 3b 02 	lds	r24, 0x023B	; 0x80023b <current_diag_ops>
    47cc:	90 91 3c 02 	lds	r25, 0x023C	; 0x80023c <current_diag_ops+0x1>
    47d0:	89 2b       	or	r24, r25
    47d2:	19 f4       	brne	.+6      	; 0x47da <diag_write+0x26>
    47d4:	80 e0       	ldi	r24, 0x00	; 0
    47d6:	90 e0       	ldi	r25, 0x00	; 0
    47d8:	11 c0       	rjmp	.+34     	; 0x47fc <diag_write+0x48>
    47da:	80 91 3b 02 	lds	r24, 0x023B	; 0x80023b <current_diag_ops>
    47de:	90 91 3c 02 	lds	r25, 0x023C	; 0x80023c <current_diag_ops+0x1>
    47e2:	fc 01       	movw	r30, r24
    47e4:	24 81       	ldd	r18, Z+4	; 0x04
    47e6:	35 81       	ldd	r19, Z+5	; 0x05
    47e8:	80 91 3d 02 	lds	r24, 0x023D	; 0x80023d <current_diag_priv>
    47ec:	90 91 3e 02 	lds	r25, 0x023E	; 0x80023e <current_diag_priv+0x1>
    47f0:	4b 81       	ldd	r20, Y+3	; 0x03
    47f2:	5c 81       	ldd	r21, Y+4	; 0x04
    47f4:	69 81       	ldd	r22, Y+1	; 0x01
    47f6:	7a 81       	ldd	r23, Y+2	; 0x02
    47f8:	f9 01       	movw	r30, r18
    47fa:	09 95       	icall
    47fc:	0f 90       	pop	r0
    47fe:	0f 90       	pop	r0
    4800:	0f 90       	pop	r0
    4802:	0f 90       	pop	r0
    4804:	df 91       	pop	r29
    4806:	cf 91       	pop	r28
    4808:	08 95       	ret

0000480a <diag_read>:
    480a:	cf 93       	push	r28
    480c:	df 93       	push	r29
    480e:	00 d0       	rcall	.+0      	; 0x4810 <diag_read+0x6>
    4810:	00 d0       	rcall	.+0      	; 0x4812 <diag_read+0x8>
    4812:	cd b7       	in	r28, 0x3d	; 61
    4814:	de b7       	in	r29, 0x3e	; 62
    4816:	9a 83       	std	Y+2, r25	; 0x02
    4818:	89 83       	std	Y+1, r24	; 0x01
    481a:	7c 83       	std	Y+4, r23	; 0x04
    481c:	6b 83       	std	Y+3, r22	; 0x03
    481e:	80 91 3b 02 	lds	r24, 0x023B	; 0x80023b <current_diag_ops>
    4822:	90 91 3c 02 	lds	r25, 0x023C	; 0x80023c <current_diag_ops+0x1>
    4826:	89 2b       	or	r24, r25
    4828:	19 f4       	brne	.+6      	; 0x4830 <diag_read+0x26>
    482a:	80 e0       	ldi	r24, 0x00	; 0
    482c:	90 e0       	ldi	r25, 0x00	; 0
    482e:	11 c0       	rjmp	.+34     	; 0x4852 <diag_read+0x48>
    4830:	80 91 3b 02 	lds	r24, 0x023B	; 0x80023b <current_diag_ops>
    4834:	90 91 3c 02 	lds	r25, 0x023C	; 0x80023c <current_diag_ops+0x1>
    4838:	fc 01       	movw	r30, r24
    483a:	26 81       	ldd	r18, Z+6	; 0x06
    483c:	37 81       	ldd	r19, Z+7	; 0x07
    483e:	80 91 3d 02 	lds	r24, 0x023D	; 0x80023d <current_diag_priv>
    4842:	90 91 3e 02 	lds	r25, 0x023E	; 0x80023e <current_diag_priv+0x1>
    4846:	4b 81       	ldd	r20, Y+3	; 0x03
    4848:	5c 81       	ldd	r21, Y+4	; 0x04
    484a:	69 81       	ldd	r22, Y+1	; 0x01
    484c:	7a 81       	ldd	r23, Y+2	; 0x02
    484e:	f9 01       	movw	r30, r18
    4850:	09 95       	icall
    4852:	0f 90       	pop	r0
    4854:	0f 90       	pop	r0
    4856:	0f 90       	pop	r0
    4858:	0f 90       	pop	r0
    485a:	df 91       	pop	r29
    485c:	cf 91       	pop	r28
    485e:	08 95       	ret

00004860 <diag_write_common>:
    4860:	cf 93       	push	r28
    4862:	df 93       	push	r29
    4864:	cd b7       	in	r28, 0x3d	; 61
    4866:	de b7       	in	r29, 0x3e	; 62
    4868:	28 97       	sbiw	r28, 0x08	; 8
    486a:	0f b6       	in	r0, 0x3f	; 63
    486c:	f8 94       	cli
    486e:	de bf       	out	0x3e, r29	; 62
    4870:	0f be       	out	0x3f, r0	; 63
    4872:	cd bf       	out	0x3d, r28	; 61
    4874:	9c 83       	std	Y+4, r25	; 0x04
    4876:	8b 83       	std	Y+3, r24	; 0x03
    4878:	7e 83       	std	Y+6, r23	; 0x06
    487a:	6d 83       	std	Y+5, r22	; 0x05
    487c:	58 87       	std	Y+8, r21	; 0x08
    487e:	4f 83       	std	Y+7, r20	; 0x07
    4880:	80 91 3b 02 	lds	r24, 0x023B	; 0x80023b <current_diag_ops>
    4884:	90 91 3c 02 	lds	r25, 0x023C	; 0x80023c <current_diag_ops+0x1>
    4888:	89 2b       	or	r24, r25
    488a:	19 f4       	brne	.+6      	; 0x4892 <diag_write_common+0x32>
    488c:	80 e0       	ldi	r24, 0x00	; 0
    488e:	90 e0       	ldi	r25, 0x00	; 0
    4890:	1b c0       	rjmp	.+54     	; 0x48c8 <diag_write_common+0x68>
    4892:	8d 81       	ldd	r24, Y+5	; 0x05
    4894:	9e 81       	ldd	r25, Y+6	; 0x06
    4896:	9a 83       	std	Y+2, r25	; 0x02
    4898:	89 83       	std	Y+1, r24	; 0x01
    489a:	10 c0       	rjmp	.+32     	; 0x48bc <diag_write_common+0x5c>
    489c:	89 81       	ldd	r24, Y+1	; 0x01
    489e:	9a 81       	ldd	r25, Y+2	; 0x02
    48a0:	9c 01       	movw	r18, r24
    48a2:	2f 5f       	subi	r18, 0xFF	; 255
    48a4:	3f 4f       	sbci	r19, 0xFF	; 255
    48a6:	3a 83       	std	Y+2, r19	; 0x02
    48a8:	29 83       	std	Y+1, r18	; 0x01
    48aa:	fc 01       	movw	r30, r24
    48ac:	80 81       	ld	r24, Z
    48ae:	0e 94 9c 23 	call	0x4738	; 0x4738 <diag_putc>
    48b2:	8f 81       	ldd	r24, Y+7	; 0x07
    48b4:	98 85       	ldd	r25, Y+8	; 0x08
    48b6:	01 97       	sbiw	r24, 0x01	; 1
    48b8:	98 87       	std	Y+8, r25	; 0x08
    48ba:	8f 83       	std	Y+7, r24	; 0x07
    48bc:	8f 81       	ldd	r24, Y+7	; 0x07
    48be:	98 85       	ldd	r25, Y+8	; 0x08
    48c0:	89 2b       	or	r24, r25
    48c2:	61 f7       	brne	.-40     	; 0x489c <diag_write_common+0x3c>
    48c4:	80 e0       	ldi	r24, 0x00	; 0
    48c6:	90 e0       	ldi	r25, 0x00	; 0
    48c8:	28 96       	adiw	r28, 0x08	; 8
    48ca:	0f b6       	in	r0, 0x3f	; 63
    48cc:	f8 94       	cli
    48ce:	de bf       	out	0x3e, r29	; 62
    48d0:	0f be       	out	0x3f, r0	; 63
    48d2:	cd bf       	out	0x3d, r28	; 61
    48d4:	df 91       	pop	r29
    48d6:	cf 91       	pop	r28
    48d8:	08 95       	ret

000048da <diag_read_common>:
    48da:	0f 93       	push	r16
    48dc:	1f 93       	push	r17
    48de:	cf 93       	push	r28
    48e0:	df 93       	push	r29
    48e2:	cd b7       	in	r28, 0x3d	; 61
    48e4:	de b7       	in	r29, 0x3e	; 62
    48e6:	28 97       	sbiw	r28, 0x08	; 8
    48e8:	0f b6       	in	r0, 0x3f	; 63
    48ea:	f8 94       	cli
    48ec:	de bf       	out	0x3e, r29	; 62
    48ee:	0f be       	out	0x3f, r0	; 63
    48f0:	cd bf       	out	0x3d, r28	; 61
    48f2:	9c 83       	std	Y+4, r25	; 0x04
    48f4:	8b 83       	std	Y+3, r24	; 0x03
    48f6:	7e 83       	std	Y+6, r23	; 0x06
    48f8:	6d 83       	std	Y+5, r22	; 0x05
    48fa:	58 87       	std	Y+8, r21	; 0x08
    48fc:	4f 83       	std	Y+7, r20	; 0x07
    48fe:	80 91 3b 02 	lds	r24, 0x023B	; 0x80023b <current_diag_ops>
    4902:	90 91 3c 02 	lds	r25, 0x023C	; 0x80023c <current_diag_ops+0x1>
    4906:	89 2b       	or	r24, r25
    4908:	19 f4       	brne	.+6      	; 0x4910 <diag_read_common+0x36>
    490a:	80 e0       	ldi	r24, 0x00	; 0
    490c:	90 e0       	ldi	r25, 0x00	; 0
    490e:	1a c0       	rjmp	.+52     	; 0x4944 <diag_read_common+0x6a>
    4910:	8d 81       	ldd	r24, Y+5	; 0x05
    4912:	9e 81       	ldd	r25, Y+6	; 0x06
    4914:	9a 83       	std	Y+2, r25	; 0x02
    4916:	89 83       	std	Y+1, r24	; 0x01
    4918:	0f c0       	rjmp	.+30     	; 0x4938 <diag_read_common+0x5e>
    491a:	09 81       	ldd	r16, Y+1	; 0x01
    491c:	1a 81       	ldd	r17, Y+2	; 0x02
    491e:	c8 01       	movw	r24, r16
    4920:	01 96       	adiw	r24, 0x01	; 1
    4922:	9a 83       	std	Y+2, r25	; 0x02
    4924:	89 83       	std	Y+1, r24	; 0x01
    4926:	0e 94 bd 23 	call	0x477a	; 0x477a <diag_getc>
    492a:	f8 01       	movw	r30, r16
    492c:	80 83       	st	Z, r24
    492e:	8f 81       	ldd	r24, Y+7	; 0x07
    4930:	98 85       	ldd	r25, Y+8	; 0x08
    4932:	01 97       	sbiw	r24, 0x01	; 1
    4934:	98 87       	std	Y+8, r25	; 0x08
    4936:	8f 83       	std	Y+7, r24	; 0x07
    4938:	8f 81       	ldd	r24, Y+7	; 0x07
    493a:	98 85       	ldd	r25, Y+8	; 0x08
    493c:	89 2b       	or	r24, r25
    493e:	69 f7       	brne	.-38     	; 0x491a <diag_read_common+0x40>
    4940:	80 e0       	ldi	r24, 0x00	; 0
    4942:	90 e0       	ldi	r25, 0x00	; 0
    4944:	28 96       	adiw	r28, 0x08	; 8
    4946:	0f b6       	in	r0, 0x3f	; 63
    4948:	f8 94       	cli
    494a:	de bf       	out	0x3e, r29	; 62
    494c:	0f be       	out	0x3f, r0	; 63
    494e:	cd bf       	out	0x3d, r28	; 61
    4950:	df 91       	pop	r29
    4952:	cf 91       	pop	r28
    4954:	1f 91       	pop	r17
    4956:	0f 91       	pop	r16
    4958:	08 95       	ret

0000495a <avr_gpio_set>:
    495a:	cf 93       	push	r28
    495c:	df 93       	push	r29
    495e:	00 d0       	rcall	.+0      	; 0x4960 <avr_gpio_set+0x6>
    4960:	00 d0       	rcall	.+0      	; 0x4962 <avr_gpio_set+0x8>
    4962:	1f 92       	push	r1
    4964:	cd b7       	in	r28, 0x3d	; 61
    4966:	de b7       	in	r29, 0x3e	; 62
    4968:	9a 83       	std	Y+2, r25	; 0x02
    496a:	89 83       	std	Y+1, r24	; 0x01
    496c:	7c 83       	std	Y+4, r23	; 0x04
    496e:	6b 83       	std	Y+3, r22	; 0x03
    4970:	4d 83       	std	Y+5, r20	; 0x05
    4972:	8d 81       	ldd	r24, Y+5	; 0x05
    4974:	88 23       	and	r24, r24
    4976:	61 f0       	breq	.+24     	; 0x4990 <avr_gpio_set+0x36>
    4978:	89 81       	ldd	r24, Y+1	; 0x01
    497a:	9a 81       	ldd	r25, Y+2	; 0x02
    497c:	fc 01       	movw	r30, r24
    497e:	92 81       	ldd	r25, Z+2	; 0x02
    4980:	8b 81       	ldd	r24, Y+3	; 0x03
    4982:	29 2f       	mov	r18, r25
    4984:	28 2b       	or	r18, r24
    4986:	89 81       	ldd	r24, Y+1	; 0x01
    4988:	9a 81       	ldd	r25, Y+2	; 0x02
    498a:	fc 01       	movw	r30, r24
    498c:	22 83       	std	Z+2, r18	; 0x02
    498e:	0c c0       	rjmp	.+24     	; 0x49a8 <avr_gpio_set+0x4e>
    4990:	89 81       	ldd	r24, Y+1	; 0x01
    4992:	9a 81       	ldd	r25, Y+2	; 0x02
    4994:	fc 01       	movw	r30, r24
    4996:	92 81       	ldd	r25, Z+2	; 0x02
    4998:	8b 81       	ldd	r24, Y+3	; 0x03
    499a:	80 95       	com	r24
    499c:	29 2f       	mov	r18, r25
    499e:	28 23       	and	r18, r24
    49a0:	89 81       	ldd	r24, Y+1	; 0x01
    49a2:	9a 81       	ldd	r25, Y+2	; 0x02
    49a4:	fc 01       	movw	r30, r24
    49a6:	22 83       	std	Z+2, r18	; 0x02
    49a8:	80 e0       	ldi	r24, 0x00	; 0
    49aa:	90 e0       	ldi	r25, 0x00	; 0
    49ac:	0f 90       	pop	r0
    49ae:	0f 90       	pop	r0
    49b0:	0f 90       	pop	r0
    49b2:	0f 90       	pop	r0
    49b4:	0f 90       	pop	r0
    49b6:	df 91       	pop	r29
    49b8:	cf 91       	pop	r28
    49ba:	08 95       	ret

000049bc <avr_gpio_get>:
    49bc:	cf 93       	push	r28
    49be:	df 93       	push	r29
    49c0:	00 d0       	rcall	.+0      	; 0x49c2 <avr_gpio_get+0x6>
    49c2:	00 d0       	rcall	.+0      	; 0x49c4 <avr_gpio_get+0x8>
    49c4:	cd b7       	in	r28, 0x3d	; 61
    49c6:	de b7       	in	r29, 0x3e	; 62
    49c8:	9a 83       	std	Y+2, r25	; 0x02
    49ca:	89 83       	std	Y+1, r24	; 0x01
    49cc:	7c 83       	std	Y+4, r23	; 0x04
    49ce:	6b 83       	std	Y+3, r22	; 0x03
    49d0:	89 81       	ldd	r24, Y+1	; 0x01
    49d2:	9a 81       	ldd	r25, Y+2	; 0x02
    49d4:	fc 01       	movw	r30, r24
    49d6:	80 81       	ld	r24, Z
    49d8:	88 2f       	mov	r24, r24
    49da:	90 e0       	ldi	r25, 0x00	; 0
    49dc:	0f 90       	pop	r0
    49de:	0f 90       	pop	r0
    49e0:	0f 90       	pop	r0
    49e2:	0f 90       	pop	r0
    49e4:	df 91       	pop	r29
    49e6:	cf 91       	pop	r28
    49e8:	08 95       	ret

000049ea <avr_gpio_toggle>:
    49ea:	cf 93       	push	r28
    49ec:	df 93       	push	r29
    49ee:	00 d0       	rcall	.+0      	; 0x49f0 <avr_gpio_toggle+0x6>
    49f0:	00 d0       	rcall	.+0      	; 0x49f2 <avr_gpio_toggle+0x8>
    49f2:	cd b7       	in	r28, 0x3d	; 61
    49f4:	de b7       	in	r29, 0x3e	; 62
    49f6:	9a 83       	std	Y+2, r25	; 0x02
    49f8:	89 83       	std	Y+1, r24	; 0x01
    49fa:	7c 83       	std	Y+4, r23	; 0x04
    49fc:	6b 83       	std	Y+3, r22	; 0x03
    49fe:	2b 81       	ldd	r18, Y+3	; 0x03
    4a00:	89 81       	ldd	r24, Y+1	; 0x01
    4a02:	9a 81       	ldd	r25, Y+2	; 0x02
    4a04:	fc 01       	movw	r30, r24
    4a06:	20 83       	st	Z, r18
    4a08:	80 e0       	ldi	r24, 0x00	; 0
    4a0a:	90 e0       	ldi	r25, 0x00	; 0
    4a0c:	0f 90       	pop	r0
    4a0e:	0f 90       	pop	r0
    4a10:	0f 90       	pop	r0
    4a12:	0f 90       	pop	r0
    4a14:	df 91       	pop	r29
    4a16:	cf 91       	pop	r28
    4a18:	08 95       	ret

00004a1a <avr_gpio_mode>:
    4a1a:	cf 93       	push	r28
    4a1c:	df 93       	push	r29
    4a1e:	cd b7       	in	r28, 0x3d	; 61
    4a20:	de b7       	in	r29, 0x3e	; 62
    4a22:	a0 97       	sbiw	r28, 0x20	; 32
    4a24:	0f b6       	in	r0, 0x3f	; 63
    4a26:	f8 94       	cli
    4a28:	de bf       	out	0x3e, r29	; 62
    4a2a:	0f be       	out	0x3f, r0	; 63
    4a2c:	cd bf       	out	0x3d, r28	; 61
    4a2e:	9a 8f       	std	Y+26, r25	; 0x1a
    4a30:	89 8f       	std	Y+25, r24	; 0x19
    4a32:	7c 8f       	std	Y+28, r23	; 0x1c
    4a34:	6b 8f       	std	Y+27, r22	; 0x1b
    4a36:	2d 8f       	std	Y+29, r18	; 0x1d
    4a38:	3e 8f       	std	Y+30, r19	; 0x1e
    4a3a:	4f 8f       	std	Y+31, r20	; 0x1f
    4a3c:	58 a3       	std	Y+32, r21	; 0x20
    4a3e:	8d 8d       	ldd	r24, Y+29	; 0x1d
    4a40:	9e 8d       	ldd	r25, Y+30	; 0x1e
    4a42:	af 8d       	ldd	r26, Y+31	; 0x1f
    4a44:	b8 a1       	ldd	r27, Y+32	; 0x20
    4a46:	88 27       	eor	r24, r24
    4a48:	aa 27       	eor	r26, r26
    4a4a:	bb 27       	eor	r27, r27
    4a4c:	89 2b       	or	r24, r25
    4a4e:	8a 2b       	or	r24, r26
    4a50:	8b 2b       	or	r24, r27
    4a52:	71 f0       	breq	.+28     	; 0x4a70 <avr_gpio_mode+0x56>
    4a54:	8d 8d       	ldd	r24, Y+29	; 0x1d
    4a56:	9e 8d       	ldd	r25, Y+30	; 0x1e
    4a58:	af 8d       	ldd	r26, Y+31	; 0x1f
    4a5a:	b8 a1       	ldd	r27, Y+32	; 0x20
    4a5c:	99 27       	eor	r25, r25
    4a5e:	aa 27       	eor	r26, r26
    4a60:	bb 27       	eor	r27, r27
    4a62:	89 2b       	or	r24, r25
    4a64:	8a 2b       	or	r24, r26
    4a66:	8b 2b       	or	r24, r27
    4a68:	19 f0       	breq	.+6      	; 0x4a70 <avr_gpio_mode+0x56>
    4a6a:	8f ef       	ldi	r24, 0xFF	; 255
    4a6c:	9f ef       	ldi	r25, 0xFF	; 255
    4a6e:	b3 c0       	rjmp	.+358    	; 0x4bd6 <avr_gpio_mode+0x1bc>
    4a70:	8d 8d       	ldd	r24, Y+29	; 0x1d
    4a72:	9e 8d       	ldd	r25, Y+30	; 0x1e
    4a74:	af 8d       	ldd	r26, Y+31	; 0x1f
    4a76:	b8 a1       	ldd	r27, Y+32	; 0x20
    4a78:	81 70       	andi	r24, 0x01	; 1
    4a7a:	99 27       	eor	r25, r25
    4a7c:	aa 27       	eor	r26, r26
    4a7e:	bb 27       	eor	r27, r27
    4a80:	89 2b       	or	r24, r25
    4a82:	8a 2b       	or	r24, r26
    4a84:	8b 2b       	or	r24, r27
    4a86:	09 f4       	brne	.+2      	; 0x4a8a <avr_gpio_mode+0x70>
    4a88:	8c c0       	rjmp	.+280    	; 0x4ba2 <avr_gpio_mode+0x188>
    4a8a:	89 8d       	ldd	r24, Y+25	; 0x19
    4a8c:	9a 8d       	ldd	r25, Y+26	; 0x1a
    4a8e:	fc 01       	movw	r30, r24
    4a90:	91 81       	ldd	r25, Z+1	; 0x01
    4a92:	8b 8d       	ldd	r24, Y+27	; 0x1b
    4a94:	80 95       	com	r24
    4a96:	29 2f       	mov	r18, r25
    4a98:	28 23       	and	r18, r24
    4a9a:	89 8d       	ldd	r24, Y+25	; 0x19
    4a9c:	9a 8d       	ldd	r25, Y+26	; 0x1a
    4a9e:	fc 01       	movw	r30, r24
    4aa0:	21 83       	std	Z+1, r18	; 0x01
    4aa2:	8d 8d       	ldd	r24, Y+29	; 0x1d
    4aa4:	9e 8d       	ldd	r25, Y+30	; 0x1e
    4aa6:	af 8d       	ldd	r26, Y+31	; 0x1f
    4aa8:	b8 a1       	ldd	r27, Y+32	; 0x20
    4aaa:	80 71       	andi	r24, 0x10	; 16
    4aac:	99 27       	eor	r25, r25
    4aae:	aa 27       	eor	r26, r26
    4ab0:	bb 27       	eor	r27, r27
    4ab2:	89 2b       	or	r24, r25
    4ab4:	8a 2b       	or	r24, r26
    4ab6:	8b 2b       	or	r24, r27
    4ab8:	a1 f0       	breq	.+40     	; 0x4ae2 <avr_gpio_mode+0xc8>
    4aba:	26 e0       	ldi	r18, 0x06	; 6
    4abc:	e9 e0       	ldi	r30, 0x09	; 9
    4abe:	f2 e0       	ldi	r31, 0x02	; 2
    4ac0:	ce 01       	movw	r24, r28
    4ac2:	01 96       	adiw	r24, 0x01	; 1
    4ac4:	dc 01       	movw	r26, r24
    4ac6:	01 90       	ld	r0, Z+
    4ac8:	0d 92       	st	X+, r0
    4aca:	2a 95       	dec	r18
    4acc:	e1 f7       	brne	.-8      	; 0x4ac6 <avr_gpio_mode+0xac>
    4ace:	49 81       	ldd	r20, Y+1	; 0x01
    4ad0:	5a 81       	ldd	r21, Y+2	; 0x02
    4ad2:	6b 81       	ldd	r22, Y+3	; 0x03
    4ad4:	7c 81       	ldd	r23, Y+4	; 0x04
    4ad6:	8d 81       	ldd	r24, Y+5	; 0x05
    4ad8:	9e 81       	ldd	r25, Y+6	; 0x06
    4ada:	0e 94 bf 0c 	call	0x197e	; 0x197e <debug_print_location>
    4ade:	0e 94 43 30 	call	0x6086	; 0x6086 <bug_impl>
    4ae2:	8d 8d       	ldd	r24, Y+29	; 0x1d
    4ae4:	9e 8d       	ldd	r25, Y+30	; 0x1e
    4ae6:	af 8d       	ldd	r26, Y+31	; 0x1f
    4ae8:	b8 a1       	ldd	r27, Y+32	; 0x20
    4aea:	82 70       	andi	r24, 0x02	; 2
    4aec:	99 27       	eor	r25, r25
    4aee:	aa 27       	eor	r26, r26
    4af0:	bb 27       	eor	r27, r27
    4af2:	89 2b       	or	r24, r25
    4af4:	8a 2b       	or	r24, r26
    4af6:	8b 2b       	or	r24, r27
    4af8:	99 f0       	breq	.+38     	; 0x4b20 <avr_gpio_mode+0x106>
    4afa:	86 e0       	ldi	r24, 0x06	; 6
    4afc:	ef e0       	ldi	r30, 0x0F	; 15
    4afe:	f2 e0       	ldi	r31, 0x02	; 2
    4b00:	de 01       	movw	r26, r28
    4b02:	17 96       	adiw	r26, 0x07	; 7
    4b04:	01 90       	ld	r0, Z+
    4b06:	0d 92       	st	X+, r0
    4b08:	8a 95       	dec	r24
    4b0a:	e1 f7       	brne	.-8      	; 0x4b04 <avr_gpio_mode+0xea>
    4b0c:	4f 81       	ldd	r20, Y+7	; 0x07
    4b0e:	58 85       	ldd	r21, Y+8	; 0x08
    4b10:	69 85       	ldd	r22, Y+9	; 0x09
    4b12:	7a 85       	ldd	r23, Y+10	; 0x0a
    4b14:	8b 85       	ldd	r24, Y+11	; 0x0b
    4b16:	9c 85       	ldd	r25, Y+12	; 0x0c
    4b18:	0e 94 bf 0c 	call	0x197e	; 0x197e <debug_print_location>
    4b1c:	0e 94 43 30 	call	0x6086	; 0x6086 <bug_impl>
    4b20:	8d 8d       	ldd	r24, Y+29	; 0x1d
    4b22:	9e 8d       	ldd	r25, Y+30	; 0x1e
    4b24:	af 8d       	ldd	r26, Y+31	; 0x1f
    4b26:	b8 a1       	ldd	r27, Y+32	; 0x20
    4b28:	84 70       	andi	r24, 0x04	; 4
    4b2a:	99 27       	eor	r25, r25
    4b2c:	aa 27       	eor	r26, r26
    4b2e:	bb 27       	eor	r27, r27
    4b30:	89 2b       	or	r24, r25
    4b32:	8a 2b       	or	r24, r26
    4b34:	8b 2b       	or	r24, r27
    4b36:	99 f0       	breq	.+38     	; 0x4b5e <avr_gpio_mode+0x144>
    4b38:	86 e0       	ldi	r24, 0x06	; 6
    4b3a:	e5 e1       	ldi	r30, 0x15	; 21
    4b3c:	f2 e0       	ldi	r31, 0x02	; 2
    4b3e:	de 01       	movw	r26, r28
    4b40:	1d 96       	adiw	r26, 0x0d	; 13
    4b42:	01 90       	ld	r0, Z+
    4b44:	0d 92       	st	X+, r0
    4b46:	8a 95       	dec	r24
    4b48:	e1 f7       	brne	.-8      	; 0x4b42 <avr_gpio_mode+0x128>
    4b4a:	4d 85       	ldd	r20, Y+13	; 0x0d
    4b4c:	5e 85       	ldd	r21, Y+14	; 0x0e
    4b4e:	6f 85       	ldd	r22, Y+15	; 0x0f
    4b50:	78 89       	ldd	r23, Y+16	; 0x10
    4b52:	89 89       	ldd	r24, Y+17	; 0x11
    4b54:	9a 89       	ldd	r25, Y+18	; 0x12
    4b56:	0e 94 bf 0c 	call	0x197e	; 0x197e <debug_print_location>
    4b5a:	0e 94 43 30 	call	0x6086	; 0x6086 <bug_impl>
    4b5e:	8d 8d       	ldd	r24, Y+29	; 0x1d
    4b60:	9e 8d       	ldd	r25, Y+30	; 0x1e
    4b62:	af 8d       	ldd	r26, Y+31	; 0x1f
    4b64:	b8 a1       	ldd	r27, Y+32	; 0x20
    4b66:	88 70       	andi	r24, 0x08	; 8
    4b68:	99 27       	eor	r25, r25
    4b6a:	aa 27       	eor	r26, r26
    4b6c:	bb 27       	eor	r27, r27
    4b6e:	89 2b       	or	r24, r25
    4b70:	8a 2b       	or	r24, r26
    4b72:	8b 2b       	or	r24, r27
    4b74:	99 f0       	breq	.+38     	; 0x4b9c <avr_gpio_mode+0x182>
    4b76:	86 e0       	ldi	r24, 0x06	; 6
    4b78:	eb e1       	ldi	r30, 0x1B	; 27
    4b7a:	f2 e0       	ldi	r31, 0x02	; 2
    4b7c:	de 01       	movw	r26, r28
    4b7e:	53 96       	adiw	r26, 0x13	; 19
    4b80:	01 90       	ld	r0, Z+
    4b82:	0d 92       	st	X+, r0
    4b84:	8a 95       	dec	r24
    4b86:	e1 f7       	brne	.-8      	; 0x4b80 <avr_gpio_mode+0x166>
    4b88:	4b 89       	ldd	r20, Y+19	; 0x13
    4b8a:	5c 89       	ldd	r21, Y+20	; 0x14
    4b8c:	6d 89       	ldd	r22, Y+21	; 0x15
    4b8e:	7e 89       	ldd	r23, Y+22	; 0x16
    4b90:	8f 89       	ldd	r24, Y+23	; 0x17
    4b92:	98 8d       	ldd	r25, Y+24	; 0x18
    4b94:	0e 94 bf 0c 	call	0x197e	; 0x197e <debug_print_location>
    4b98:	0e 94 43 30 	call	0x6086	; 0x6086 <bug_impl>
    4b9c:	80 e0       	ldi	r24, 0x00	; 0
    4b9e:	90 e0       	ldi	r25, 0x00	; 0
    4ba0:	1a c0       	rjmp	.+52     	; 0x4bd6 <avr_gpio_mode+0x1bc>
    4ba2:	8d 8d       	ldd	r24, Y+29	; 0x1d
    4ba4:	9e 8d       	ldd	r25, Y+30	; 0x1e
    4ba6:	af 8d       	ldd	r26, Y+31	; 0x1f
    4ba8:	b8 a1       	ldd	r27, Y+32	; 0x20
    4baa:	88 27       	eor	r24, r24
    4bac:	91 70       	andi	r25, 0x01	; 1
    4bae:	aa 27       	eor	r26, r26
    4bb0:	bb 27       	eor	r27, r27
    4bb2:	89 2b       	or	r24, r25
    4bb4:	8a 2b       	or	r24, r26
    4bb6:	8b 2b       	or	r24, r27
    4bb8:	71 f0       	breq	.+28     	; 0x4bd6 <avr_gpio_mode+0x1bc>
    4bba:	89 8d       	ldd	r24, Y+25	; 0x19
    4bbc:	9a 8d       	ldd	r25, Y+26	; 0x1a
    4bbe:	fc 01       	movw	r30, r24
    4bc0:	91 81       	ldd	r25, Z+1	; 0x01
    4bc2:	8b 8d       	ldd	r24, Y+27	; 0x1b
    4bc4:	29 2f       	mov	r18, r25
    4bc6:	28 2b       	or	r18, r24
    4bc8:	89 8d       	ldd	r24, Y+25	; 0x19
    4bca:	9a 8d       	ldd	r25, Y+26	; 0x1a
    4bcc:	fc 01       	movw	r30, r24
    4bce:	21 83       	std	Z+1, r18	; 0x01
    4bd0:	80 e0       	ldi	r24, 0x00	; 0
    4bd2:	90 e0       	ldi	r25, 0x00	; 0
    4bd4:	00 c0       	rjmp	.+0      	; 0x4bd6 <avr_gpio_mode+0x1bc>
    4bd6:	a0 96       	adiw	r28, 0x20	; 32
    4bd8:	0f b6       	in	r0, 0x3f	; 63
    4bda:	f8 94       	cli
    4bdc:	de bf       	out	0x3e, r29	; 62
    4bde:	0f be       	out	0x3f, r0	; 63
    4be0:	cd bf       	out	0x3d, r28	; 61
    4be2:	df 91       	pop	r29
    4be4:	cf 91       	pop	r28
    4be6:	08 95       	ret

00004be8 <irqs_save>:
    4be8:	cf 93       	push	r28
    4bea:	df 93       	push	r29
    4bec:	1f 92       	push	r1
    4bee:	cd b7       	in	r28, 0x3d	; 61
    4bf0:	de b7       	in	r29, 0x3e	; 62
    4bf2:	8f e5       	ldi	r24, 0x5F	; 95
    4bf4:	90 e0       	ldi	r25, 0x00	; 0
    4bf6:	fc 01       	movw	r30, r24
    4bf8:	80 81       	ld	r24, Z
    4bfa:	89 83       	std	Y+1, r24	; 0x01
    4bfc:	f8 94       	cli
    4bfe:	89 81       	ldd	r24, Y+1	; 0x01
    4c00:	0f 90       	pop	r0
    4c02:	df 91       	pop	r29
    4c04:	cf 91       	pop	r28
    4c06:	08 95       	ret

00004c08 <irqs_restore>:
    4c08:	cf 93       	push	r28
    4c0a:	df 93       	push	r29
    4c0c:	1f 92       	push	r1
    4c0e:	cd b7       	in	r28, 0x3d	; 61
    4c10:	de b7       	in	r29, 0x3e	; 62
    4c12:	89 83       	std	Y+1, r24	; 0x01
    4c14:	8f e5       	ldi	r24, 0x5F	; 95
    4c16:	90 e0       	ldi	r25, 0x00	; 0
    4c18:	29 81       	ldd	r18, Y+1	; 0x01
    4c1a:	fc 01       	movw	r30, r24
    4c1c:	20 83       	st	Z, r18
    4c1e:	00 00       	nop
    4c20:	0f 90       	pop	r0
    4c22:	df 91       	pop	r29
    4c24:	cf 91       	pop	r28
    4c26:	08 95       	ret

00004c28 <usart0_diag_putchar>:
    4c28:	cf 93       	push	r28
    4c2a:	df 93       	push	r29
    4c2c:	00 d0       	rcall	.+0      	; 0x4c2e <usart0_diag_putchar+0x6>
    4c2e:	00 d0       	rcall	.+0      	; 0x4c30 <usart0_diag_putchar+0x8>
    4c30:	cd b7       	in	r28, 0x3d	; 61
    4c32:	de b7       	in	r29, 0x3e	; 62
    4c34:	9b 83       	std	Y+3, r25	; 0x03
    4c36:	8a 83       	std	Y+2, r24	; 0x02
    4c38:	6c 83       	std	Y+4, r22	; 0x04
    4c3a:	0e 94 f4 25 	call	0x4be8	; 0x4be8 <irqs_save>
    4c3e:	89 83       	std	Y+1, r24	; 0x01
    4c40:	80 ec       	ldi	r24, 0xC0	; 192
    4c42:	90 e0       	ldi	r25, 0x00	; 0
    4c44:	20 ec       	ldi	r18, 0xC0	; 192
    4c46:	30 e0       	ldi	r19, 0x00	; 0
    4c48:	f9 01       	movw	r30, r18
    4c4a:	20 81       	ld	r18, Z
    4c4c:	20 64       	ori	r18, 0x40	; 64
    4c4e:	fc 01       	movw	r30, r24
    4c50:	20 83       	st	Z, r18
    4c52:	00 00       	nop
    4c54:	80 ec       	ldi	r24, 0xC0	; 192
    4c56:	90 e0       	ldi	r25, 0x00	; 0
    4c58:	fc 01       	movw	r30, r24
    4c5a:	80 81       	ld	r24, Z
    4c5c:	88 2f       	mov	r24, r24
    4c5e:	90 e0       	ldi	r25, 0x00	; 0
    4c60:	80 72       	andi	r24, 0x20	; 32
    4c62:	99 27       	eor	r25, r25
    4c64:	89 2b       	or	r24, r25
    4c66:	b1 f3       	breq	.-20     	; 0x4c54 <usart0_diag_putchar+0x2c>
    4c68:	86 ec       	ldi	r24, 0xC6	; 198
    4c6a:	90 e0       	ldi	r25, 0x00	; 0
    4c6c:	2c 81       	ldd	r18, Y+4	; 0x04
    4c6e:	fc 01       	movw	r30, r24
    4c70:	20 83       	st	Z, r18
    4c72:	00 00       	nop
    4c74:	80 ec       	ldi	r24, 0xC0	; 192
    4c76:	90 e0       	ldi	r25, 0x00	; 0
    4c78:	fc 01       	movw	r30, r24
    4c7a:	80 81       	ld	r24, Z
    4c7c:	88 2f       	mov	r24, r24
    4c7e:	90 e0       	ldi	r25, 0x00	; 0
    4c80:	80 74       	andi	r24, 0x40	; 64
    4c82:	99 27       	eor	r25, r25
    4c84:	89 2b       	or	r24, r25
    4c86:	b1 f3       	breq	.-20     	; 0x4c74 <usart0_diag_putchar+0x4c>
    4c88:	89 81       	ldd	r24, Y+1	; 0x01
    4c8a:	0e 94 04 26 	call	0x4c08	; 0x4c08 <irqs_restore>
    4c8e:	80 e0       	ldi	r24, 0x00	; 0
    4c90:	90 e0       	ldi	r25, 0x00	; 0
    4c92:	0f 90       	pop	r0
    4c94:	0f 90       	pop	r0
    4c96:	0f 90       	pop	r0
    4c98:	0f 90       	pop	r0
    4c9a:	df 91       	pop	r29
    4c9c:	cf 91       	pop	r28
    4c9e:	08 95       	ret

00004ca0 <usart0_diag_init>:
    4ca0:	cf 93       	push	r28
    4ca2:	df 93       	push	r29
    4ca4:	00 d0       	rcall	.+0      	; 0x4ca6 <usart0_diag_init+0x6>
    4ca6:	1f 92       	push	r1
    4ca8:	cd b7       	in	r28, 0x3d	; 61
    4caa:	de b7       	in	r29, 0x3e	; 62
    4cac:	80 ec       	ldi	r24, 0xC0	; 192
    4cae:	90 e0       	ldi	r25, 0x00	; 0
    4cb0:	fc 01       	movw	r30, r24
    4cb2:	10 82       	st	Z, r1
    4cb4:	88 e0       	ldi	r24, 0x08	; 8
    4cb6:	90 e0       	ldi	r25, 0x00	; 0
    4cb8:	9a 83       	std	Y+2, r25	; 0x02
    4cba:	89 83       	std	Y+1, r24	; 0x01
    4cbc:	85 ec       	ldi	r24, 0xC5	; 197
    4cbe:	90 e0       	ldi	r25, 0x00	; 0
    4cc0:	29 81       	ldd	r18, Y+1	; 0x01
    4cc2:	3a 81       	ldd	r19, Y+2	; 0x02
    4cc4:	23 2f       	mov	r18, r19
    4cc6:	33 27       	eor	r19, r19
    4cc8:	fc 01       	movw	r30, r24
    4cca:	20 83       	st	Z, r18
    4ccc:	84 ec       	ldi	r24, 0xC4	; 196
    4cce:	90 e0       	ldi	r25, 0x00	; 0
    4cd0:	29 81       	ldd	r18, Y+1	; 0x01
    4cd2:	fc 01       	movw	r30, r24
    4cd4:	20 83       	st	Z, r18
    4cd6:	86 e0       	ldi	r24, 0x06	; 6
    4cd8:	8b 83       	std	Y+3, r24	; 0x03
    4cda:	82 ec       	ldi	r24, 0xC2	; 194
    4cdc:	90 e0       	ldi	r25, 0x00	; 0
    4cde:	2b 81       	ldd	r18, Y+3	; 0x03
    4ce0:	fc 01       	movw	r30, r24
    4ce2:	20 83       	st	Z, r18
    4ce4:	81 ec       	ldi	r24, 0xC1	; 193
    4ce6:	90 e0       	ldi	r25, 0x00	; 0
    4ce8:	21 ec       	ldi	r18, 0xC1	; 193
    4cea:	30 e0       	ldi	r19, 0x00	; 0
    4cec:	f9 01       	movw	r30, r18
    4cee:	20 81       	ld	r18, Z
    4cf0:	28 60       	ori	r18, 0x08	; 8
    4cf2:	fc 01       	movw	r30, r24
    4cf4:	20 83       	st	Z, r18
    4cf6:	80 e0       	ldi	r24, 0x00	; 0
    4cf8:	90 e0       	ldi	r25, 0x00	; 0
    4cfa:	0f 90       	pop	r0
    4cfc:	0f 90       	pop	r0
    4cfe:	0f 90       	pop	r0
    4d00:	df 91       	pop	r29
    4d02:	cf 91       	pop	r28
    4d04:	08 95       	ret

00004d06 <dlist_init>:
    4d06:	cf 93       	push	r28
    4d08:	df 93       	push	r29
    4d0a:	00 d0       	rcall	.+0      	; 0x4d0c <dlist_init+0x6>
    4d0c:	cd b7       	in	r28, 0x3d	; 61
    4d0e:	de b7       	in	r29, 0x3e	; 62
    4d10:	9a 83       	std	Y+2, r25	; 0x02
    4d12:	89 83       	std	Y+1, r24	; 0x01
    4d14:	89 81       	ldd	r24, Y+1	; 0x01
    4d16:	9a 81       	ldd	r25, Y+2	; 0x02
    4d18:	29 81       	ldd	r18, Y+1	; 0x01
    4d1a:	3a 81       	ldd	r19, Y+2	; 0x02
    4d1c:	fc 01       	movw	r30, r24
    4d1e:	33 83       	std	Z+3, r19	; 0x03
    4d20:	22 83       	std	Z+2, r18	; 0x02
    4d22:	89 81       	ldd	r24, Y+1	; 0x01
    4d24:	9a 81       	ldd	r25, Y+2	; 0x02
    4d26:	fc 01       	movw	r30, r24
    4d28:	22 81       	ldd	r18, Z+2	; 0x02
    4d2a:	33 81       	ldd	r19, Z+3	; 0x03
    4d2c:	89 81       	ldd	r24, Y+1	; 0x01
    4d2e:	9a 81       	ldd	r25, Y+2	; 0x02
    4d30:	fc 01       	movw	r30, r24
    4d32:	31 83       	std	Z+1, r19	; 0x01
    4d34:	20 83       	st	Z, r18
    4d36:	00 00       	nop
    4d38:	0f 90       	pop	r0
    4d3a:	0f 90       	pop	r0
    4d3c:	df 91       	pop	r29
    4d3e:	cf 91       	pop	r28
    4d40:	08 95       	ret

00004d42 <__dlist_add>:
    4d42:	cf 93       	push	r28
    4d44:	df 93       	push	r29
    4d46:	00 d0       	rcall	.+0      	; 0x4d48 <__dlist_add+0x6>
    4d48:	00 d0       	rcall	.+0      	; 0x4d4a <__dlist_add+0x8>
    4d4a:	00 d0       	rcall	.+0      	; 0x4d4c <__dlist_add+0xa>
    4d4c:	cd b7       	in	r28, 0x3d	; 61
    4d4e:	de b7       	in	r29, 0x3e	; 62
    4d50:	9a 83       	std	Y+2, r25	; 0x02
    4d52:	89 83       	std	Y+1, r24	; 0x01
    4d54:	7c 83       	std	Y+4, r23	; 0x04
    4d56:	6b 83       	std	Y+3, r22	; 0x03
    4d58:	5e 83       	std	Y+6, r21	; 0x06
    4d5a:	4d 83       	std	Y+5, r20	; 0x05
    4d5c:	89 81       	ldd	r24, Y+1	; 0x01
    4d5e:	9a 81       	ldd	r25, Y+2	; 0x02
    4d60:	2d 81       	ldd	r18, Y+5	; 0x05
    4d62:	3e 81       	ldd	r19, Y+6	; 0x06
    4d64:	fc 01       	movw	r30, r24
    4d66:	33 83       	std	Z+3, r19	; 0x03
    4d68:	22 83       	std	Z+2, r18	; 0x02
    4d6a:	89 81       	ldd	r24, Y+1	; 0x01
    4d6c:	9a 81       	ldd	r25, Y+2	; 0x02
    4d6e:	2b 81       	ldd	r18, Y+3	; 0x03
    4d70:	3c 81       	ldd	r19, Y+4	; 0x04
    4d72:	fc 01       	movw	r30, r24
    4d74:	31 83       	std	Z+1, r19	; 0x01
    4d76:	20 83       	st	Z, r18
    4d78:	8b 81       	ldd	r24, Y+3	; 0x03
    4d7a:	9c 81       	ldd	r25, Y+4	; 0x04
    4d7c:	29 81       	ldd	r18, Y+1	; 0x01
    4d7e:	3a 81       	ldd	r19, Y+2	; 0x02
    4d80:	fc 01       	movw	r30, r24
    4d82:	33 83       	std	Z+3, r19	; 0x03
    4d84:	22 83       	std	Z+2, r18	; 0x02
    4d86:	8d 81       	ldd	r24, Y+5	; 0x05
    4d88:	9e 81       	ldd	r25, Y+6	; 0x06
    4d8a:	29 81       	ldd	r18, Y+1	; 0x01
    4d8c:	3a 81       	ldd	r19, Y+2	; 0x02
    4d8e:	fc 01       	movw	r30, r24
    4d90:	31 83       	std	Z+1, r19	; 0x01
    4d92:	20 83       	st	Z, r18
    4d94:	00 00       	nop
    4d96:	26 96       	adiw	r28, 0x06	; 6
    4d98:	0f b6       	in	r0, 0x3f	; 63
    4d9a:	f8 94       	cli
    4d9c:	de bf       	out	0x3e, r29	; 62
    4d9e:	0f be       	out	0x3f, r0	; 63
    4da0:	cd bf       	out	0x3d, r28	; 61
    4da2:	df 91       	pop	r29
    4da4:	cf 91       	pop	r28
    4da6:	08 95       	ret

00004da8 <dlist_add_next>:
    4da8:	cf 93       	push	r28
    4daa:	df 93       	push	r29
    4dac:	00 d0       	rcall	.+0      	; 0x4dae <dlist_add_next+0x6>
    4dae:	00 d0       	rcall	.+0      	; 0x4db0 <dlist_add_next+0x8>
    4db0:	cd b7       	in	r28, 0x3d	; 61
    4db2:	de b7       	in	r29, 0x3e	; 62
    4db4:	9a 83       	std	Y+2, r25	; 0x02
    4db6:	89 83       	std	Y+1, r24	; 0x01
    4db8:	7c 83       	std	Y+4, r23	; 0x04
    4dba:	6b 83       	std	Y+3, r22	; 0x03
    4dbc:	8b 81       	ldd	r24, Y+3	; 0x03
    4dbe:	9c 81       	ldd	r25, Y+4	; 0x04
    4dc0:	fc 01       	movw	r30, r24
    4dc2:	20 81       	ld	r18, Z
    4dc4:	31 81       	ldd	r19, Z+1	; 0x01
    4dc6:	4b 81       	ldd	r20, Y+3	; 0x03
    4dc8:	5c 81       	ldd	r21, Y+4	; 0x04
    4dca:	89 81       	ldd	r24, Y+1	; 0x01
    4dcc:	9a 81       	ldd	r25, Y+2	; 0x02
    4dce:	b9 01       	movw	r22, r18
    4dd0:	0e 94 a1 26 	call	0x4d42	; 0x4d42 <__dlist_add>
    4dd4:	00 00       	nop
    4dd6:	0f 90       	pop	r0
    4dd8:	0f 90       	pop	r0
    4dda:	0f 90       	pop	r0
    4ddc:	0f 90       	pop	r0
    4dde:	df 91       	pop	r29
    4de0:	cf 91       	pop	r28
    4de2:	08 95       	ret

00004de4 <dlist_add_prev>:
    4de4:	cf 93       	push	r28
    4de6:	df 93       	push	r29
    4de8:	00 d0       	rcall	.+0      	; 0x4dea <dlist_add_prev+0x6>
    4dea:	00 d0       	rcall	.+0      	; 0x4dec <dlist_add_prev+0x8>
    4dec:	cd b7       	in	r28, 0x3d	; 61
    4dee:	de b7       	in	r29, 0x3e	; 62
    4df0:	9a 83       	std	Y+2, r25	; 0x02
    4df2:	89 83       	std	Y+1, r24	; 0x01
    4df4:	7c 83       	std	Y+4, r23	; 0x04
    4df6:	6b 83       	std	Y+3, r22	; 0x03
    4df8:	8b 81       	ldd	r24, Y+3	; 0x03
    4dfa:	9c 81       	ldd	r25, Y+4	; 0x04
    4dfc:	fc 01       	movw	r30, r24
    4dfe:	42 81       	ldd	r20, Z+2	; 0x02
    4e00:	53 81       	ldd	r21, Z+3	; 0x03
    4e02:	2b 81       	ldd	r18, Y+3	; 0x03
    4e04:	3c 81       	ldd	r19, Y+4	; 0x04
    4e06:	89 81       	ldd	r24, Y+1	; 0x01
    4e08:	9a 81       	ldd	r25, Y+2	; 0x02
    4e0a:	b9 01       	movw	r22, r18
    4e0c:	0e 94 a1 26 	call	0x4d42	; 0x4d42 <__dlist_add>
    4e10:	00 00       	nop
    4e12:	0f 90       	pop	r0
    4e14:	0f 90       	pop	r0
    4e16:	0f 90       	pop	r0
    4e18:	0f 90       	pop	r0
    4e1a:	df 91       	pop	r29
    4e1c:	cf 91       	pop	r28
    4e1e:	08 95       	ret

00004e20 <__dlist_del>:
    4e20:	cf 93       	push	r28
    4e22:	df 93       	push	r29
    4e24:	00 d0       	rcall	.+0      	; 0x4e26 <__dlist_del+0x6>
    4e26:	00 d0       	rcall	.+0      	; 0x4e28 <__dlist_del+0x8>
    4e28:	cd b7       	in	r28, 0x3d	; 61
    4e2a:	de b7       	in	r29, 0x3e	; 62
    4e2c:	9a 83       	std	Y+2, r25	; 0x02
    4e2e:	89 83       	std	Y+1, r24	; 0x01
    4e30:	7c 83       	std	Y+4, r23	; 0x04
    4e32:	6b 83       	std	Y+3, r22	; 0x03
    4e34:	8b 81       	ldd	r24, Y+3	; 0x03
    4e36:	9c 81       	ldd	r25, Y+4	; 0x04
    4e38:	29 81       	ldd	r18, Y+1	; 0x01
    4e3a:	3a 81       	ldd	r19, Y+2	; 0x02
    4e3c:	fc 01       	movw	r30, r24
    4e3e:	33 83       	std	Z+3, r19	; 0x03
    4e40:	22 83       	std	Z+2, r18	; 0x02
    4e42:	89 81       	ldd	r24, Y+1	; 0x01
    4e44:	9a 81       	ldd	r25, Y+2	; 0x02
    4e46:	2b 81       	ldd	r18, Y+3	; 0x03
    4e48:	3c 81       	ldd	r19, Y+4	; 0x04
    4e4a:	fc 01       	movw	r30, r24
    4e4c:	31 83       	std	Z+1, r19	; 0x01
    4e4e:	20 83       	st	Z, r18
    4e50:	00 00       	nop
    4e52:	0f 90       	pop	r0
    4e54:	0f 90       	pop	r0
    4e56:	0f 90       	pop	r0
    4e58:	0f 90       	pop	r0
    4e5a:	df 91       	pop	r29
    4e5c:	cf 91       	pop	r28
    4e5e:	08 95       	ret

00004e60 <dlist_del_init>:
    4e60:	cf 93       	push	r28
    4e62:	df 93       	push	r29
    4e64:	00 d0       	rcall	.+0      	; 0x4e66 <dlist_del_init+0x6>
    4e66:	cd b7       	in	r28, 0x3d	; 61
    4e68:	de b7       	in	r29, 0x3e	; 62
    4e6a:	9a 83       	std	Y+2, r25	; 0x02
    4e6c:	89 83       	std	Y+1, r24	; 0x01
    4e6e:	89 81       	ldd	r24, Y+1	; 0x01
    4e70:	9a 81       	ldd	r25, Y+2	; 0x02
    4e72:	fc 01       	movw	r30, r24
    4e74:	20 81       	ld	r18, Z
    4e76:	31 81       	ldd	r19, Z+1	; 0x01
    4e78:	89 81       	ldd	r24, Y+1	; 0x01
    4e7a:	9a 81       	ldd	r25, Y+2	; 0x02
    4e7c:	fc 01       	movw	r30, r24
    4e7e:	82 81       	ldd	r24, Z+2	; 0x02
    4e80:	93 81       	ldd	r25, Z+3	; 0x03
    4e82:	b9 01       	movw	r22, r18
    4e84:	0e 94 10 27 	call	0x4e20	; 0x4e20 <__dlist_del>
    4e88:	89 81       	ldd	r24, Y+1	; 0x01
    4e8a:	9a 81       	ldd	r25, Y+2	; 0x02
    4e8c:	0e 94 83 26 	call	0x4d06	; 0x4d06 <dlist_init>
    4e90:	00 00       	nop
    4e92:	0f 90       	pop	r0
    4e94:	0f 90       	pop	r0
    4e96:	df 91       	pop	r29
    4e98:	cf 91       	pop	r28
    4e9a:	08 95       	ret

00004e9c <dlist_move_tail>:
    4e9c:	cf 93       	push	r28
    4e9e:	df 93       	push	r29
    4ea0:	00 d0       	rcall	.+0      	; 0x4ea2 <dlist_move_tail+0x6>
    4ea2:	00 d0       	rcall	.+0      	; 0x4ea4 <dlist_move_tail+0x8>
    4ea4:	cd b7       	in	r28, 0x3d	; 61
    4ea6:	de b7       	in	r29, 0x3e	; 62
    4ea8:	9a 83       	std	Y+2, r25	; 0x02
    4eaa:	89 83       	std	Y+1, r24	; 0x01
    4eac:	7c 83       	std	Y+4, r23	; 0x04
    4eae:	6b 83       	std	Y+3, r22	; 0x03
    4eb0:	89 81       	ldd	r24, Y+1	; 0x01
    4eb2:	9a 81       	ldd	r25, Y+2	; 0x02
    4eb4:	fc 01       	movw	r30, r24
    4eb6:	20 81       	ld	r18, Z
    4eb8:	31 81       	ldd	r19, Z+1	; 0x01
    4eba:	89 81       	ldd	r24, Y+1	; 0x01
    4ebc:	9a 81       	ldd	r25, Y+2	; 0x02
    4ebe:	fc 01       	movw	r30, r24
    4ec0:	82 81       	ldd	r24, Z+2	; 0x02
    4ec2:	93 81       	ldd	r25, Z+3	; 0x03
    4ec4:	b9 01       	movw	r22, r18
    4ec6:	0e 94 10 27 	call	0x4e20	; 0x4e20 <__dlist_del>
    4eca:	2b 81       	ldd	r18, Y+3	; 0x03
    4ecc:	3c 81       	ldd	r19, Y+4	; 0x04
    4ece:	89 81       	ldd	r24, Y+1	; 0x01
    4ed0:	9a 81       	ldd	r25, Y+2	; 0x02
    4ed2:	b9 01       	movw	r22, r18
    4ed4:	0e 94 f2 26 	call	0x4de4	; 0x4de4 <dlist_add_prev>
    4ed8:	00 00       	nop
    4eda:	0f 90       	pop	r0
    4edc:	0f 90       	pop	r0
    4ede:	0f 90       	pop	r0
    4ee0:	0f 90       	pop	r0
    4ee2:	df 91       	pop	r29
    4ee4:	cf 91       	pop	r28
    4ee6:	08 95       	ret

00004ee8 <dlist_empty>:
    4ee8:	cf 93       	push	r28
    4eea:	df 93       	push	r29
    4eec:	00 d0       	rcall	.+0      	; 0x4eee <dlist_empty+0x6>
    4eee:	cd b7       	in	r28, 0x3d	; 61
    4ef0:	de b7       	in	r29, 0x3e	; 62
    4ef2:	9a 83       	std	Y+2, r25	; 0x02
    4ef4:	89 83       	std	Y+1, r24	; 0x01
    4ef6:	89 81       	ldd	r24, Y+1	; 0x01
    4ef8:	9a 81       	ldd	r25, Y+2	; 0x02
    4efa:	fc 01       	movw	r30, r24
    4efc:	20 81       	ld	r18, Z
    4efe:	31 81       	ldd	r19, Z+1	; 0x01
    4f00:	41 e0       	ldi	r20, 0x01	; 1
    4f02:	89 81       	ldd	r24, Y+1	; 0x01
    4f04:	9a 81       	ldd	r25, Y+2	; 0x02
    4f06:	28 17       	cp	r18, r24
    4f08:	39 07       	cpc	r19, r25
    4f0a:	09 f0       	breq	.+2      	; 0x4f0e <dlist_empty+0x26>
    4f0c:	40 e0       	ldi	r20, 0x00	; 0
    4f0e:	84 2f       	mov	r24, r20
    4f10:	90 e0       	ldi	r25, 0x00	; 0
    4f12:	0f 90       	pop	r0
    4f14:	0f 90       	pop	r0
    4f16:	df 91       	pop	r29
    4f18:	cf 91       	pop	r28
    4f1a:	08 95       	ret

00004f1c <dlist_in>:
    4f1c:	cf 93       	push	r28
    4f1e:	df 93       	push	r29
    4f20:	00 d0       	rcall	.+0      	; 0x4f22 <dlist_in+0x6>
    4f22:	00 d0       	rcall	.+0      	; 0x4f24 <dlist_in+0x8>
    4f24:	00 d0       	rcall	.+0      	; 0x4f26 <dlist_in+0xa>
    4f26:	cd b7       	in	r28, 0x3d	; 61
    4f28:	de b7       	in	r29, 0x3e	; 62
    4f2a:	9c 83       	std	Y+4, r25	; 0x04
    4f2c:	8b 83       	std	Y+3, r24	; 0x03
    4f2e:	7e 83       	std	Y+6, r23	; 0x06
    4f30:	6d 83       	std	Y+5, r22	; 0x05
    4f32:	8d 81       	ldd	r24, Y+5	; 0x05
    4f34:	9e 81       	ldd	r25, Y+6	; 0x06
    4f36:	fc 01       	movw	r30, r24
    4f38:	80 81       	ld	r24, Z
    4f3a:	91 81       	ldd	r25, Z+1	; 0x01
    4f3c:	9a 83       	std	Y+2, r25	; 0x02
    4f3e:	89 83       	std	Y+1, r24	; 0x01
    4f40:	11 c0       	rjmp	.+34     	; 0x4f64 <dlist_in+0x48>
    4f42:	29 81       	ldd	r18, Y+1	; 0x01
    4f44:	3a 81       	ldd	r19, Y+2	; 0x02
    4f46:	8b 81       	ldd	r24, Y+3	; 0x03
    4f48:	9c 81       	ldd	r25, Y+4	; 0x04
    4f4a:	28 17       	cp	r18, r24
    4f4c:	39 07       	cpc	r19, r25
    4f4e:	19 f4       	brne	.+6      	; 0x4f56 <dlist_in+0x3a>
    4f50:	81 e0       	ldi	r24, 0x01	; 1
    4f52:	90 e0       	ldi	r25, 0x00	; 0
    4f54:	10 c0       	rjmp	.+32     	; 0x4f76 <dlist_in+0x5a>
    4f56:	89 81       	ldd	r24, Y+1	; 0x01
    4f58:	9a 81       	ldd	r25, Y+2	; 0x02
    4f5a:	fc 01       	movw	r30, r24
    4f5c:	80 81       	ld	r24, Z
    4f5e:	91 81       	ldd	r25, Z+1	; 0x01
    4f60:	9a 83       	std	Y+2, r25	; 0x02
    4f62:	89 83       	std	Y+1, r24	; 0x01
    4f64:	29 81       	ldd	r18, Y+1	; 0x01
    4f66:	3a 81       	ldd	r19, Y+2	; 0x02
    4f68:	8d 81       	ldd	r24, Y+5	; 0x05
    4f6a:	9e 81       	ldd	r25, Y+6	; 0x06
    4f6c:	28 17       	cp	r18, r24
    4f6e:	39 07       	cpc	r19, r25
    4f70:	41 f7       	brne	.-48     	; 0x4f42 <dlist_in+0x26>
    4f72:	80 e0       	ldi	r24, 0x00	; 0
    4f74:	90 e0       	ldi	r25, 0x00	; 0
    4f76:	26 96       	adiw	r28, 0x06	; 6
    4f78:	0f b6       	in	r0, 0x3f	; 63
    4f7a:	f8 94       	cli
    4f7c:	de bf       	out	0x3e, r29	; 62
    4f7e:	0f be       	out	0x3f, r0	; 63
    4f80:	cd bf       	out	0x3d, r28	; 61
    4f82:	df 91       	pop	r29
    4f84:	cf 91       	pop	r28
    4f86:	08 95       	ret

00004f88 <ctrobj_init>:
    4f88:	cf 93       	push	r28
    4f8a:	df 93       	push	r29
    4f8c:	00 d0       	rcall	.+0      	; 0x4f8e <ctrobj_init+0x6>
    4f8e:	1f 92       	push	r1
    4f90:	cd b7       	in	r28, 0x3d	; 61
    4f92:	de b7       	in	r29, 0x3e	; 62
    4f94:	9a 83       	std	Y+2, r25	; 0x02
    4f96:	89 83       	std	Y+1, r24	; 0x01
    4f98:	6b 83       	std	Y+3, r22	; 0x03
    4f9a:	89 81       	ldd	r24, Y+1	; 0x01
    4f9c:	9a 81       	ldd	r25, Y+2	; 0x02
    4f9e:	2b 81       	ldd	r18, Y+3	; 0x03
    4fa0:	fc 01       	movw	r30, r24
    4fa2:	26 83       	std	Z+6, r18	; 0x06
    4fa4:	89 81       	ldd	r24, Y+1	; 0x01
    4fa6:	9a 81       	ldd	r25, Y+2	; 0x02
    4fa8:	fc 01       	movw	r30, r24
    4faa:	15 82       	std	Z+5, r1	; 0x05
    4fac:	14 82       	std	Z+4, r1	; 0x04
    4fae:	89 81       	ldd	r24, Y+1	; 0x01
    4fb0:	9a 81       	ldd	r25, Y+2	; 0x02
    4fb2:	0e 94 83 26 	call	0x4d06	; 0x4d06 <dlist_init>
    4fb6:	00 00       	nop
    4fb8:	0f 90       	pop	r0
    4fba:	0f 90       	pop	r0
    4fbc:	0f 90       	pop	r0
    4fbe:	df 91       	pop	r29
    4fc0:	cf 91       	pop	r28
    4fc2:	08 95       	ret

00004fc4 <current_schedee>:
    4fc4:	cf 93       	push	r28
    4fc6:	df 93       	push	r29
    4fc8:	cd b7       	in	r28, 0x3d	; 61
    4fca:	de b7       	in	r29, 0x3e	; 62
    4fcc:	80 91 43 02 	lds	r24, 0x0243	; 0x800243 <__current_schedee>
    4fd0:	90 91 44 02 	lds	r25, 0x0244	; 0x800244 <__current_schedee+0x1>
    4fd4:	df 91       	pop	r29
    4fd6:	cf 91       	pop	r28
    4fd8:	08 95       	ret

00004fda <generate_new_pid>:
    4fda:	cf 93       	push	r28
    4fdc:	df 93       	push	r29
    4fde:	00 d0       	rcall	.+0      	; 0x4fe0 <generate_new_pid+0x6>
    4fe0:	1f 92       	push	r1
    4fe2:	cd b7       	in	r28, 0x3d	; 61
    4fe4:	de b7       	in	r29, 0x3e	; 62
    4fe6:	1b 82       	std	Y+3, r1	; 0x03
    4fe8:	80 91 3f 02 	lds	r24, 0x023F	; 0x80023f <pid_counter>
    4fec:	90 91 40 02 	lds	r25, 0x0240	; 0x800240 <pid_counter+0x1>
    4ff0:	01 96       	adiw	r24, 0x01	; 1
    4ff2:	90 93 40 02 	sts	0x0240, r25	; 0x800240 <pid_counter+0x1>
    4ff6:	80 93 3f 02 	sts	0x023F, r24	; 0x80023f <pid_counter>
    4ffa:	80 91 3f 02 	lds	r24, 0x023F	; 0x80023f <pid_counter>
    4ffe:	90 91 40 02 	lds	r25, 0x0240	; 0x800240 <pid_counter+0x1>
    5002:	89 2b       	or	r24, r25
    5004:	49 f4       	brne	.+18     	; 0x5018 <generate_new_pid+0x3e>
    5006:	80 91 3f 02 	lds	r24, 0x023F	; 0x80023f <pid_counter>
    500a:	90 91 40 02 	lds	r25, 0x0240	; 0x800240 <pid_counter+0x1>
    500e:	01 96       	adiw	r24, 0x01	; 1
    5010:	90 93 40 02 	sts	0x0240, r25	; 0x800240 <pid_counter+0x1>
    5014:	80 93 3f 02 	sts	0x023F, r24	; 0x80023f <pid_counter>
    5018:	1b 82       	std	Y+3, r1	; 0x03
    501a:	80 91 00 01 	lds	r24, 0x0100	; 0x800100 <__data_start>
    501e:	90 91 01 01 	lds	r25, 0x0101	; 0x800101 <__data_start+0x1>
    5022:	8a 97       	sbiw	r24, 0x2a	; 42
    5024:	9a 83       	std	Y+2, r25	; 0x02
    5026:	89 83       	std	Y+1, r24	; 0x01
    5028:	17 c0       	rjmp	.+46     	; 0x5058 <generate_new_pid+0x7e>
    502a:	89 81       	ldd	r24, Y+1	; 0x01
    502c:	9a 81       	ldd	r25, Y+2	; 0x02
    502e:	fc 01       	movw	r30, r24
    5030:	24 a1       	ldd	r18, Z+36	; 0x24
    5032:	35 a1       	ldd	r19, Z+37	; 0x25
    5034:	80 91 3f 02 	lds	r24, 0x023F	; 0x80023f <pid_counter>
    5038:	90 91 40 02 	lds	r25, 0x0240	; 0x800240 <pid_counter+0x1>
    503c:	28 17       	cp	r18, r24
    503e:	39 07       	cpc	r19, r25
    5040:	19 f4       	brne	.+6      	; 0x5048 <generate_new_pid+0x6e>
    5042:	81 e0       	ldi	r24, 0x01	; 1
    5044:	8b 83       	std	Y+3, r24	; 0x03
    5046:	0e c0       	rjmp	.+28     	; 0x5064 <generate_new_pid+0x8a>
    5048:	89 81       	ldd	r24, Y+1	; 0x01
    504a:	9a 81       	ldd	r25, Y+2	; 0x02
    504c:	fc 01       	movw	r30, r24
    504e:	82 a5       	ldd	r24, Z+42	; 0x2a
    5050:	93 a5       	ldd	r25, Z+43	; 0x2b
    5052:	8a 97       	sbiw	r24, 0x2a	; 42
    5054:	9a 83       	std	Y+2, r25	; 0x02
    5056:	89 83       	std	Y+1, r24	; 0x01
    5058:	89 81       	ldd	r24, Y+1	; 0x01
    505a:	9a 81       	ldd	r25, Y+2	; 0x02
    505c:	8a 96       	adiw	r24, 0x2a	; 42
    505e:	80 50       	subi	r24, 0x00	; 0
    5060:	91 40       	sbci	r25, 0x01	; 1
    5062:	19 f7       	brne	.-58     	; 0x502a <generate_new_pid+0x50>
    5064:	8b 81       	ldd	r24, Y+3	; 0x03
    5066:	88 23       	and	r24, r24
    5068:	09 f0       	breq	.+2      	; 0x506c <generate_new_pid+0x92>
    506a:	be cf       	rjmp	.-132    	; 0x4fe8 <generate_new_pid+0xe>
    506c:	80 91 3f 02 	lds	r24, 0x023F	; 0x80023f <pid_counter>
    5070:	90 91 40 02 	lds	r25, 0x0240	; 0x800240 <pid_counter+0x1>
    5074:	0f 90       	pop	r0
    5076:	0f 90       	pop	r0
    5078:	0f 90       	pop	r0
    507a:	df 91       	pop	r29
    507c:	cf 91       	pop	r28
    507e:	08 95       	ret

00005080 <generate_new_gid>:
    5080:	cf 93       	push	r28
    5082:	df 93       	push	r29
    5084:	00 d0       	rcall	.+0      	; 0x5086 <generate_new_gid+0x6>
    5086:	1f 92       	push	r1
    5088:	cd b7       	in	r28, 0x3d	; 61
    508a:	de b7       	in	r29, 0x3e	; 62
    508c:	1b 82       	std	Y+3, r1	; 0x03
    508e:	80 91 41 02 	lds	r24, 0x0241	; 0x800241 <gid_counter>
    5092:	90 91 42 02 	lds	r25, 0x0242	; 0x800242 <gid_counter+0x1>
    5096:	01 96       	adiw	r24, 0x01	; 1
    5098:	90 93 42 02 	sts	0x0242, r25	; 0x800242 <gid_counter+0x1>
    509c:	80 93 41 02 	sts	0x0241, r24	; 0x800241 <gid_counter>
    50a0:	80 91 41 02 	lds	r24, 0x0241	; 0x800241 <gid_counter>
    50a4:	90 91 42 02 	lds	r25, 0x0242	; 0x800242 <gid_counter+0x1>
    50a8:	89 2b       	or	r24, r25
    50aa:	49 f4       	brne	.+18     	; 0x50be <generate_new_gid+0x3e>
    50ac:	80 91 41 02 	lds	r24, 0x0241	; 0x800241 <gid_counter>
    50b0:	90 91 42 02 	lds	r25, 0x0242	; 0x800242 <gid_counter+0x1>
    50b4:	01 96       	adiw	r24, 0x01	; 1
    50b6:	90 93 42 02 	sts	0x0242, r25	; 0x800242 <gid_counter+0x1>
    50ba:	80 93 41 02 	sts	0x0241, r24	; 0x800241 <gid_counter>
    50be:	1b 82       	std	Y+3, r1	; 0x03
    50c0:	80 91 00 01 	lds	r24, 0x0100	; 0x800100 <__data_start>
    50c4:	90 91 01 01 	lds	r25, 0x0101	; 0x800101 <__data_start+0x1>
    50c8:	8a 97       	sbiw	r24, 0x2a	; 42
    50ca:	9a 83       	std	Y+2, r25	; 0x02
    50cc:	89 83       	std	Y+1, r24	; 0x01
    50ce:	17 c0       	rjmp	.+46     	; 0x50fe <generate_new_gid+0x7e>
    50d0:	89 81       	ldd	r24, Y+1	; 0x01
    50d2:	9a 81       	ldd	r25, Y+2	; 0x02
    50d4:	fc 01       	movw	r30, r24
    50d6:	26 a1       	ldd	r18, Z+38	; 0x26
    50d8:	37 a1       	ldd	r19, Z+39	; 0x27
    50da:	80 91 41 02 	lds	r24, 0x0241	; 0x800241 <gid_counter>
    50de:	90 91 42 02 	lds	r25, 0x0242	; 0x800242 <gid_counter+0x1>
    50e2:	28 17       	cp	r18, r24
    50e4:	39 07       	cpc	r19, r25
    50e6:	19 f4       	brne	.+6      	; 0x50ee <generate_new_gid+0x6e>
    50e8:	81 e0       	ldi	r24, 0x01	; 1
    50ea:	8b 83       	std	Y+3, r24	; 0x03
    50ec:	0e c0       	rjmp	.+28     	; 0x510a <generate_new_gid+0x8a>
    50ee:	89 81       	ldd	r24, Y+1	; 0x01
    50f0:	9a 81       	ldd	r25, Y+2	; 0x02
    50f2:	fc 01       	movw	r30, r24
    50f4:	82 a5       	ldd	r24, Z+42	; 0x2a
    50f6:	93 a5       	ldd	r25, Z+43	; 0x2b
    50f8:	8a 97       	sbiw	r24, 0x2a	; 42
    50fa:	9a 83       	std	Y+2, r25	; 0x02
    50fc:	89 83       	std	Y+1, r24	; 0x01
    50fe:	89 81       	ldd	r24, Y+1	; 0x01
    5100:	9a 81       	ldd	r25, Y+2	; 0x02
    5102:	8a 96       	adiw	r24, 0x2a	; 42
    5104:	80 50       	subi	r24, 0x00	; 0
    5106:	91 40       	sbci	r25, 0x01	; 1
    5108:	19 f7       	brne	.-58     	; 0x50d0 <generate_new_gid+0x50>
    510a:	8b 81       	ldd	r24, Y+3	; 0x03
    510c:	88 23       	and	r24, r24
    510e:	09 f0       	breq	.+2      	; 0x5112 <generate_new_gid+0x92>
    5110:	be cf       	rjmp	.-132    	; 0x508e <generate_new_gid+0xe>
    5112:	80 91 41 02 	lds	r24, 0x0241	; 0x800241 <gid_counter>
    5116:	90 91 42 02 	lds	r25, 0x0242	; 0x800242 <gid_counter+0x1>
    511a:	0f 90       	pop	r0
    511c:	0f 90       	pop	r0
    511e:	0f 90       	pop	r0
    5120:	df 91       	pop	r29
    5122:	cf 91       	pop	r28
    5124:	08 95       	ret

00005126 <schedee_init>:
    5126:	cf 93       	push	r28
    5128:	df 93       	push	r29
    512a:	cd b7       	in	r28, 0x3d	; 61
    512c:	de b7       	in	r29, 0x3e	; 62
    512e:	28 97       	sbiw	r28, 0x08	; 8
    5130:	0f b6       	in	r0, 0x3f	; 63
    5132:	f8 94       	cli
    5134:	de bf       	out	0x3e, r29	; 62
    5136:	0f be       	out	0x3f, r0	; 63
    5138:	cd bf       	out	0x3d, r28	; 61
    513a:	9a 83       	std	Y+2, r25	; 0x02
    513c:	89 83       	std	Y+1, r24	; 0x01
    513e:	7c 83       	std	Y+4, r23	; 0x04
    5140:	6b 83       	std	Y+3, r22	; 0x03
    5142:	5e 83       	std	Y+6, r21	; 0x06
    5144:	4d 83       	std	Y+5, r20	; 0x05
    5146:	38 87       	std	Y+8, r19	; 0x08
    5148:	2f 83       	std	Y+7, r18	; 0x07
    514a:	89 81       	ldd	r24, Y+1	; 0x01
    514c:	9a 81       	ldd	r25, Y+2	; 0x02
    514e:	8a 96       	adiw	r24, 0x2a	; 42
    5150:	60 e0       	ldi	r22, 0x00	; 0
    5152:	71 e0       	ldi	r23, 0x01	; 1
    5154:	0e 94 8e 27 	call	0x4f1c	; 0x4f1c <dlist_in>
    5158:	89 2b       	or	r24, r25
    515a:	71 f4       	brne	.+28     	; 0x5178 <schedee_init+0x52>
    515c:	89 81       	ldd	r24, Y+1	; 0x01
    515e:	9a 81       	ldd	r25, Y+2	; 0x02
    5160:	06 96       	adiw	r24, 0x06	; 6
    5162:	60 e0       	ldi	r22, 0x00	; 0
    5164:	0e 94 c4 27 	call	0x4f88	; 0x4f88 <ctrobj_init>
    5168:	89 81       	ldd	r24, Y+1	; 0x01
    516a:	9a 81       	ldd	r25, Y+2	; 0x02
    516c:	8a 96       	adiw	r24, 0x2a	; 42
    516e:	60 e0       	ldi	r22, 0x00	; 0
    5170:	71 e0       	ldi	r23, 0x01	; 1
    5172:	0e 94 d4 26 	call	0x4da8	; 0x4da8 <dlist_add_next>
    5176:	05 c0       	rjmp	.+10     	; 0x5182 <schedee_init+0x5c>
    5178:	89 81       	ldd	r24, Y+1	; 0x01
    517a:	9a 81       	ldd	r25, Y+2	; 0x02
    517c:	06 96       	adiw	r24, 0x06	; 6
    517e:	0e 94 30 27 	call	0x4e60	; 0x4e60 <dlist_del_init>
    5182:	0e 94 ed 27 	call	0x4fda	; 0x4fda <generate_new_pid>
    5186:	9c 01       	movw	r18, r24
    5188:	89 81       	ldd	r24, Y+1	; 0x01
    518a:	9a 81       	ldd	r25, Y+2	; 0x02
    518c:	fc 01       	movw	r30, r24
    518e:	35 a3       	std	Z+37, r19	; 0x25
    5190:	24 a3       	std	Z+36, r18	; 0x24
    5192:	8d 81       	ldd	r24, Y+5	; 0x05
    5194:	9e 81       	ldd	r25, Y+6	; 0x06
    5196:	81 70       	andi	r24, 0x01	; 1
    5198:	99 27       	eor	r25, r25
    519a:	89 2b       	or	r24, r25
    519c:	59 f0       	breq	.+22     	; 0x51b4 <schedee_init+0x8e>
    519e:	0e 94 e2 27 	call	0x4fc4	; 0x4fc4 <current_schedee>
    51a2:	fc 01       	movw	r30, r24
    51a4:	26 a1       	ldd	r18, Z+38	; 0x26
    51a6:	37 a1       	ldd	r19, Z+39	; 0x27
    51a8:	89 81       	ldd	r24, Y+1	; 0x01
    51aa:	9a 81       	ldd	r25, Y+2	; 0x02
    51ac:	fc 01       	movw	r30, r24
    51ae:	37 a3       	std	Z+39, r19	; 0x27
    51b0:	26 a3       	std	Z+38, r18	; 0x26
    51b2:	08 c0       	rjmp	.+16     	; 0x51c4 <schedee_init+0x9e>
    51b4:	0e 94 40 28 	call	0x5080	; 0x5080 <generate_new_gid>
    51b8:	9c 01       	movw	r18, r24
    51ba:	89 81       	ldd	r24, Y+1	; 0x01
    51bc:	9a 81       	ldd	r25, Y+2	; 0x02
    51be:	fc 01       	movw	r30, r24
    51c0:	37 a3       	std	Z+39, r19	; 0x27
    51c2:	26 a3       	std	Z+38, r18	; 0x26
    51c4:	89 81       	ldd	r24, Y+1	; 0x01
    51c6:	9a 81       	ldd	r25, Y+2	; 0x02
    51c8:	fc 01       	movw	r30, r24
    51ca:	17 a6       	std	Z+47, r1	; 0x2f
    51cc:	16 a6       	std	Z+46, r1	; 0x2e
    51ce:	89 81       	ldd	r24, Y+1	; 0x01
    51d0:	9a 81       	ldd	r25, Y+2	; 0x02
    51d2:	fc 01       	movw	r30, r24
    51d4:	11 aa       	std	Z+49, r1	; 0x31
    51d6:	10 aa       	std	Z+48, r1	; 0x30
    51d8:	89 81       	ldd	r24, Y+1	; 0x01
    51da:	9a 81       	ldd	r25, Y+2	; 0x02
    51dc:	2f 81       	ldd	r18, Y+7	; 0x07
    51de:	38 85       	ldd	r19, Y+8	; 0x08
    51e0:	fc 01       	movw	r30, r24
    51e2:	33 83       	std	Z+3, r19	; 0x03
    51e4:	22 83       	std	Z+2, r18	; 0x02
    51e6:	2b 81       	ldd	r18, Y+3	; 0x03
    51e8:	89 81       	ldd	r24, Y+1	; 0x01
    51ea:	9a 81       	ldd	r25, Y+2	; 0x02
    51ec:	fc 01       	movw	r30, r24
    51ee:	21 a3       	std	Z+33, r18	; 0x21
    51f0:	89 81       	ldd	r24, Y+1	; 0x01
    51f2:	9a 81       	ldd	r25, Y+2	; 0x02
    51f4:	23 e0       	ldi	r18, 0x03	; 3
    51f6:	fc 01       	movw	r30, r24
    51f8:	22 a3       	std	Z+34, r18	; 0x22
    51fa:	89 81       	ldd	r24, Y+1	; 0x01
    51fc:	9a 81       	ldd	r25, Y+2	; 0x02
    51fe:	fc 01       	movw	r30, r24
    5200:	12 aa       	std	Z+50, r1	; 0x32
    5202:	89 81       	ldd	r24, Y+1	; 0x01
    5204:	9a 81       	ldd	r25, Y+2	; 0x02
    5206:	fc 01       	movw	r30, r24
    5208:	13 a2       	std	Z+35, r1	; 0x23
    520a:	0e 94 e2 27 	call	0x4fc4	; 0x4fc4 <current_schedee>
    520e:	9c 01       	movw	r18, r24
    5210:	89 81       	ldd	r24, Y+1	; 0x01
    5212:	9a 81       	ldd	r25, Y+2	; 0x02
    5214:	fc 01       	movw	r30, r24
    5216:	31 83       	std	Z+1, r19	; 0x01
    5218:	20 83       	st	Z, r18
    521a:	89 81       	ldd	r24, Y+1	; 0x01
    521c:	9a 81       	ldd	r25, Y+2	; 0x02
    521e:	fc 01       	movw	r30, r24
    5220:	14 aa       	std	Z+52, r1	; 0x34
    5222:	13 aa       	std	Z+51, r1	; 0x33
    5224:	00 00       	nop
    5226:	28 96       	adiw	r28, 0x08	; 8
    5228:	0f b6       	in	r0, 0x3f	; 63
    522a:	f8 94       	cli
    522c:	de bf       	out	0x3e, r29	; 62
    522e:	0f be       	out	0x3f, r0	; 63
    5230:	cd bf       	out	0x3d, r28	; 61
    5232:	df 91       	pop	r29
    5234:	cf 91       	pop	r28
    5236:	08 95       	ret

00005238 <schedee_manager_init>:
    5238:	cf 93       	push	r28
    523a:	df 93       	push	r29
    523c:	00 d0       	rcall	.+0      	; 0x523e <schedee_manager_init+0x6>
    523e:	cd b7       	in	r28, 0x3d	; 61
    5240:	de b7       	in	r29, 0x3e	; 62
    5242:	1a 82       	std	Y+2, r1	; 0x02
    5244:	19 82       	std	Y+1, r1	; 0x01
    5246:	0f c0       	rjmp	.+30     	; 0x5266 <schedee_manager_init+0x2e>
    5248:	89 81       	ldd	r24, Y+1	; 0x01
    524a:	9a 81       	ldd	r25, Y+2	; 0x02
    524c:	88 0f       	add	r24, r24
    524e:	99 1f       	adc	r25, r25
    5250:	88 0f       	add	r24, r24
    5252:	99 1f       	adc	r25, r25
    5254:	83 5b       	subi	r24, 0xB3	; 179
    5256:	9d 4f       	sbci	r25, 0xFD	; 253
    5258:	0e 94 83 26 	call	0x4d06	; 0x4d06 <dlist_init>
    525c:	89 81       	ldd	r24, Y+1	; 0x01
    525e:	9a 81       	ldd	r25, Y+2	; 0x02
    5260:	01 96       	adiw	r24, 0x01	; 1
    5262:	9a 83       	std	Y+2, r25	; 0x02
    5264:	89 83       	std	Y+1, r24	; 0x01
    5266:	89 81       	ldd	r24, Y+1	; 0x01
    5268:	9a 81       	ldd	r25, Y+2	; 0x02
    526a:	04 97       	sbiw	r24, 0x04	; 4
    526c:	6c f3       	brlt	.-38     	; 0x5248 <schedee_manager_init+0x10>
    526e:	00 00       	nop
    5270:	0f 90       	pop	r0
    5272:	0f 90       	pop	r0
    5274:	df 91       	pop	r29
    5276:	cf 91       	pop	r28
    5278:	08 95       	ret

0000527a <schedee_start>:
    527a:	cf 93       	push	r28
    527c:	df 93       	push	r29
    527e:	00 d0       	rcall	.+0      	; 0x5280 <schedee_start+0x6>
    5280:	cd b7       	in	r28, 0x3d	; 61
    5282:	de b7       	in	r29, 0x3e	; 62
    5284:	9a 83       	std	Y+2, r25	; 0x02
    5286:	89 83       	std	Y+1, r24	; 0x01
    5288:	0e 94 f0 00 	call	0x1e0	; 0x1e0 <system_lock>
    528c:	89 81       	ldd	r24, Y+1	; 0x01
    528e:	9a 81       	ldd	r25, Y+2	; 0x02
    5290:	fc 01       	movw	r30, r24
    5292:	12 a2       	std	Z+34, r1	; 0x22
    5294:	89 81       	ldd	r24, Y+1	; 0x01
    5296:	9a 81       	ldd	r25, Y+2	; 0x02
    5298:	fc 01       	movw	r30, r24
    529a:	14 86       	std	Z+12, r1	; 0x0c
    529c:	89 81       	ldd	r24, Y+1	; 0x01
    529e:	9a 81       	ldd	r25, Y+2	; 0x02
    52a0:	06 96       	adiw	r24, 0x06	; 6
    52a2:	64 e0       	ldi	r22, 0x04	; 4
    52a4:	71 e0       	ldi	r23, 0x01	; 1
    52a6:	0e 94 4e 27 	call	0x4e9c	; 0x4e9c <dlist_move_tail>
    52aa:	0e 94 1b 01 	call	0x236	; 0x236 <system_unlock>
    52ae:	00 00       	nop
    52b0:	0f 90       	pop	r0
    52b2:	0f 90       	pop	r0
    52b4:	df 91       	pop	r29
    52b6:	cf 91       	pop	r28
    52b8:	08 95       	ret

000052ba <__schedee_run>:
    52ba:	cf 93       	push	r28
    52bc:	df 93       	push	r29
    52be:	00 d0       	rcall	.+0      	; 0x52c0 <__schedee_run+0x6>
    52c0:	cd b7       	in	r28, 0x3d	; 61
    52c2:	de b7       	in	r29, 0x3e	; 62
    52c4:	9a 83       	std	Y+2, r25	; 0x02
    52c6:	89 83       	std	Y+1, r24	; 0x01
    52c8:	89 81       	ldd	r24, Y+1	; 0x01
    52ca:	9a 81       	ldd	r25, Y+2	; 0x02
    52cc:	fc 01       	movw	r30, r24
    52ce:	81 a1       	ldd	r24, Z+33	; 0x21
    52d0:	88 2f       	mov	r24, r24
    52d2:	90 e0       	ldi	r25, 0x00	; 0
    52d4:	88 0f       	add	r24, r24
    52d6:	99 1f       	adc	r25, r25
    52d8:	88 0f       	add	r24, r24
    52da:	99 1f       	adc	r25, r25
    52dc:	9c 01       	movw	r18, r24
    52de:	23 5b       	subi	r18, 0xB3	; 179
    52e0:	3d 4f       	sbci	r19, 0xFD	; 253
    52e2:	89 81       	ldd	r24, Y+1	; 0x01
    52e4:	9a 81       	ldd	r25, Y+2	; 0x02
    52e6:	06 96       	adiw	r24, 0x06	; 6
    52e8:	b9 01       	movw	r22, r18
    52ea:	0e 94 4e 27 	call	0x4e9c	; 0x4e9c <dlist_move_tail>
    52ee:	00 00       	nop
    52f0:	0f 90       	pop	r0
    52f2:	0f 90       	pop	r0
    52f4:	df 91       	pop	r29
    52f6:	cf 91       	pop	r28
    52f8:	08 95       	ret

000052fa <__schedee_final>:
    52fa:	cf 93       	push	r28
    52fc:	df 93       	push	r29
    52fe:	00 d0       	rcall	.+0      	; 0x5300 <__schedee_final+0x6>
    5300:	cd b7       	in	r28, 0x3d	; 61
    5302:	de b7       	in	r29, 0x3e	; 62
    5304:	9a 83       	std	Y+2, r25	; 0x02
    5306:	89 83       	std	Y+1, r24	; 0x01
    5308:	0e 94 f0 00 	call	0x1e0	; 0x1e0 <system_lock>
    530c:	89 81       	ldd	r24, Y+1	; 0x01
    530e:	9a 81       	ldd	r25, Y+2	; 0x02
    5310:	24 e0       	ldi	r18, 0x04	; 4
    5312:	fc 01       	movw	r30, r24
    5314:	22 a3       	std	Z+34, r18	; 0x22
    5316:	89 81       	ldd	r24, Y+1	; 0x01
    5318:	9a 81       	ldd	r25, Y+2	; 0x02
    531a:	06 96       	adiw	r24, 0x06	; 6
    531c:	6c e0       	ldi	r22, 0x0C	; 12
    531e:	71 e0       	ldi	r23, 0x01	; 1
    5320:	0e 94 4e 27 	call	0x4e9c	; 0x4e9c <dlist_move_tail>
    5324:	0e 94 1b 01 	call	0x236	; 0x236 <system_unlock>
    5328:	00 00       	nop
    532a:	0f 90       	pop	r0
    532c:	0f 90       	pop	r0
    532e:	df 91       	pop	r29
    5330:	cf 91       	pop	r28
    5332:	08 95       	ret

00005334 <__schedee_execute>:
    5334:	cf 93       	push	r28
    5336:	df 93       	push	r29
    5338:	00 d0       	rcall	.+0      	; 0x533a <__schedee_execute+0x6>
    533a:	cd b7       	in	r28, 0x3d	; 61
    533c:	de b7       	in	r29, 0x3e	; 62
    533e:	9a 83       	std	Y+2, r25	; 0x02
    5340:	89 83       	std	Y+1, r24	; 0x01
    5342:	89 81       	ldd	r24, Y+1	; 0x01
    5344:	9a 81       	ldd	r25, Y+2	; 0x02
    5346:	90 93 44 02 	sts	0x0244, r25	; 0x800244 <__current_schedee+0x1>
    534a:	80 93 43 02 	sts	0x0243, r24	; 0x800243 <__current_schedee>
    534e:	89 81       	ldd	r24, Y+1	; 0x01
    5350:	9a 81       	ldd	r25, Y+2	; 0x02
    5352:	fc 01       	movw	r30, r24
    5354:	22 a9       	ldd	r18, Z+50	; 0x32
    5356:	21 60       	ori	r18, 0x01	; 1
    5358:	fc 01       	movw	r30, r24
    535a:	22 ab       	std	Z+50, r18	; 0x32
    535c:	89 81       	ldd	r24, Y+1	; 0x01
    535e:	9a 81       	ldd	r25, Y+2	; 0x02
    5360:	fc 01       	movw	r30, r24
    5362:	80 a9       	ldd	r24, Z+48	; 0x30
    5364:	91 a9       	ldd	r25, Z+49	; 0x31
    5366:	9c 01       	movw	r18, r24
    5368:	2f 5f       	subi	r18, 0xFF	; 255
    536a:	3f 4f       	sbci	r19, 0xFF	; 255
    536c:	89 81       	ldd	r24, Y+1	; 0x01
    536e:	9a 81       	ldd	r25, Y+2	; 0x02
    5370:	fc 01       	movw	r30, r24
    5372:	31 ab       	std	Z+49, r19	; 0x31
    5374:	20 ab       	std	Z+48, r18	; 0x30
    5376:	89 81       	ldd	r24, Y+1	; 0x01
    5378:	9a 81       	ldd	r25, Y+2	; 0x02
    537a:	fc 01       	movw	r30, r24
    537c:	82 81       	ldd	r24, Z+2	; 0x02
    537e:	93 81       	ldd	r25, Z+3	; 0x03
    5380:	fc 01       	movw	r30, r24
    5382:	20 81       	ld	r18, Z
    5384:	31 81       	ldd	r19, Z+1	; 0x01
    5386:	89 81       	ldd	r24, Y+1	; 0x01
    5388:	9a 81       	ldd	r25, Y+2	; 0x02
    538a:	f9 01       	movw	r30, r18
    538c:	09 95       	icall
    538e:	00 00       	nop
    5390:	0f 90       	pop	r0
    5392:	0f 90       	pop	r0
    5394:	df 91       	pop	r29
    5396:	cf 91       	pop	r28
    5398:	08 95       	ret

0000539a <schedee_notify_finalize>:
    539a:	cf 93       	push	r28
    539c:	df 93       	push	r29
    539e:	00 d0       	rcall	.+0      	; 0x53a0 <schedee_notify_finalize+0x6>
    53a0:	cd b7       	in	r28, 0x3d	; 61
    53a2:	de b7       	in	r29, 0x3e	; 62
    53a4:	9a 83       	std	Y+2, r25	; 0x02
    53a6:	89 83       	std	Y+1, r24	; 0x01
    53a8:	89 81       	ldd	r24, Y+1	; 0x01
    53aa:	9a 81       	ldd	r25, Y+2	; 0x02
    53ac:	fc 01       	movw	r30, r24
    53ae:	80 81       	ld	r24, Z
    53b0:	91 81       	ldd	r25, Z+1	; 0x01
    53b2:	89 2b       	or	r24, r25
    53b4:	61 f0       	breq	.+24     	; 0x53ce <schedee_notify_finalize+0x34>
    53b6:	89 81       	ldd	r24, Y+1	; 0x01
    53b8:	9a 81       	ldd	r25, Y+2	; 0x02
    53ba:	fc 01       	movw	r30, r24
    53bc:	80 81       	ld	r24, Z
    53be:	91 81       	ldd	r25, Z+1	; 0x01
    53c0:	fc 01       	movw	r30, r24
    53c2:	24 81       	ldd	r18, Z+4	; 0x04
    53c4:	35 81       	ldd	r19, Z+5	; 0x05
    53c6:	8f ed       	ldi	r24, 0xDF	; 223
    53c8:	9f ef       	ldi	r25, 0xFF	; 255
    53ca:	f9 01       	movw	r30, r18
    53cc:	09 95       	icall
    53ce:	00 00       	nop
    53d0:	0f 90       	pop	r0
    53d2:	0f 90       	pop	r0
    53d4:	df 91       	pop	r29
    53d6:	cf 91       	pop	r28
    53d8:	08 95       	ret

000053da <schedee_manager_step>:
    53da:	cf 93       	push	r28
    53dc:	df 93       	push	r29
    53de:	00 d0       	rcall	.+0      	; 0x53e0 <schedee_manager_step+0x6>
    53e0:	00 d0       	rcall	.+0      	; 0x53e2 <schedee_manager_step+0x8>
    53e2:	cd b7       	in	r28, 0x3d	; 61
    53e4:	de b7       	in	r29, 0x3e	; 62
    53e6:	0e 94 f0 00 	call	0x1e0	; 0x1e0 <system_lock>
    53ea:	25 c0       	rjmp	.+74     	; 0x5436 <schedee_manager_step+0x5c>
    53ec:	80 91 0c 01 	lds	r24, 0x010C	; 0x80010c <finallist>
    53f0:	90 91 0d 01 	lds	r25, 0x010D	; 0x80010d <finallist+0x1>
    53f4:	06 97       	sbiw	r24, 0x06	; 6
    53f6:	9c 83       	std	Y+4, r25	; 0x04
    53f8:	8b 83       	std	Y+3, r24	; 0x03
    53fa:	8b 81       	ldd	r24, Y+3	; 0x03
    53fc:	9c 81       	ldd	r25, Y+4	; 0x04
    53fe:	06 96       	adiw	r24, 0x06	; 6
    5400:	0e 94 30 27 	call	0x4e60	; 0x4e60 <dlist_del_init>
    5404:	0e 94 1b 01 	call	0x236	; 0x236 <system_unlock>
    5408:	8b 81       	ldd	r24, Y+3	; 0x03
    540a:	9c 81       	ldd	r25, Y+4	; 0x04
    540c:	25 e0       	ldi	r18, 0x05	; 5
    540e:	fc 01       	movw	r30, r24
    5410:	22 a3       	std	Z+34, r18	; 0x22
    5412:	8b 81       	ldd	r24, Y+3	; 0x03
    5414:	9c 81       	ldd	r25, Y+4	; 0x04
    5416:	fc 01       	movw	r30, r24
    5418:	82 81       	ldd	r24, Z+2	; 0x02
    541a:	93 81       	ldd	r25, Z+3	; 0x03
    541c:	fc 01       	movw	r30, r24
    541e:	22 81       	ldd	r18, Z+2	; 0x02
    5420:	33 81       	ldd	r19, Z+3	; 0x03
    5422:	8b 81       	ldd	r24, Y+3	; 0x03
    5424:	9c 81       	ldd	r25, Y+4	; 0x04
    5426:	f9 01       	movw	r30, r18
    5428:	09 95       	icall
    542a:	8b 81       	ldd	r24, Y+3	; 0x03
    542c:	9c 81       	ldd	r25, Y+4	; 0x04
    542e:	0e 94 cd 29 	call	0x539a	; 0x539a <schedee_notify_finalize>
    5432:	0e 94 f0 00 	call	0x1e0	; 0x1e0 <system_lock>
    5436:	8c e0       	ldi	r24, 0x0C	; 12
    5438:	91 e0       	ldi	r25, 0x01	; 1
    543a:	0e 94 74 27 	call	0x4ee8	; 0x4ee8 <dlist_empty>
    543e:	89 2b       	or	r24, r25
    5440:	a9 f2       	breq	.-86     	; 0x53ec <schedee_manager_step+0x12>
    5442:	0e 94 1b 01 	call	0x236	; 0x236 <system_unlock>
    5446:	0e 94 f0 00 	call	0x1e0	; 0x1e0 <system_lock>
    544a:	0b c0       	rjmp	.+22     	; 0x5462 <schedee_manager_step+0x88>
    544c:	80 91 04 01 	lds	r24, 0x0104	; 0x800104 <unstoplist>
    5450:	90 91 05 01 	lds	r25, 0x0105	; 0x800105 <unstoplist+0x1>
    5454:	06 97       	sbiw	r24, 0x06	; 6
    5456:	9c 83       	std	Y+4, r25	; 0x04
    5458:	8b 83       	std	Y+3, r24	; 0x03
    545a:	8b 81       	ldd	r24, Y+3	; 0x03
    545c:	9c 81       	ldd	r25, Y+4	; 0x04
    545e:	0e 94 5d 29 	call	0x52ba	; 0x52ba <__schedee_run>
    5462:	84 e0       	ldi	r24, 0x04	; 4
    5464:	91 e0       	ldi	r25, 0x01	; 1
    5466:	0e 94 74 27 	call	0x4ee8	; 0x4ee8 <dlist_empty>
    546a:	89 2b       	or	r24, r25
    546c:	79 f3       	breq	.-34     	; 0x544c <schedee_manager_step+0x72>
    546e:	0e 94 1b 01 	call	0x236	; 0x236 <system_unlock>
    5472:	1a 82       	std	Y+2, r1	; 0x02
    5474:	19 82       	std	Y+1, r1	; 0x01
    5476:	3f c0       	rjmp	.+126    	; 0x54f6 <schedee_manager_step+0x11c>
    5478:	89 81       	ldd	r24, Y+1	; 0x01
    547a:	9a 81       	ldd	r25, Y+2	; 0x02
    547c:	88 0f       	add	r24, r24
    547e:	99 1f       	adc	r25, r25
    5480:	88 0f       	add	r24, r24
    5482:	99 1f       	adc	r25, r25
    5484:	83 5b       	subi	r24, 0xB3	; 179
    5486:	9d 4f       	sbci	r25, 0xFD	; 253
    5488:	0e 94 74 27 	call	0x4ee8	; 0x4ee8 <dlist_empty>
    548c:	89 2b       	or	r24, r25
    548e:	71 f5       	brne	.+92     	; 0x54ec <schedee_manager_step+0x112>
    5490:	89 81       	ldd	r24, Y+1	; 0x01
    5492:	9a 81       	ldd	r25, Y+2	; 0x02
    5494:	88 0f       	add	r24, r24
    5496:	99 1f       	adc	r25, r25
    5498:	88 0f       	add	r24, r24
    549a:	99 1f       	adc	r25, r25
    549c:	83 5b       	subi	r24, 0xB3	; 179
    549e:	9d 4f       	sbci	r25, 0xFD	; 253
    54a0:	fc 01       	movw	r30, r24
    54a2:	80 81       	ld	r24, Z
    54a4:	91 81       	ldd	r25, Z+1	; 0x01
    54a6:	06 97       	sbiw	r24, 0x06	; 6
    54a8:	9c 83       	std	Y+4, r25	; 0x04
    54aa:	8b 83       	std	Y+3, r24	; 0x03
    54ac:	8b 81       	ldd	r24, Y+3	; 0x03
    54ae:	9c 81       	ldd	r25, Y+4	; 0x04
    54b0:	fc 01       	movw	r30, r24
    54b2:	82 a9       	ldd	r24, Z+50	; 0x32
    54b4:	80 72       	andi	r24, 0x20	; 32
    54b6:	88 23       	and	r24, r24
    54b8:	29 f0       	breq	.+10     	; 0x54c4 <schedee_manager_step+0xea>
    54ba:	8b 81       	ldd	r24, Y+3	; 0x03
    54bc:	9c 81       	ldd	r25, Y+4	; 0x04
    54be:	0e 94 7d 29 	call	0x52fa	; 0x52fa <__schedee_final>
    54c2:	1f c0       	rjmp	.+62     	; 0x5502 <schedee_manager_step+0x128>
    54c4:	89 81       	ldd	r24, Y+1	; 0x01
    54c6:	9a 81       	ldd	r25, Y+2	; 0x02
    54c8:	88 0f       	add	r24, r24
    54ca:	99 1f       	adc	r25, r25
    54cc:	88 0f       	add	r24, r24
    54ce:	99 1f       	adc	r25, r25
    54d0:	9c 01       	movw	r18, r24
    54d2:	23 5b       	subi	r18, 0xB3	; 179
    54d4:	3d 4f       	sbci	r19, 0xFD	; 253
    54d6:	8b 81       	ldd	r24, Y+3	; 0x03
    54d8:	9c 81       	ldd	r25, Y+4	; 0x04
    54da:	06 96       	adiw	r24, 0x06	; 6
    54dc:	b9 01       	movw	r22, r18
    54de:	0e 94 4e 27 	call	0x4e9c	; 0x4e9c <dlist_move_tail>
    54e2:	8b 81       	ldd	r24, Y+3	; 0x03
    54e4:	9c 81       	ldd	r25, Y+4	; 0x04
    54e6:	0e 94 9a 29 	call	0x5334	; 0x5334 <__schedee_execute>
    54ea:	0b c0       	rjmp	.+22     	; 0x5502 <schedee_manager_step+0x128>
    54ec:	89 81       	ldd	r24, Y+1	; 0x01
    54ee:	9a 81       	ldd	r25, Y+2	; 0x02
    54f0:	01 96       	adiw	r24, 0x01	; 1
    54f2:	9a 83       	std	Y+2, r25	; 0x02
    54f4:	89 83       	std	Y+1, r24	; 0x01
    54f6:	89 81       	ldd	r24, Y+1	; 0x01
    54f8:	9a 81       	ldd	r25, Y+2	; 0x02
    54fa:	04 97       	sbiw	r24, 0x04	; 4
    54fc:	0c f4       	brge	.+2      	; 0x5500 <schedee_manager_step+0x126>
    54fe:	bc cf       	rjmp	.-136    	; 0x5478 <schedee_manager_step+0x9e>
    5500:	00 00       	nop
    5502:	0f 90       	pop	r0
    5504:	0f 90       	pop	r0
    5506:	0f 90       	pop	r0
    5508:	0f 90       	pop	r0
    550a:	df 91       	pop	r29
    550c:	cf 91       	pop	r28
    550e:	08 95       	ret

00005510 <jiffies>:
    5510:	af 92       	push	r10
    5512:	bf 92       	push	r11
    5514:	cf 92       	push	r12
    5516:	df 92       	push	r13
    5518:	ef 92       	push	r14
    551a:	ff 92       	push	r15
    551c:	0f 93       	push	r16
    551e:	1f 93       	push	r17
    5520:	cf 93       	push	r28
    5522:	df 93       	push	r29
    5524:	cd b7       	in	r28, 0x3d	; 61
    5526:	de b7       	in	r29, 0x3e	; 62
    5528:	28 97       	sbiw	r28, 0x08	; 8
    552a:	0f b6       	in	r0, 0x3f	; 63
    552c:	f8 94       	cli
    552e:	de bf       	out	0x3e, r29	; 62
    5530:	0f be       	out	0x3f, r0	; 63
    5532:	cd bf       	out	0x3d, r28	; 61
    5534:	0e 94 f0 00 	call	0x1e0	; 0x1e0 <system_lock>
    5538:	80 91 45 02 	lds	r24, 0x0245	; 0x800245 <__jiffies>
    553c:	89 83       	std	Y+1, r24	; 0x01
    553e:	80 91 46 02 	lds	r24, 0x0246	; 0x800246 <__jiffies+0x1>
    5542:	8a 83       	std	Y+2, r24	; 0x02
    5544:	80 91 47 02 	lds	r24, 0x0247	; 0x800247 <__jiffies+0x2>
    5548:	8b 83       	std	Y+3, r24	; 0x03
    554a:	80 91 48 02 	lds	r24, 0x0248	; 0x800248 <__jiffies+0x3>
    554e:	8c 83       	std	Y+4, r24	; 0x04
    5550:	80 91 49 02 	lds	r24, 0x0249	; 0x800249 <__jiffies+0x4>
    5554:	8d 83       	std	Y+5, r24	; 0x05
    5556:	80 91 4a 02 	lds	r24, 0x024A	; 0x80024a <__jiffies+0x5>
    555a:	8e 83       	std	Y+6, r24	; 0x06
    555c:	80 91 4b 02 	lds	r24, 0x024B	; 0x80024b <__jiffies+0x6>
    5560:	8f 83       	std	Y+7, r24	; 0x07
    5562:	80 91 4c 02 	lds	r24, 0x024C	; 0x80024c <__jiffies+0x7>
    5566:	88 87       	std	Y+8, r24	; 0x08
    5568:	0e 94 1b 01 	call	0x236	; 0x236 <system_unlock>
    556c:	29 81       	ldd	r18, Y+1	; 0x01
    556e:	3a 81       	ldd	r19, Y+2	; 0x02
    5570:	4b 81       	ldd	r20, Y+3	; 0x03
    5572:	5c 81       	ldd	r21, Y+4	; 0x04
    5574:	6d 81       	ldd	r22, Y+5	; 0x05
    5576:	7e 81       	ldd	r23, Y+6	; 0x06
    5578:	8f 81       	ldd	r24, Y+7	; 0x07
    557a:	98 85       	ldd	r25, Y+8	; 0x08
    557c:	a2 2e       	mov	r10, r18
    557e:	b3 2e       	mov	r11, r19
    5580:	c4 2e       	mov	r12, r20
    5582:	d5 2e       	mov	r13, r21
    5584:	e6 2e       	mov	r14, r22
    5586:	f7 2e       	mov	r15, r23
    5588:	08 2f       	mov	r16, r24
    558a:	19 2f       	mov	r17, r25
    558c:	2a 2d       	mov	r18, r10
    558e:	3b 2d       	mov	r19, r11
    5590:	4c 2d       	mov	r20, r12
    5592:	5d 2d       	mov	r21, r13
    5594:	6e 2d       	mov	r22, r14
    5596:	7f 2d       	mov	r23, r15
    5598:	80 2f       	mov	r24, r16
    559a:	91 2f       	mov	r25, r17
    559c:	28 96       	adiw	r28, 0x08	; 8
    559e:	0f b6       	in	r0, 0x3f	; 63
    55a0:	f8 94       	cli
    55a2:	de bf       	out	0x3e, r29	; 62
    55a4:	0f be       	out	0x3f, r0	; 63
    55a6:	cd bf       	out	0x3d, r28	; 61
    55a8:	df 91       	pop	r29
    55aa:	cf 91       	pop	r28
    55ac:	1f 91       	pop	r17
    55ae:	0f 91       	pop	r16
    55b0:	ff 90       	pop	r15
    55b2:	ef 90       	pop	r14
    55b4:	df 90       	pop	r13
    55b6:	cf 90       	pop	r12
    55b8:	bf 90       	pop	r11
    55ba:	af 90       	pop	r10
    55bc:	08 95       	ret

000055be <systime_set_frequency>:
    55be:	cf 93       	push	r28
    55c0:	df 93       	push	r29
    55c2:	00 d0       	rcall	.+0      	; 0x55c4 <systime_set_frequency+0x6>
    55c4:	00 d0       	rcall	.+0      	; 0x55c6 <systime_set_frequency+0x8>
    55c6:	cd b7       	in	r28, 0x3d	; 61
    55c8:	de b7       	in	r29, 0x3e	; 62
    55ca:	69 83       	std	Y+1, r22	; 0x01
    55cc:	7a 83       	std	Y+2, r23	; 0x02
    55ce:	8b 83       	std	Y+3, r24	; 0x03
    55d0:	9c 83       	std	Y+4, r25	; 0x04
    55d2:	89 81       	ldd	r24, Y+1	; 0x01
    55d4:	9a 81       	ldd	r25, Y+2	; 0x02
    55d6:	ab 81       	ldd	r26, Y+3	; 0x03
    55d8:	bc 81       	ldd	r27, Y+4	; 0x04
    55da:	80 93 10 01 	sts	0x0110, r24	; 0x800110 <system_frequency>
    55de:	90 93 11 01 	sts	0x0111, r25	; 0x800111 <system_frequency+0x1>
    55e2:	a0 93 12 01 	sts	0x0112, r26	; 0x800112 <system_frequency+0x2>
    55e6:	b0 93 13 01 	sts	0x0113, r27	; 0x800113 <system_frequency+0x3>
    55ea:	80 e0       	ldi	r24, 0x00	; 0
    55ec:	98 ee       	ldi	r25, 0xE8	; 232
    55ee:	a3 e0       	ldi	r26, 0x03	; 3
    55f0:	b0 e0       	ldi	r27, 0x00	; 0
    55f2:	29 81       	ldd	r18, Y+1	; 0x01
    55f4:	3a 81       	ldd	r19, Y+2	; 0x02
    55f6:	4b 81       	ldd	r20, Y+3	; 0x03
    55f8:	5c 81       	ldd	r21, Y+4	; 0x04
    55fa:	bc 01       	movw	r22, r24
    55fc:	cd 01       	movw	r24, r26
    55fe:	0e 94 6d 30 	call	0x60da	; 0x60da <__udivmodsi4>
    5602:	da 01       	movw	r26, r20
    5604:	c9 01       	movw	r24, r18
    5606:	80 93 18 01 	sts	0x0118, r24	; 0x800118 <jiffies_to_millis>
    560a:	90 93 19 01 	sts	0x0119, r25	; 0x800119 <jiffies_to_millis+0x1>
    560e:	a0 93 1a 01 	sts	0x011A, r26	; 0x80011a <jiffies_to_millis+0x2>
    5612:	b0 93 1b 01 	sts	0x011B, r27	; 0x80011b <jiffies_to_millis+0x3>
    5616:	80 e0       	ldi	r24, 0x00	; 0
    5618:	90 ea       	ldi	r25, 0xA0	; 160
    561a:	af e0       	ldi	r26, 0x0F	; 15
    561c:	b0 e0       	ldi	r27, 0x00	; 0
    561e:	80 93 1c 01 	sts	0x011C, r24	; 0x80011c <lopart_to_micros>
    5622:	90 93 1d 01 	sts	0x011D, r25	; 0x80011d <lopart_to_micros+0x1>
    5626:	a0 93 1e 01 	sts	0x011E, r26	; 0x80011e <lopart_to_micros+0x2>
    562a:	b0 93 1f 01 	sts	0x011F, r27	; 0x80011f <lopart_to_micros+0x3>
    562e:	00 00       	nop
    5630:	0f 90       	pop	r0
    5632:	0f 90       	pop	r0
    5634:	0f 90       	pop	r0
    5636:	0f 90       	pop	r0
    5638:	df 91       	pop	r29
    563a:	cf 91       	pop	r28
    563c:	08 95       	ret

0000563e <millis>:
    563e:	2f 92       	push	r2
    5640:	3f 92       	push	r3
    5642:	4f 92       	push	r4
    5644:	5f 92       	push	r5
    5646:	6f 92       	push	r6
    5648:	7f 92       	push	r7
    564a:	8f 92       	push	r8
    564c:	9f 92       	push	r9
    564e:	af 92       	push	r10
    5650:	bf 92       	push	r11
    5652:	cf 92       	push	r12
    5654:	df 92       	push	r13
    5656:	ef 92       	push	r14
    5658:	ff 92       	push	r15
    565a:	0f 93       	push	r16
    565c:	1f 93       	push	r17
    565e:	cf 93       	push	r28
    5660:	df 93       	push	r29
    5662:	cd b7       	in	r28, 0x3d	; 61
    5664:	de b7       	in	r29, 0x3e	; 62
    5666:	0e 94 88 2a 	call	0x5510	; 0x5510 <jiffies>
    566a:	22 2e       	mov	r2, r18
    566c:	33 2e       	mov	r3, r19
    566e:	44 2e       	mov	r4, r20
    5670:	55 2e       	mov	r5, r21
    5672:	66 2e       	mov	r6, r22
    5674:	77 2e       	mov	r7, r23
    5676:	88 2e       	mov	r8, r24
    5678:	99 2e       	mov	r9, r25
    567a:	80 91 18 01 	lds	r24, 0x0118	; 0x800118 <jiffies_to_millis>
    567e:	90 91 19 01 	lds	r25, 0x0119	; 0x800119 <jiffies_to_millis+0x1>
    5682:	a0 91 1a 01 	lds	r26, 0x011A	; 0x80011a <jiffies_to_millis+0x2>
    5686:	b0 91 1b 01 	lds	r27, 0x011B	; 0x80011b <jiffies_to_millis+0x3>
    568a:	9c 01       	movw	r18, r24
    568c:	ad 01       	movw	r20, r26
    568e:	60 e0       	ldi	r22, 0x00	; 0
    5690:	70 e0       	ldi	r23, 0x00	; 0
    5692:	cb 01       	movw	r24, r22
    5694:	a2 2e       	mov	r10, r18
    5696:	b3 2e       	mov	r11, r19
    5698:	c4 2e       	mov	r12, r20
    569a:	d5 2e       	mov	r13, r21
    569c:	e6 2e       	mov	r14, r22
    569e:	f7 2e       	mov	r15, r23
    56a0:	08 2f       	mov	r16, r24
    56a2:	19 2f       	mov	r17, r25
    56a4:	22 2d       	mov	r18, r2
    56a6:	33 2d       	mov	r19, r3
    56a8:	44 2d       	mov	r20, r4
    56aa:	55 2d       	mov	r21, r5
    56ac:	66 2d       	mov	r22, r6
    56ae:	77 2d       	mov	r23, r7
    56b0:	88 2d       	mov	r24, r8
    56b2:	99 2d       	mov	r25, r9
    56b4:	0e 94 b9 30 	call	0x6172	; 0x6172 <__muldi3>
    56b8:	22 2e       	mov	r2, r18
    56ba:	33 2e       	mov	r3, r19
    56bc:	44 2e       	mov	r4, r20
    56be:	55 2e       	mov	r5, r21
    56c0:	66 2e       	mov	r6, r22
    56c2:	77 2e       	mov	r7, r23
    56c4:	88 2e       	mov	r8, r24
    56c6:	99 2e       	mov	r9, r25
    56c8:	a2 2c       	mov	r10, r2
    56ca:	b3 2c       	mov	r11, r3
    56cc:	c4 2c       	mov	r12, r4
    56ce:	d5 2c       	mov	r13, r5
    56d0:	e6 2c       	mov	r14, r6
    56d2:	f7 2c       	mov	r15, r7
    56d4:	08 2d       	mov	r16, r8
    56d6:	19 2d       	mov	r17, r9
    56d8:	2a 2d       	mov	r18, r10
    56da:	3b 2d       	mov	r19, r11
    56dc:	4c 2d       	mov	r20, r12
    56de:	5d 2d       	mov	r21, r13
    56e0:	6e 2d       	mov	r22, r14
    56e2:	7f 2d       	mov	r23, r15
    56e4:	80 2f       	mov	r24, r16
    56e6:	91 2f       	mov	r25, r17
    56e8:	08 e0       	ldi	r16, 0x08	; 8
    56ea:	0e 94 9a 31 	call	0x6334	; 0x6334 <__ashrdi3>
    56ee:	22 2e       	mov	r2, r18
    56f0:	33 2e       	mov	r3, r19
    56f2:	44 2e       	mov	r4, r20
    56f4:	55 2e       	mov	r5, r21
    56f6:	66 2e       	mov	r6, r22
    56f8:	77 2e       	mov	r7, r23
    56fa:	88 2e       	mov	r8, r24
    56fc:	99 2e       	mov	r9, r25
    56fe:	a2 2c       	mov	r10, r2
    5700:	b3 2c       	mov	r11, r3
    5702:	c4 2c       	mov	r12, r4
    5704:	d5 2c       	mov	r13, r5
    5706:	e6 2c       	mov	r14, r6
    5708:	f7 2c       	mov	r15, r7
    570a:	08 2d       	mov	r16, r8
    570c:	19 2d       	mov	r17, r9
    570e:	2a 2d       	mov	r18, r10
    5710:	3b 2d       	mov	r19, r11
    5712:	4c 2d       	mov	r20, r12
    5714:	5d 2d       	mov	r21, r13
    5716:	6e 2d       	mov	r22, r14
    5718:	7f 2d       	mov	r23, r15
    571a:	80 2f       	mov	r24, r16
    571c:	91 2f       	mov	r25, r17
    571e:	df 91       	pop	r29
    5720:	cf 91       	pop	r28
    5722:	1f 91       	pop	r17
    5724:	0f 91       	pop	r16
    5726:	ff 90       	pop	r15
    5728:	ef 90       	pop	r14
    572a:	df 90       	pop	r13
    572c:	cf 90       	pop	r12
    572e:	bf 90       	pop	r11
    5730:	af 90       	pop	r10
    5732:	9f 90       	pop	r9
    5734:	8f 90       	pop	r8
    5736:	7f 90       	pop	r7
    5738:	6f 90       	pop	r6
    573a:	5f 90       	pop	r5
    573c:	4f 90       	pop	r4
    573e:	3f 90       	pop	r3
    5740:	2f 90       	pop	r2
    5742:	08 95       	ret

00005744 <delay>:
    5744:	2f 92       	push	r2
    5746:	3f 92       	push	r3
    5748:	4f 92       	push	r4
    574a:	5f 92       	push	r5
    574c:	6f 92       	push	r6
    574e:	7f 92       	push	r7
    5750:	8f 92       	push	r8
    5752:	9f 92       	push	r9
    5754:	af 92       	push	r10
    5756:	bf 92       	push	r11
    5758:	cf 92       	push	r12
    575a:	df 92       	push	r13
    575c:	ef 92       	push	r14
    575e:	ff 92       	push	r15
    5760:	0f 93       	push	r16
    5762:	1f 93       	push	r17
    5764:	cf 93       	push	r28
    5766:	df 93       	push	r29
    5768:	cd b7       	in	r28, 0x3d	; 61
    576a:	de b7       	in	r29, 0x3e	; 62
    576c:	64 97       	sbiw	r28, 0x14	; 20
    576e:	0f b6       	in	r0, 0x3f	; 63
    5770:	f8 94       	cli
    5772:	de bf       	out	0x3e, r29	; 62
    5774:	0f be       	out	0x3f, r0	; 63
    5776:	cd bf       	out	0x3d, r28	; 61
    5778:	69 8b       	std	Y+17, r22	; 0x11
    577a:	7a 8b       	std	Y+18, r23	; 0x12
    577c:	8b 8b       	std	Y+19, r24	; 0x13
    577e:	9c 8b       	std	Y+20, r25	; 0x14
    5780:	0e 94 1f 2b 	call	0x563e	; 0x563e <millis>
    5784:	a2 2e       	mov	r10, r18
    5786:	b3 2e       	mov	r11, r19
    5788:	c4 2e       	mov	r12, r20
    578a:	d5 2e       	mov	r13, r21
    578c:	e6 2e       	mov	r14, r22
    578e:	f7 2e       	mov	r15, r23
    5790:	08 2f       	mov	r16, r24
    5792:	19 2f       	mov	r17, r25
    5794:	a9 82       	std	Y+1, r10	; 0x01
    5796:	ba 82       	std	Y+2, r11	; 0x02
    5798:	cb 82       	std	Y+3, r12	; 0x03
    579a:	dc 82       	std	Y+4, r13	; 0x04
    579c:	ed 82       	std	Y+5, r14	; 0x05
    579e:	fe 82       	std	Y+6, r15	; 0x06
    57a0:	0f 83       	std	Y+7, r16	; 0x07
    57a2:	18 87       	std	Y+8, r17	; 0x08
    57a4:	29 81       	ldd	r18, Y+1	; 0x01
    57a6:	3a 81       	ldd	r19, Y+2	; 0x02
    57a8:	4b 81       	ldd	r20, Y+3	; 0x03
    57aa:	5c 81       	ldd	r21, Y+4	; 0x04
    57ac:	6d 81       	ldd	r22, Y+5	; 0x05
    57ae:	7e 81       	ldd	r23, Y+6	; 0x06
    57b0:	8f 81       	ldd	r24, Y+7	; 0x07
    57b2:	98 85       	ldd	r25, Y+8	; 0x08
    57b4:	0e 94 50 33 	call	0x66a0	; 0x66a0 <__floatdisf>
    57b8:	dc 01       	movw	r26, r24
    57ba:	cb 01       	movw	r24, r22
    57bc:	29 89       	ldd	r18, Y+17	; 0x11
    57be:	3a 89       	ldd	r19, Y+18	; 0x12
    57c0:	4b 89       	ldd	r20, Y+19	; 0x13
    57c2:	5c 89       	ldd	r21, Y+20	; 0x14
    57c4:	bc 01       	movw	r22, r24
    57c6:	cd 01       	movw	r24, r26
    57c8:	0e 94 fb 31 	call	0x63f6	; 0x63f6 <__addsf3>
    57cc:	dc 01       	movw	r26, r24
    57ce:	cb 01       	movw	r24, r22
    57d0:	bc 01       	movw	r22, r24
    57d2:	cd 01       	movw	r24, r26
    57d4:	0e 94 de 32 	call	0x65bc	; 0x65bc <__fixsfdi>
    57d8:	a2 2e       	mov	r10, r18
    57da:	b3 2e       	mov	r11, r19
    57dc:	c4 2e       	mov	r12, r20
    57de:	d5 2e       	mov	r13, r21
    57e0:	e6 2e       	mov	r14, r22
    57e2:	f7 2e       	mov	r15, r23
    57e4:	08 2f       	mov	r16, r24
    57e6:	19 2f       	mov	r17, r25
    57e8:	a9 86       	std	Y+9, r10	; 0x09
    57ea:	ba 86       	std	Y+10, r11	; 0x0a
    57ec:	cb 86       	std	Y+11, r12	; 0x0b
    57ee:	dc 86       	std	Y+12, r13	; 0x0c
    57f0:	ed 86       	std	Y+13, r14	; 0x0d
    57f2:	fe 86       	std	Y+14, r15	; 0x0e
    57f4:	0f 87       	std	Y+15, r16	; 0x0f
    57f6:	18 8b       	std	Y+16, r17	; 0x10
    57f8:	00 00       	nop
    57fa:	0e 94 1f 2b 	call	0x563e	; 0x563e <millis>
    57fe:	22 2e       	mov	r2, r18
    5800:	33 2e       	mov	r3, r19
    5802:	44 2e       	mov	r4, r20
    5804:	55 2e       	mov	r5, r21
    5806:	66 2e       	mov	r6, r22
    5808:	77 2e       	mov	r7, r23
    580a:	88 2e       	mov	r8, r24
    580c:	99 2e       	mov	r9, r25
    580e:	29 85       	ldd	r18, Y+9	; 0x09
    5810:	3a 85       	ldd	r19, Y+10	; 0x0a
    5812:	4b 85       	ldd	r20, Y+11	; 0x0b
    5814:	5c 85       	ldd	r21, Y+12	; 0x0c
    5816:	6d 85       	ldd	r22, Y+13	; 0x0d
    5818:	7e 85       	ldd	r23, Y+14	; 0x0e
    581a:	8f 85       	ldd	r24, Y+15	; 0x0f
    581c:	98 89       	ldd	r25, Y+16	; 0x10
    581e:	a2 2c       	mov	r10, r2
    5820:	b3 2c       	mov	r11, r3
    5822:	c4 2c       	mov	r12, r4
    5824:	d5 2c       	mov	r13, r5
    5826:	e6 2c       	mov	r14, r6
    5828:	f7 2c       	mov	r15, r7
    582a:	08 2d       	mov	r16, r8
    582c:	19 2d       	mov	r17, r9
    582e:	0e 94 cd 31 	call	0x639a	; 0x639a <__subdi3>
    5832:	a2 2e       	mov	r10, r18
    5834:	b3 2e       	mov	r11, r19
    5836:	c4 2e       	mov	r12, r20
    5838:	d5 2e       	mov	r13, r21
    583a:	e6 2e       	mov	r14, r22
    583c:	f7 2e       	mov	r15, r23
    583e:	08 2f       	mov	r16, r24
    5840:	19 2f       	mov	r17, r25
    5842:	2a 2d       	mov	r18, r10
    5844:	3b 2d       	mov	r19, r11
    5846:	4c 2d       	mov	r20, r12
    5848:	5d 2d       	mov	r21, r13
    584a:	6e 2d       	mov	r22, r14
    584c:	7f 2d       	mov	r23, r15
    584e:	80 2f       	mov	r24, r16
    5850:	91 2f       	mov	r25, r17
    5852:	a0 e0       	ldi	r26, 0x00	; 0
    5854:	0e 94 df 31 	call	0x63be	; 0x63be <__cmpdi2_s8>
    5858:	09 f0       	breq	.+2      	; 0x585c <delay+0x118>
    585a:	7c f6       	brge	.-98     	; 0x57fa <delay+0xb6>
    585c:	00 00       	nop
    585e:	64 96       	adiw	r28, 0x14	; 20
    5860:	0f b6       	in	r0, 0x3f	; 63
    5862:	f8 94       	cli
    5864:	de bf       	out	0x3e, r29	; 62
    5866:	0f be       	out	0x3f, r0	; 63
    5868:	cd bf       	out	0x3d, r28	; 61
    586a:	df 91       	pop	r29
    586c:	cf 91       	pop	r28
    586e:	1f 91       	pop	r17
    5870:	0f 91       	pop	r16
    5872:	ff 90       	pop	r15
    5874:	ef 90       	pop	r14
    5876:	df 90       	pop	r13
    5878:	cf 90       	pop	r12
    587a:	bf 90       	pop	r11
    587c:	af 90       	pop	r10
    587e:	9f 90       	pop	r9
    5880:	8f 90       	pop	r8
    5882:	7f 90       	pop	r7
    5884:	6f 90       	pop	r6
    5886:	5f 90       	pop	r5
    5888:	4f 90       	pop	r4
    588a:	3f 90       	pop	r3
    588c:	2f 90       	pop	r2
    588e:	08 95       	ret

00005890 <ms2jiffies>:
    5890:	af 92       	push	r10
    5892:	bf 92       	push	r11
    5894:	cf 92       	push	r12
    5896:	df 92       	push	r13
    5898:	ef 92       	push	r14
    589a:	ff 92       	push	r15
    589c:	0f 93       	push	r16
    589e:	1f 93       	push	r17
    58a0:	cf 93       	push	r28
    58a2:	df 93       	push	r29
    58a4:	00 d0       	rcall	.+0      	; 0x58a6 <ms2jiffies+0x16>
    58a6:	00 d0       	rcall	.+0      	; 0x58a8 <ms2jiffies+0x18>
    58a8:	cd b7       	in	r28, 0x3d	; 61
    58aa:	de b7       	in	r29, 0x3e	; 62
    58ac:	69 83       	std	Y+1, r22	; 0x01
    58ae:	7a 83       	std	Y+2, r23	; 0x02
    58b0:	8b 83       	std	Y+3, r24	; 0x03
    58b2:	9c 83       	std	Y+4, r25	; 0x04
    58b4:	89 81       	ldd	r24, Y+1	; 0x01
    58b6:	9a 81       	ldd	r25, Y+2	; 0x02
    58b8:	ab 81       	ldd	r26, Y+3	; 0x03
    58ba:	bc 81       	ldd	r27, Y+4	; 0x04
    58bc:	ba 2f       	mov	r27, r26
    58be:	a9 2f       	mov	r26, r25
    58c0:	98 2f       	mov	r25, r24
    58c2:	88 27       	eor	r24, r24
    58c4:	20 91 18 01 	lds	r18, 0x0118	; 0x800118 <jiffies_to_millis>
    58c8:	30 91 19 01 	lds	r19, 0x0119	; 0x800119 <jiffies_to_millis+0x1>
    58cc:	40 91 1a 01 	lds	r20, 0x011A	; 0x80011a <jiffies_to_millis+0x2>
    58d0:	50 91 1b 01 	lds	r21, 0x011B	; 0x80011b <jiffies_to_millis+0x3>
    58d4:	bc 01       	movw	r22, r24
    58d6:	cd 01       	movw	r24, r26
    58d8:	0e 94 6d 30 	call	0x60da	; 0x60da <__udivmodsi4>
    58dc:	da 01       	movw	r26, r20
    58de:	c9 01       	movw	r24, r18
    58e0:	9c 01       	movw	r18, r24
    58e2:	ad 01       	movw	r20, r26
    58e4:	60 e0       	ldi	r22, 0x00	; 0
    58e6:	70 e0       	ldi	r23, 0x00	; 0
    58e8:	cb 01       	movw	r24, r22
    58ea:	a2 2e       	mov	r10, r18
    58ec:	b3 2e       	mov	r11, r19
    58ee:	c4 2e       	mov	r12, r20
    58f0:	d5 2e       	mov	r13, r21
    58f2:	e6 2e       	mov	r14, r22
    58f4:	f7 2e       	mov	r15, r23
    58f6:	08 2f       	mov	r16, r24
    58f8:	19 2f       	mov	r17, r25
    58fa:	2a 2d       	mov	r18, r10
    58fc:	3b 2d       	mov	r19, r11
    58fe:	4c 2d       	mov	r20, r12
    5900:	5d 2d       	mov	r21, r13
    5902:	6e 2d       	mov	r22, r14
    5904:	7f 2d       	mov	r23, r15
    5906:	80 2f       	mov	r24, r16
    5908:	91 2f       	mov	r25, r17
    590a:	0f 90       	pop	r0
    590c:	0f 90       	pop	r0
    590e:	0f 90       	pop	r0
    5910:	0f 90       	pop	r0
    5912:	df 91       	pop	r29
    5914:	cf 91       	pop	r28
    5916:	1f 91       	pop	r17
    5918:	0f 91       	pop	r16
    591a:	ff 90       	pop	r15
    591c:	ef 90       	pop	r14
    591e:	df 90       	pop	r13
    5920:	cf 90       	pop	r12
    5922:	bf 90       	pop	r11
    5924:	af 90       	pop	r10
    5926:	08 95       	ret

00005928 <jiffies_pair>:
    5928:	2f 92       	push	r2
    592a:	3f 92       	push	r3
    592c:	4f 92       	push	r4
    592e:	5f 92       	push	r5
    5930:	6f 92       	push	r6
    5932:	7f 92       	push	r7
    5934:	8f 92       	push	r8
    5936:	9f 92       	push	r9
    5938:	af 92       	push	r10
    593a:	bf 92       	push	r11
    593c:	cf 92       	push	r12
    593e:	df 92       	push	r13
    5940:	ef 92       	push	r14
    5942:	ff 92       	push	r15
    5944:	0f 93       	push	r16
    5946:	1f 93       	push	r17
    5948:	cf 93       	push	r28
    594a:	df 93       	push	r29
    594c:	cd b7       	in	r28, 0x3d	; 61
    594e:	de b7       	in	r29, 0x3e	; 62
    5950:	a2 97       	sbiw	r28, 0x22	; 34
    5952:	0f b6       	in	r0, 0x3f	; 63
    5954:	f8 94       	cli
    5956:	de bf       	out	0x3e, r29	; 62
    5958:	0f be       	out	0x3f, r0	; 63
    595a:	cd bf       	out	0x3d, r28	; 61
    595c:	9a a3       	std	Y+34, r25	; 0x22
    595e:	89 a3       	std	Y+33, r24	; 0x21
    5960:	0e 94 f0 00 	call	0x1e0	; 0x1e0 <system_lock>
    5964:	19 82       	std	Y+1, r1	; 0x01
    5966:	1a 82       	std	Y+2, r1	; 0x02
    5968:	1b 82       	std	Y+3, r1	; 0x03
    596a:	1c 82       	std	Y+4, r1	; 0x04
    596c:	1d 82       	std	Y+5, r1	; 0x05
    596e:	1e 82       	std	Y+6, r1	; 0x06
    5970:	1f 82       	std	Y+7, r1	; 0x07
    5972:	18 86       	std	Y+8, r1	; 0x08
    5974:	20 91 45 02 	lds	r18, 0x0245	; 0x800245 <__jiffies>
    5978:	30 91 46 02 	lds	r19, 0x0246	; 0x800246 <__jiffies+0x1>
    597c:	40 91 47 02 	lds	r20, 0x0247	; 0x800247 <__jiffies+0x2>
    5980:	50 91 48 02 	lds	r21, 0x0248	; 0x800248 <__jiffies+0x3>
    5984:	60 91 49 02 	lds	r22, 0x0249	; 0x800249 <__jiffies+0x4>
    5988:	70 91 4a 02 	lds	r23, 0x024A	; 0x80024a <__jiffies+0x5>
    598c:	80 91 4b 02 	lds	r24, 0x024B	; 0x80024b <__jiffies+0x6>
    5990:	90 91 4c 02 	lds	r25, 0x024C	; 0x80024c <__jiffies+0x7>
    5994:	29 8b       	std	Y+17, r18	; 0x11
    5996:	3a 8b       	std	Y+18, r19	; 0x12
    5998:	4b 8b       	std	Y+19, r20	; 0x13
    599a:	5c 8b       	std	Y+20, r21	; 0x14
    599c:	6d 8b       	std	Y+21, r22	; 0x15
    599e:	7e 8b       	std	Y+22, r23	; 0x16
    59a0:	8f 8b       	std	Y+23, r24	; 0x17
    59a2:	98 8f       	std	Y+24, r25	; 0x18
    59a4:	19 8e       	std	Y+25, r1	; 0x19
    59a6:	1a 8e       	std	Y+26, r1	; 0x1a
    59a8:	1b 8e       	std	Y+27, r1	; 0x1b
    59aa:	1c 8e       	std	Y+28, r1	; 0x1c
    59ac:	1d 8e       	std	Y+29, r1	; 0x1d
    59ae:	1e 8e       	std	Y+30, r1	; 0x1e
    59b0:	1f 8e       	std	Y+31, r1	; 0x1f
    59b2:	18 a2       	std	Y+32, r1	; 0x20
    59b4:	0e 94 1b 01 	call	0x236	; 0x236 <system_unlock>
    59b8:	0e 94 f0 00 	call	0x1e0	; 0x1e0 <system_lock>
    59bc:	80 91 45 02 	lds	r24, 0x0245	; 0x800245 <__jiffies>
    59c0:	89 87       	std	Y+9, r24	; 0x09
    59c2:	80 91 46 02 	lds	r24, 0x0246	; 0x800246 <__jiffies+0x1>
    59c6:	8a 87       	std	Y+10, r24	; 0x0a
    59c8:	80 91 47 02 	lds	r24, 0x0247	; 0x800247 <__jiffies+0x2>
    59cc:	8b 87       	std	Y+11, r24	; 0x0b
    59ce:	80 91 48 02 	lds	r24, 0x0248	; 0x800248 <__jiffies+0x3>
    59d2:	8c 87       	std	Y+12, r24	; 0x0c
    59d4:	80 91 49 02 	lds	r24, 0x0249	; 0x800249 <__jiffies+0x4>
    59d8:	8d 87       	std	Y+13, r24	; 0x0d
    59da:	80 91 4a 02 	lds	r24, 0x024A	; 0x80024a <__jiffies+0x5>
    59de:	8e 87       	std	Y+14, r24	; 0x0e
    59e0:	80 91 4b 02 	lds	r24, 0x024B	; 0x80024b <__jiffies+0x6>
    59e4:	8f 87       	std	Y+15, r24	; 0x0f
    59e6:	80 91 4c 02 	lds	r24, 0x024C	; 0x80024c <__jiffies+0x7>
    59ea:	88 8b       	std	Y+16, r24	; 0x10
    59ec:	0e 94 1b 01 	call	0x236	; 0x236 <system_unlock>
    59f0:	a9 8c       	ldd	r10, Y+25	; 0x19
    59f2:	ba 8c       	ldd	r11, Y+26	; 0x1a
    59f4:	cb 8c       	ldd	r12, Y+27	; 0x1b
    59f6:	dc 8c       	ldd	r13, Y+28	; 0x1c
    59f8:	ed 8c       	ldd	r14, Y+29	; 0x1d
    59fa:	fe 8c       	ldd	r15, Y+30	; 0x1e
    59fc:	0f 8d       	ldd	r16, Y+31	; 0x1f
    59fe:	18 a1       	ldd	r17, Y+32	; 0x20
    5a00:	29 80       	ldd	r2, Y+1	; 0x01
    5a02:	3a 80       	ldd	r3, Y+2	; 0x02
    5a04:	4b 80       	ldd	r4, Y+3	; 0x03
    5a06:	5c 80       	ldd	r5, Y+4	; 0x04
    5a08:	6d 80       	ldd	r6, Y+5	; 0x05
    5a0a:	7e 80       	ldd	r7, Y+6	; 0x06
    5a0c:	8f 80       	ldd	r8, Y+7	; 0x07
    5a0e:	98 84       	ldd	r9, Y+8	; 0x08
    5a10:	2a 2d       	mov	r18, r10
    5a12:	3b 2d       	mov	r19, r11
    5a14:	4c 2d       	mov	r20, r12
    5a16:	5d 2d       	mov	r21, r13
    5a18:	6e 2d       	mov	r22, r14
    5a1a:	7f 2d       	mov	r23, r15
    5a1c:	80 2f       	mov	r24, r16
    5a1e:	91 2f       	mov	r25, r17
    5a20:	a2 2c       	mov	r10, r2
    5a22:	b3 2c       	mov	r11, r3
    5a24:	c4 2c       	mov	r12, r4
    5a26:	d5 2c       	mov	r13, r5
    5a28:	e6 2c       	mov	r14, r6
    5a2a:	f7 2c       	mov	r15, r7
    5a2c:	08 2d       	mov	r16, r8
    5a2e:	19 2d       	mov	r17, r9
    5a30:	0e 94 d6 31 	call	0x63ac	; 0x63ac <__cmpdi2>
    5a34:	0c f4       	brge	.+2      	; 0x5a38 <jiffies_pair+0x110>
    5a36:	94 cf       	rjmp	.-216    	; 0x5960 <jiffies_pair+0x38>
    5a38:	a9 88       	ldd	r10, Y+17	; 0x11
    5a3a:	ba 88       	ldd	r11, Y+18	; 0x12
    5a3c:	cb 88       	ldd	r12, Y+19	; 0x13
    5a3e:	dc 88       	ldd	r13, Y+20	; 0x14
    5a40:	ed 88       	ldd	r14, Y+21	; 0x15
    5a42:	fe 88       	ldd	r15, Y+22	; 0x16
    5a44:	0f 89       	ldd	r16, Y+23	; 0x17
    5a46:	18 8d       	ldd	r17, Y+24	; 0x18
    5a48:	29 84       	ldd	r2, Y+9	; 0x09
    5a4a:	3a 84       	ldd	r3, Y+10	; 0x0a
    5a4c:	4b 84       	ldd	r4, Y+11	; 0x0b
    5a4e:	5c 84       	ldd	r5, Y+12	; 0x0c
    5a50:	6d 84       	ldd	r6, Y+13	; 0x0d
    5a52:	7e 84       	ldd	r7, Y+14	; 0x0e
    5a54:	8f 84       	ldd	r8, Y+15	; 0x0f
    5a56:	98 88       	ldd	r9, Y+16	; 0x10
    5a58:	2a 2d       	mov	r18, r10
    5a5a:	3b 2d       	mov	r19, r11
    5a5c:	4c 2d       	mov	r20, r12
    5a5e:	5d 2d       	mov	r21, r13
    5a60:	6e 2d       	mov	r22, r14
    5a62:	7f 2d       	mov	r23, r15
    5a64:	80 2f       	mov	r24, r16
    5a66:	91 2f       	mov	r25, r17
    5a68:	a2 2c       	mov	r10, r2
    5a6a:	b3 2c       	mov	r11, r3
    5a6c:	c4 2c       	mov	r12, r4
    5a6e:	d5 2c       	mov	r13, r5
    5a70:	e6 2c       	mov	r14, r6
    5a72:	f7 2c       	mov	r15, r7
    5a74:	08 2d       	mov	r16, r8
    5a76:	19 2d       	mov	r17, r9
    5a78:	0e 94 d6 31 	call	0x63ac	; 0x63ac <__cmpdi2>
    5a7c:	09 f0       	breq	.+2      	; 0x5a80 <jiffies_pair+0x158>
    5a7e:	70 cf       	rjmp	.-288    	; 0x5960 <jiffies_pair+0x38>
    5a80:	89 a1       	ldd	r24, Y+33	; 0x21
    5a82:	9a a1       	ldd	r25, Y+34	; 0x22
    5a84:	20 e1       	ldi	r18, 0x10	; 16
    5a86:	fe 01       	movw	r30, r28
    5a88:	71 96       	adiw	r30, 0x11	; 17
    5a8a:	dc 01       	movw	r26, r24
    5a8c:	01 90       	ld	r0, Z+
    5a8e:	0d 92       	st	X+, r0
    5a90:	2a 95       	dec	r18
    5a92:	e1 f7       	brne	.-8      	; 0x5a8c <jiffies_pair+0x164>
    5a94:	89 a1       	ldd	r24, Y+33	; 0x21
    5a96:	9a a1       	ldd	r25, Y+34	; 0x22
    5a98:	a2 96       	adiw	r28, 0x22	; 34
    5a9a:	0f b6       	in	r0, 0x3f	; 63
    5a9c:	f8 94       	cli
    5a9e:	de bf       	out	0x3e, r29	; 62
    5aa0:	0f be       	out	0x3f, r0	; 63
    5aa2:	cd bf       	out	0x3d, r28	; 61
    5aa4:	df 91       	pop	r29
    5aa6:	cf 91       	pop	r28
    5aa8:	1f 91       	pop	r17
    5aaa:	0f 91       	pop	r16
    5aac:	ff 90       	pop	r15
    5aae:	ef 90       	pop	r14
    5ab0:	df 90       	pop	r13
    5ab2:	cf 90       	pop	r12
    5ab4:	bf 90       	pop	r11
    5ab6:	af 90       	pop	r10
    5ab8:	9f 90       	pop	r9
    5aba:	8f 90       	pop	r8
    5abc:	7f 90       	pop	r7
    5abe:	6f 90       	pop	r6
    5ac0:	5f 90       	pop	r5
    5ac2:	4f 90       	pop	r4
    5ac4:	3f 90       	pop	r3
    5ac6:	2f 90       	pop	r2
    5ac8:	08 95       	ret

00005aca <jiffies_pair_to_micros>:
    5aca:	2f 92       	push	r2
    5acc:	3f 92       	push	r3
    5ace:	4f 92       	push	r4
    5ad0:	5f 92       	push	r5
    5ad2:	6f 92       	push	r6
    5ad4:	7f 92       	push	r7
    5ad6:	8f 92       	push	r8
    5ad8:	9f 92       	push	r9
    5ada:	af 92       	push	r10
    5adc:	bf 92       	push	r11
    5ade:	cf 92       	push	r12
    5ae0:	df 92       	push	r13
    5ae2:	ef 92       	push	r14
    5ae4:	ff 92       	push	r15
    5ae6:	0f 93       	push	r16
    5ae8:	1f 93       	push	r17
    5aea:	cf 93       	push	r28
    5aec:	df 93       	push	r29
    5aee:	cd b7       	in	r28, 0x3d	; 61
    5af0:	de b7       	in	r29, 0x3e	; 62
    5af2:	a0 97       	sbiw	r28, 0x20	; 32
    5af4:	0f b6       	in	r0, 0x3f	; 63
    5af6:	f8 94       	cli
    5af8:	de bf       	out	0x3e, r29	; 62
    5afa:	0f be       	out	0x3f, r0	; 63
    5afc:	cd bf       	out	0x3d, r28	; 61
    5afe:	a9 86       	std	Y+9, r10	; 0x09
    5b00:	ba 86       	std	Y+10, r11	; 0x0a
    5b02:	cb 86       	std	Y+11, r12	; 0x0b
    5b04:	dc 86       	std	Y+12, r13	; 0x0c
    5b06:	ed 86       	std	Y+13, r14	; 0x0d
    5b08:	fe 86       	std	Y+14, r15	; 0x0e
    5b0a:	0f 87       	std	Y+15, r16	; 0x0f
    5b0c:	18 8b       	std	Y+16, r17	; 0x10
    5b0e:	29 8b       	std	Y+17, r18	; 0x11
    5b10:	3a 8b       	std	Y+18, r19	; 0x12
    5b12:	4b 8b       	std	Y+19, r20	; 0x13
    5b14:	5c 8b       	std	Y+20, r21	; 0x14
    5b16:	6d 8b       	std	Y+21, r22	; 0x15
    5b18:	7e 8b       	std	Y+22, r23	; 0x16
    5b1a:	8f 8b       	std	Y+23, r24	; 0x17
    5b1c:	98 8f       	std	Y+24, r25	; 0x18
    5b1e:	29 84       	ldd	r2, Y+9	; 0x09
    5b20:	3a 84       	ldd	r3, Y+10	; 0x0a
    5b22:	4b 84       	ldd	r4, Y+11	; 0x0b
    5b24:	5c 84       	ldd	r5, Y+12	; 0x0c
    5b26:	6d 84       	ldd	r6, Y+13	; 0x0d
    5b28:	7e 84       	ldd	r7, Y+14	; 0x0e
    5b2a:	8f 84       	ldd	r8, Y+15	; 0x0f
    5b2c:	98 88       	ldd	r9, Y+16	; 0x10
    5b2e:	80 91 18 01 	lds	r24, 0x0118	; 0x800118 <jiffies_to_millis>
    5b32:	90 91 19 01 	lds	r25, 0x0119	; 0x800119 <jiffies_to_millis+0x1>
    5b36:	a0 91 1a 01 	lds	r26, 0x011A	; 0x80011a <jiffies_to_millis+0x2>
    5b3a:	b0 91 1b 01 	lds	r27, 0x011B	; 0x80011b <jiffies_to_millis+0x3>
    5b3e:	9c 01       	movw	r18, r24
    5b40:	ad 01       	movw	r20, r26
    5b42:	60 e0       	ldi	r22, 0x00	; 0
    5b44:	70 e0       	ldi	r23, 0x00	; 0
    5b46:	cb 01       	movw	r24, r22
    5b48:	a2 2e       	mov	r10, r18
    5b4a:	b3 2e       	mov	r11, r19
    5b4c:	c4 2e       	mov	r12, r20
    5b4e:	d5 2e       	mov	r13, r21
    5b50:	e6 2e       	mov	r14, r22
    5b52:	f7 2e       	mov	r15, r23
    5b54:	08 2f       	mov	r16, r24
    5b56:	19 2f       	mov	r17, r25
    5b58:	22 2d       	mov	r18, r2
    5b5a:	33 2d       	mov	r19, r3
    5b5c:	44 2d       	mov	r20, r4
    5b5e:	55 2d       	mov	r21, r5
    5b60:	66 2d       	mov	r22, r6
    5b62:	77 2d       	mov	r23, r7
    5b64:	88 2d       	mov	r24, r8
    5b66:	99 2d       	mov	r25, r9
    5b68:	0e 94 b9 30 	call	0x6172	; 0x6172 <__muldi3>
    5b6c:	22 2e       	mov	r2, r18
    5b6e:	33 2e       	mov	r3, r19
    5b70:	44 2e       	mov	r4, r20
    5b72:	55 2e       	mov	r5, r21
    5b74:	66 2e       	mov	r6, r22
    5b76:	77 2e       	mov	r7, r23
    5b78:	88 2e       	mov	r8, r24
    5b7a:	99 2e       	mov	r9, r25
    5b7c:	a2 2c       	mov	r10, r2
    5b7e:	b3 2c       	mov	r11, r3
    5b80:	c4 2c       	mov	r12, r4
    5b82:	d5 2c       	mov	r13, r5
    5b84:	e6 2c       	mov	r14, r6
    5b86:	f7 2c       	mov	r15, r7
    5b88:	08 2d       	mov	r16, r8
    5b8a:	19 2d       	mov	r17, r9
    5b8c:	2a 2d       	mov	r18, r10
    5b8e:	3b 2d       	mov	r19, r11
    5b90:	4c 2d       	mov	r20, r12
    5b92:	5d 2d       	mov	r21, r13
    5b94:	6e 2d       	mov	r22, r14
    5b96:	7f 2d       	mov	r23, r15
    5b98:	80 2f       	mov	r24, r16
    5b9a:	91 2f       	mov	r25, r17
    5b9c:	08 e0       	ldi	r16, 0x08	; 8
    5b9e:	0e 94 9a 31 	call	0x6334	; 0x6334 <__ashrdi3>
    5ba2:	29 8f       	std	Y+25, r18	; 0x19
    5ba4:	3a 8f       	std	Y+26, r19	; 0x1a
    5ba6:	4b 8f       	std	Y+27, r20	; 0x1b
    5ba8:	5c 8f       	std	Y+28, r21	; 0x1c
    5baa:	6d 8f       	std	Y+29, r22	; 0x1d
    5bac:	7e 8f       	std	Y+30, r23	; 0x1e
    5bae:	8f 8f       	std	Y+31, r24	; 0x1f
    5bb0:	98 a3       	std	Y+32, r25	; 0x20
    5bb2:	29 8c       	ldd	r2, Y+25	; 0x19
    5bb4:	3a 8c       	ldd	r3, Y+26	; 0x1a
    5bb6:	4b 8c       	ldd	r4, Y+27	; 0x1b
    5bb8:	5c 8c       	ldd	r5, Y+28	; 0x1c
    5bba:	6d 8c       	ldd	r6, Y+29	; 0x1d
    5bbc:	7e 8c       	ldd	r7, Y+30	; 0x1e
    5bbe:	8f 8c       	ldd	r8, Y+31	; 0x1f
    5bc0:	98 a0       	ldd	r9, Y+32	; 0x20
    5bc2:	22 2d       	mov	r18, r2
    5bc4:	33 2d       	mov	r19, r3
    5bc6:	44 2d       	mov	r20, r4
    5bc8:	55 2d       	mov	r21, r5
    5bca:	66 2d       	mov	r22, r6
    5bcc:	77 2d       	mov	r23, r7
    5bce:	88 2d       	mov	r24, r8
    5bd0:	99 2d       	mov	r25, r9
    5bd2:	02 e0       	ldi	r16, 0x02	; 2
    5bd4:	0e 94 81 31 	call	0x6302	; 0x6302 <__ashldi3>
    5bd8:	a2 2e       	mov	r10, r18
    5bda:	b3 2e       	mov	r11, r19
    5bdc:	c4 2e       	mov	r12, r20
    5bde:	d5 2e       	mov	r13, r21
    5be0:	e6 2e       	mov	r14, r22
    5be2:	f7 2e       	mov	r15, r23
    5be4:	08 2f       	mov	r16, r24
    5be6:	19 2f       	mov	r17, r25
    5be8:	2a 2c       	mov	r2, r10
    5bea:	3b 2c       	mov	r3, r11
    5bec:	4c 2c       	mov	r4, r12
    5bee:	5d 2c       	mov	r5, r13
    5bf0:	6e 2c       	mov	r6, r14
    5bf2:	7f 2c       	mov	r7, r15
    5bf4:	80 2e       	mov	r8, r16
    5bf6:	91 2e       	mov	r9, r17
    5bf8:	22 2d       	mov	r18, r2
    5bfa:	33 2d       	mov	r19, r3
    5bfc:	44 2d       	mov	r20, r4
    5bfe:	55 2d       	mov	r21, r5
    5c00:	66 2d       	mov	r22, r6
    5c02:	77 2d       	mov	r23, r7
    5c04:	88 2d       	mov	r24, r8
    5c06:	99 2d       	mov	r25, r9
    5c08:	05 e0       	ldi	r16, 0x05	; 5
    5c0a:	0e 94 81 31 	call	0x6302	; 0x6302 <__ashldi3>
    5c0e:	a2 2e       	mov	r10, r18
    5c10:	b3 2e       	mov	r11, r19
    5c12:	c4 2e       	mov	r12, r20
    5c14:	d5 2e       	mov	r13, r21
    5c16:	e6 2e       	mov	r14, r22
    5c18:	f7 2e       	mov	r15, r23
    5c1a:	08 2f       	mov	r16, r24
    5c1c:	19 2f       	mov	r17, r25
    5c1e:	2a 2d       	mov	r18, r10
    5c20:	3b 2d       	mov	r19, r11
    5c22:	4c 2d       	mov	r20, r12
    5c24:	5d 2d       	mov	r21, r13
    5c26:	6e 2d       	mov	r22, r14
    5c28:	7f 2d       	mov	r23, r15
    5c2a:	80 2f       	mov	r24, r16
    5c2c:	91 2f       	mov	r25, r17
    5c2e:	a2 2c       	mov	r10, r2
    5c30:	b3 2c       	mov	r11, r3
    5c32:	c4 2c       	mov	r12, r4
    5c34:	d5 2c       	mov	r13, r5
    5c36:	e6 2c       	mov	r14, r6
    5c38:	f7 2c       	mov	r15, r7
    5c3a:	08 2d       	mov	r16, r8
    5c3c:	19 2d       	mov	r17, r9
    5c3e:	0e 94 cd 31 	call	0x639a	; 0x639a <__subdi3>
    5c42:	a2 2e       	mov	r10, r18
    5c44:	b3 2e       	mov	r11, r19
    5c46:	c4 2e       	mov	r12, r20
    5c48:	d5 2e       	mov	r13, r21
    5c4a:	e6 2e       	mov	r14, r22
    5c4c:	f7 2e       	mov	r15, r23
    5c4e:	08 2f       	mov	r16, r24
    5c50:	19 2f       	mov	r17, r25
    5c52:	2a 2d       	mov	r18, r10
    5c54:	3b 2d       	mov	r19, r11
    5c56:	4c 2d       	mov	r20, r12
    5c58:	5d 2d       	mov	r21, r13
    5c5a:	6e 2d       	mov	r22, r14
    5c5c:	7f 2d       	mov	r23, r15
    5c5e:	80 2f       	mov	r24, r16
    5c60:	91 2f       	mov	r25, r17
    5c62:	a9 8c       	ldd	r10, Y+25	; 0x19
    5c64:	ba 8c       	ldd	r11, Y+26	; 0x1a
    5c66:	cb 8c       	ldd	r12, Y+27	; 0x1b
    5c68:	dc 8c       	ldd	r13, Y+28	; 0x1c
    5c6a:	ed 8c       	ldd	r14, Y+29	; 0x1d
    5c6c:	fe 8c       	ldd	r15, Y+30	; 0x1e
    5c6e:	0f 8d       	ldd	r16, Y+31	; 0x1f
    5c70:	18 a1       	ldd	r17, Y+32	; 0x20
    5c72:	0e 94 b8 31 	call	0x6370	; 0x6370 <__adddi3>
    5c76:	a2 2e       	mov	r10, r18
    5c78:	b3 2e       	mov	r11, r19
    5c7a:	c4 2e       	mov	r12, r20
    5c7c:	d5 2e       	mov	r13, r21
    5c7e:	e6 2e       	mov	r14, r22
    5c80:	f7 2e       	mov	r15, r23
    5c82:	08 2f       	mov	r16, r24
    5c84:	19 2f       	mov	r17, r25
    5c86:	2a 2d       	mov	r18, r10
    5c88:	3b 2d       	mov	r19, r11
    5c8a:	4c 2d       	mov	r20, r12
    5c8c:	5d 2d       	mov	r21, r13
    5c8e:	6e 2d       	mov	r22, r14
    5c90:	7f 2d       	mov	r23, r15
    5c92:	80 2f       	mov	r24, r16
    5c94:	91 2f       	mov	r25, r17
    5c96:	03 e0       	ldi	r16, 0x03	; 3
    5c98:	0e 94 81 31 	call	0x6302	; 0x6302 <__ashldi3>
    5c9c:	22 2e       	mov	r2, r18
    5c9e:	33 2e       	mov	r3, r19
    5ca0:	44 2e       	mov	r4, r20
    5ca2:	55 2e       	mov	r5, r21
    5ca4:	66 2e       	mov	r6, r22
    5ca6:	77 2e       	mov	r7, r23
    5ca8:	88 2e       	mov	r8, r24
    5caa:	99 2e       	mov	r9, r25
    5cac:	a2 2c       	mov	r10, r2
    5cae:	b3 2c       	mov	r11, r3
    5cb0:	c4 2c       	mov	r12, r4
    5cb2:	d5 2c       	mov	r13, r5
    5cb4:	e6 2c       	mov	r14, r6
    5cb6:	f7 2c       	mov	r15, r7
    5cb8:	08 2d       	mov	r16, r8
    5cba:	19 2d       	mov	r17, r9
    5cbc:	a9 82       	std	Y+1, r10	; 0x01
    5cbe:	ba 82       	std	Y+2, r11	; 0x02
    5cc0:	cb 82       	std	Y+3, r12	; 0x03
    5cc2:	dc 82       	std	Y+4, r13	; 0x04
    5cc4:	ed 82       	std	Y+5, r14	; 0x05
    5cc6:	fe 82       	std	Y+6, r15	; 0x06
    5cc8:	0f 83       	std	Y+7, r16	; 0x07
    5cca:	18 87       	std	Y+8, r17	; 0x08
    5ccc:	29 88       	ldd	r2, Y+17	; 0x11
    5cce:	3a 88       	ldd	r3, Y+18	; 0x12
    5cd0:	4b 88       	ldd	r4, Y+19	; 0x13
    5cd2:	5c 88       	ldd	r5, Y+20	; 0x14
    5cd4:	6d 88       	ldd	r6, Y+21	; 0x15
    5cd6:	7e 88       	ldd	r7, Y+22	; 0x16
    5cd8:	8f 88       	ldd	r8, Y+23	; 0x17
    5cda:	98 8c       	ldd	r9, Y+24	; 0x18
    5cdc:	80 91 1c 01 	lds	r24, 0x011C	; 0x80011c <lopart_to_micros>
    5ce0:	90 91 1d 01 	lds	r25, 0x011D	; 0x80011d <lopart_to_micros+0x1>
    5ce4:	a0 91 1e 01 	lds	r26, 0x011E	; 0x80011e <lopart_to_micros+0x2>
    5ce8:	b0 91 1f 01 	lds	r27, 0x011F	; 0x80011f <lopart_to_micros+0x3>
    5cec:	9c 01       	movw	r18, r24
    5cee:	ad 01       	movw	r20, r26
    5cf0:	60 e0       	ldi	r22, 0x00	; 0
    5cf2:	70 e0       	ldi	r23, 0x00	; 0
    5cf4:	cb 01       	movw	r24, r22
    5cf6:	a2 2e       	mov	r10, r18
    5cf8:	b3 2e       	mov	r11, r19
    5cfa:	c4 2e       	mov	r12, r20
    5cfc:	d5 2e       	mov	r13, r21
    5cfe:	e6 2e       	mov	r14, r22
    5d00:	f7 2e       	mov	r15, r23
    5d02:	08 2f       	mov	r16, r24
    5d04:	19 2f       	mov	r17, r25
    5d06:	22 2d       	mov	r18, r2
    5d08:	33 2d       	mov	r19, r3
    5d0a:	44 2d       	mov	r20, r4
    5d0c:	55 2d       	mov	r21, r5
    5d0e:	66 2d       	mov	r22, r6
    5d10:	77 2d       	mov	r23, r7
    5d12:	88 2d       	mov	r24, r8
    5d14:	99 2d       	mov	r25, r9
    5d16:	0e 94 b9 30 	call	0x6172	; 0x6172 <__muldi3>
    5d1a:	22 2e       	mov	r2, r18
    5d1c:	33 2e       	mov	r3, r19
    5d1e:	44 2e       	mov	r4, r20
    5d20:	55 2e       	mov	r5, r21
    5d22:	66 2e       	mov	r6, r22
    5d24:	77 2e       	mov	r7, r23
    5d26:	88 2e       	mov	r8, r24
    5d28:	99 2e       	mov	r9, r25
    5d2a:	a2 2c       	mov	r10, r2
    5d2c:	b3 2c       	mov	r11, r3
    5d2e:	c4 2c       	mov	r12, r4
    5d30:	d5 2c       	mov	r13, r5
    5d32:	e6 2c       	mov	r14, r6
    5d34:	f7 2c       	mov	r15, r7
    5d36:	08 2d       	mov	r16, r8
    5d38:	19 2d       	mov	r17, r9
    5d3a:	2a 2d       	mov	r18, r10
    5d3c:	3b 2d       	mov	r19, r11
    5d3e:	4c 2d       	mov	r20, r12
    5d40:	5d 2d       	mov	r21, r13
    5d42:	6e 2d       	mov	r22, r14
    5d44:	7f 2d       	mov	r23, r15
    5d46:	80 2f       	mov	r24, r16
    5d48:	91 2f       	mov	r25, r17
    5d4a:	0a e0       	ldi	r16, 0x0A	; 10
    5d4c:	0e 94 9a 31 	call	0x6334	; 0x6334 <__ashrdi3>
    5d50:	a2 2e       	mov	r10, r18
    5d52:	b3 2e       	mov	r11, r19
    5d54:	c4 2e       	mov	r12, r20
    5d56:	d5 2e       	mov	r13, r21
    5d58:	e6 2e       	mov	r14, r22
    5d5a:	f7 2e       	mov	r15, r23
    5d5c:	08 2f       	mov	r16, r24
    5d5e:	19 2f       	mov	r17, r25
    5d60:	2a 2d       	mov	r18, r10
    5d62:	3b 2d       	mov	r19, r11
    5d64:	4c 2d       	mov	r20, r12
    5d66:	5d 2d       	mov	r21, r13
    5d68:	6e 2d       	mov	r22, r14
    5d6a:	7f 2d       	mov	r23, r15
    5d6c:	80 2f       	mov	r24, r16
    5d6e:	91 2f       	mov	r25, r17
    5d70:	a9 80       	ldd	r10, Y+1	; 0x01
    5d72:	ba 80       	ldd	r11, Y+2	; 0x02
    5d74:	cb 80       	ldd	r12, Y+3	; 0x03
    5d76:	dc 80       	ldd	r13, Y+4	; 0x04
    5d78:	ed 80       	ldd	r14, Y+5	; 0x05
    5d7a:	fe 80       	ldd	r15, Y+6	; 0x06
    5d7c:	0f 81       	ldd	r16, Y+7	; 0x07
    5d7e:	18 85       	ldd	r17, Y+8	; 0x08
    5d80:	0e 94 b8 31 	call	0x6370	; 0x6370 <__adddi3>
    5d84:	a2 2e       	mov	r10, r18
    5d86:	b3 2e       	mov	r11, r19
    5d88:	c4 2e       	mov	r12, r20
    5d8a:	d5 2e       	mov	r13, r21
    5d8c:	e6 2e       	mov	r14, r22
    5d8e:	f7 2e       	mov	r15, r23
    5d90:	08 2f       	mov	r16, r24
    5d92:	19 2f       	mov	r17, r25
    5d94:	a9 82       	std	Y+1, r10	; 0x01
    5d96:	ba 82       	std	Y+2, r11	; 0x02
    5d98:	cb 82       	std	Y+3, r12	; 0x03
    5d9a:	dc 82       	std	Y+4, r13	; 0x04
    5d9c:	ed 82       	std	Y+5, r14	; 0x05
    5d9e:	fe 82       	std	Y+6, r15	; 0x06
    5da0:	0f 83       	std	Y+7, r16	; 0x07
    5da2:	18 87       	std	Y+8, r17	; 0x08
    5da4:	29 81       	ldd	r18, Y+1	; 0x01
    5da6:	3a 81       	ldd	r19, Y+2	; 0x02
    5da8:	4b 81       	ldd	r20, Y+3	; 0x03
    5daa:	5c 81       	ldd	r21, Y+4	; 0x04
    5dac:	6d 81       	ldd	r22, Y+5	; 0x05
    5dae:	7e 81       	ldd	r23, Y+6	; 0x06
    5db0:	8f 81       	ldd	r24, Y+7	; 0x07
    5db2:	98 85       	ldd	r25, Y+8	; 0x08
    5db4:	a2 2e       	mov	r10, r18
    5db6:	b3 2e       	mov	r11, r19
    5db8:	c4 2e       	mov	r12, r20
    5dba:	d5 2e       	mov	r13, r21
    5dbc:	e6 2e       	mov	r14, r22
    5dbe:	f7 2e       	mov	r15, r23
    5dc0:	08 2f       	mov	r16, r24
    5dc2:	19 2f       	mov	r17, r25
    5dc4:	2a 2d       	mov	r18, r10
    5dc6:	3b 2d       	mov	r19, r11
    5dc8:	4c 2d       	mov	r20, r12
    5dca:	5d 2d       	mov	r21, r13
    5dcc:	6e 2d       	mov	r22, r14
    5dce:	7f 2d       	mov	r23, r15
    5dd0:	80 2f       	mov	r24, r16
    5dd2:	91 2f       	mov	r25, r17
    5dd4:	a0 96       	adiw	r28, 0x20	; 32
    5dd6:	0f b6       	in	r0, 0x3f	; 63
    5dd8:	f8 94       	cli
    5dda:	de bf       	out	0x3e, r29	; 62
    5ddc:	0f be       	out	0x3f, r0	; 63
    5dde:	cd bf       	out	0x3d, r28	; 61
    5de0:	df 91       	pop	r29
    5de2:	cf 91       	pop	r28
    5de4:	1f 91       	pop	r17
    5de6:	0f 91       	pop	r16
    5de8:	ff 90       	pop	r15
    5dea:	ef 90       	pop	r14
    5dec:	df 90       	pop	r13
    5dee:	cf 90       	pop	r12
    5df0:	bf 90       	pop	r11
    5df2:	af 90       	pop	r10
    5df4:	9f 90       	pop	r9
    5df6:	8f 90       	pop	r8
    5df8:	7f 90       	pop	r7
    5dfa:	6f 90       	pop	r6
    5dfc:	5f 90       	pop	r5
    5dfe:	4f 90       	pop	r4
    5e00:	3f 90       	pop	r3
    5e02:	2f 90       	pop	r2
    5e04:	08 95       	ret

00005e06 <micros>:
    5e06:	2f 92       	push	r2
    5e08:	3f 92       	push	r3
    5e0a:	4f 92       	push	r4
    5e0c:	5f 92       	push	r5
    5e0e:	6f 92       	push	r6
    5e10:	7f 92       	push	r7
    5e12:	8f 92       	push	r8
    5e14:	9f 92       	push	r9
    5e16:	af 92       	push	r10
    5e18:	bf 92       	push	r11
    5e1a:	cf 92       	push	r12
    5e1c:	df 92       	push	r13
    5e1e:	ef 92       	push	r14
    5e20:	ff 92       	push	r15
    5e22:	0f 93       	push	r16
    5e24:	1f 93       	push	r17
    5e26:	cf 93       	push	r28
    5e28:	df 93       	push	r29
    5e2a:	cd b7       	in	r28, 0x3d	; 61
    5e2c:	de b7       	in	r29, 0x3e	; 62
    5e2e:	60 97       	sbiw	r28, 0x10	; 16
    5e30:	0f b6       	in	r0, 0x3f	; 63
    5e32:	f8 94       	cli
    5e34:	de bf       	out	0x3e, r29	; 62
    5e36:	0f be       	out	0x3f, r0	; 63
    5e38:	cd bf       	out	0x3d, r28	; 61
    5e3a:	ce 01       	movw	r24, r28
    5e3c:	01 96       	adiw	r24, 0x01	; 1
    5e3e:	0e 94 94 2c 	call	0x5928	; 0x5928 <jiffies_pair>
    5e42:	a9 80       	ldd	r10, Y+1	; 0x01
    5e44:	ba 80       	ldd	r11, Y+2	; 0x02
    5e46:	cb 80       	ldd	r12, Y+3	; 0x03
    5e48:	dc 80       	ldd	r13, Y+4	; 0x04
    5e4a:	ed 80       	ldd	r14, Y+5	; 0x05
    5e4c:	fe 80       	ldd	r15, Y+6	; 0x06
    5e4e:	0f 81       	ldd	r16, Y+7	; 0x07
    5e50:	18 85       	ldd	r17, Y+8	; 0x08
    5e52:	29 85       	ldd	r18, Y+9	; 0x09
    5e54:	3a 85       	ldd	r19, Y+10	; 0x0a
    5e56:	4b 85       	ldd	r20, Y+11	; 0x0b
    5e58:	5c 85       	ldd	r21, Y+12	; 0x0c
    5e5a:	6d 85       	ldd	r22, Y+13	; 0x0d
    5e5c:	7e 85       	ldd	r23, Y+14	; 0x0e
    5e5e:	8f 85       	ldd	r24, Y+15	; 0x0f
    5e60:	98 89       	ldd	r25, Y+16	; 0x10
    5e62:	0e 94 65 2d 	call	0x5aca	; 0x5aca <jiffies_pair_to_micros>
    5e66:	22 2e       	mov	r2, r18
    5e68:	33 2e       	mov	r3, r19
    5e6a:	44 2e       	mov	r4, r20
    5e6c:	55 2e       	mov	r5, r21
    5e6e:	66 2e       	mov	r6, r22
    5e70:	77 2e       	mov	r7, r23
    5e72:	88 2e       	mov	r8, r24
    5e74:	99 2e       	mov	r9, r25
    5e76:	a2 2c       	mov	r10, r2
    5e78:	b3 2c       	mov	r11, r3
    5e7a:	c4 2c       	mov	r12, r4
    5e7c:	d5 2c       	mov	r13, r5
    5e7e:	e6 2c       	mov	r14, r6
    5e80:	f7 2c       	mov	r15, r7
    5e82:	08 2d       	mov	r16, r8
    5e84:	19 2d       	mov	r17, r9
    5e86:	2a 2d       	mov	r18, r10
    5e88:	3b 2d       	mov	r19, r11
    5e8a:	4c 2d       	mov	r20, r12
    5e8c:	5d 2d       	mov	r21, r13
    5e8e:	6e 2d       	mov	r22, r14
    5e90:	7f 2d       	mov	r23, r15
    5e92:	80 2f       	mov	r24, r16
    5e94:	91 2f       	mov	r25, r17
    5e96:	60 96       	adiw	r28, 0x10	; 16
    5e98:	0f b6       	in	r0, 0x3f	; 63
    5e9a:	f8 94       	cli
    5e9c:	de bf       	out	0x3e, r29	; 62
    5e9e:	0f be       	out	0x3f, r0	; 63
    5ea0:	cd bf       	out	0x3d, r28	; 61
    5ea2:	df 91       	pop	r29
    5ea4:	cf 91       	pop	r28
    5ea6:	1f 91       	pop	r17
    5ea8:	0f 91       	pop	r16
    5eaa:	ff 90       	pop	r15
    5eac:	ef 90       	pop	r14
    5eae:	df 90       	pop	r13
    5eb0:	cf 90       	pop	r12
    5eb2:	bf 90       	pop	r11
    5eb4:	af 90       	pop	r10
    5eb6:	9f 90       	pop	r9
    5eb8:	8f 90       	pop	r8
    5eba:	7f 90       	pop	r7
    5ebc:	6f 90       	pop	r6
    5ebe:	5f 90       	pop	r5
    5ec0:	4f 90       	pop	r4
    5ec2:	3f 90       	pop	r3
    5ec4:	2f 90       	pop	r2
    5ec6:	08 95       	ret

00005ec8 <jiffies_pair_compare>:
    5ec8:	2f 92       	push	r2
    5eca:	3f 92       	push	r3
    5ecc:	4f 92       	push	r4
    5ece:	5f 92       	push	r5
    5ed0:	6f 92       	push	r6
    5ed2:	7f 92       	push	r7
    5ed4:	8f 92       	push	r8
    5ed6:	9f 92       	push	r9
    5ed8:	af 92       	push	r10
    5eda:	bf 92       	push	r11
    5edc:	cf 92       	push	r12
    5ede:	df 92       	push	r13
    5ee0:	ef 92       	push	r14
    5ee2:	ff 92       	push	r15
    5ee4:	0f 93       	push	r16
    5ee6:	1f 93       	push	r17
    5ee8:	cf 93       	push	r28
    5eea:	df 93       	push	r29
    5eec:	cd b7       	in	r28, 0x3d	; 61
    5eee:	de b7       	in	r29, 0x3e	; 62
    5ef0:	60 97       	sbiw	r28, 0x10	; 16
    5ef2:	0f b6       	in	r0, 0x3f	; 63
    5ef4:	f8 94       	cli
    5ef6:	de bf       	out	0x3e, r29	; 62
    5ef8:	0f be       	out	0x3f, r0	; 63
    5efa:	cd bf       	out	0x3d, r28	; 61
    5efc:	a9 82       	std	Y+1, r10	; 0x01
    5efe:	ba 82       	std	Y+2, r11	; 0x02
    5f00:	cb 82       	std	Y+3, r12	; 0x03
    5f02:	dc 82       	std	Y+4, r13	; 0x04
    5f04:	ed 82       	std	Y+5, r14	; 0x05
    5f06:	fe 82       	std	Y+6, r15	; 0x06
    5f08:	0f 83       	std	Y+7, r16	; 0x07
    5f0a:	18 87       	std	Y+8, r17	; 0x08
    5f0c:	29 87       	std	Y+9, r18	; 0x09
    5f0e:	3a 87       	std	Y+10, r19	; 0x0a
    5f10:	4b 87       	std	Y+11, r20	; 0x0b
    5f12:	5c 87       	std	Y+12, r21	; 0x0c
    5f14:	6d 87       	std	Y+13, r22	; 0x0d
    5f16:	7e 87       	std	Y+14, r23	; 0x0e
    5f18:	8f 87       	std	Y+15, r24	; 0x0f
    5f1a:	98 8b       	std	Y+16, r25	; 0x10
    5f1c:	a9 80       	ldd	r10, Y+1	; 0x01
    5f1e:	ba 80       	ldd	r11, Y+2	; 0x02
    5f20:	cb 80       	ldd	r12, Y+3	; 0x03
    5f22:	dc 80       	ldd	r13, Y+4	; 0x04
    5f24:	ed 80       	ldd	r14, Y+5	; 0x05
    5f26:	fe 80       	ldd	r15, Y+6	; 0x06
    5f28:	0f 81       	ldd	r16, Y+7	; 0x07
    5f2a:	18 85       	ldd	r17, Y+8	; 0x08
    5f2c:	2d a0       	ldd	r2, Y+37	; 0x25
    5f2e:	3e a0       	ldd	r3, Y+38	; 0x26
    5f30:	4f a0       	ldd	r4, Y+39	; 0x27
    5f32:	58 a4       	ldd	r5, Y+40	; 0x28
    5f34:	69 a4       	ldd	r6, Y+41	; 0x29
    5f36:	7a a4       	ldd	r7, Y+42	; 0x2a
    5f38:	8b a4       	ldd	r8, Y+43	; 0x2b
    5f3a:	9c a4       	ldd	r9, Y+44	; 0x2c
    5f3c:	2a 2d       	mov	r18, r10
    5f3e:	3b 2d       	mov	r19, r11
    5f40:	4c 2d       	mov	r20, r12
    5f42:	5d 2d       	mov	r21, r13
    5f44:	6e 2d       	mov	r22, r14
    5f46:	7f 2d       	mov	r23, r15
    5f48:	80 2f       	mov	r24, r16
    5f4a:	91 2f       	mov	r25, r17
    5f4c:	a2 2c       	mov	r10, r2
    5f4e:	b3 2c       	mov	r11, r3
    5f50:	c4 2c       	mov	r12, r4
    5f52:	d5 2c       	mov	r13, r5
    5f54:	e6 2c       	mov	r14, r6
    5f56:	f7 2c       	mov	r15, r7
    5f58:	08 2d       	mov	r16, r8
    5f5a:	19 2d       	mov	r17, r9
    5f5c:	0e 94 d6 31 	call	0x63ac	; 0x63ac <__cmpdi2>
    5f60:	51 f1       	breq	.+84     	; 0x5fb6 <jiffies_pair_compare+0xee>
    5f62:	a9 80       	ldd	r10, Y+1	; 0x01
    5f64:	ba 80       	ldd	r11, Y+2	; 0x02
    5f66:	cb 80       	ldd	r12, Y+3	; 0x03
    5f68:	dc 80       	ldd	r13, Y+4	; 0x04
    5f6a:	ed 80       	ldd	r14, Y+5	; 0x05
    5f6c:	fe 80       	ldd	r15, Y+6	; 0x06
    5f6e:	0f 81       	ldd	r16, Y+7	; 0x07
    5f70:	18 85       	ldd	r17, Y+8	; 0x08
    5f72:	2d a0       	ldd	r2, Y+37	; 0x25
    5f74:	3e a0       	ldd	r3, Y+38	; 0x26
    5f76:	4f a0       	ldd	r4, Y+39	; 0x27
    5f78:	58 a4       	ldd	r5, Y+40	; 0x28
    5f7a:	69 a4       	ldd	r6, Y+41	; 0x29
    5f7c:	7a a4       	ldd	r7, Y+42	; 0x2a
    5f7e:	8b a4       	ldd	r8, Y+43	; 0x2b
    5f80:	9c a4       	ldd	r9, Y+44	; 0x2c
    5f82:	2a 2d       	mov	r18, r10
    5f84:	3b 2d       	mov	r19, r11
    5f86:	4c 2d       	mov	r20, r12
    5f88:	5d 2d       	mov	r21, r13
    5f8a:	6e 2d       	mov	r22, r14
    5f8c:	7f 2d       	mov	r23, r15
    5f8e:	80 2f       	mov	r24, r16
    5f90:	91 2f       	mov	r25, r17
    5f92:	a2 2c       	mov	r10, r2
    5f94:	b3 2c       	mov	r11, r3
    5f96:	c4 2c       	mov	r12, r4
    5f98:	d5 2c       	mov	r13, r5
    5f9a:	e6 2c       	mov	r14, r6
    5f9c:	f7 2c       	mov	r15, r7
    5f9e:	08 2d       	mov	r16, r8
    5fa0:	19 2d       	mov	r17, r9
    5fa2:	0e 94 d6 31 	call	0x63ac	; 0x63ac <__cmpdi2>
    5fa6:	21 f0       	breq	.+8      	; 0x5fb0 <jiffies_pair_compare+0xe8>
    5fa8:	1c f0       	brlt	.+6      	; 0x5fb0 <jiffies_pair_compare+0xe8>
    5faa:	81 e0       	ldi	r24, 0x01	; 1
    5fac:	90 e0       	ldi	r25, 0x00	; 0
    5fae:	52 c0       	rjmp	.+164    	; 0x6054 <jiffies_pair_compare+0x18c>
    5fb0:	8f ef       	ldi	r24, 0xFF	; 255
    5fb2:	9f ef       	ldi	r25, 0xFF	; 255
    5fb4:	4f c0       	rjmp	.+158    	; 0x6054 <jiffies_pair_compare+0x18c>
    5fb6:	a9 84       	ldd	r10, Y+9	; 0x09
    5fb8:	ba 84       	ldd	r11, Y+10	; 0x0a
    5fba:	cb 84       	ldd	r12, Y+11	; 0x0b
    5fbc:	dc 84       	ldd	r13, Y+12	; 0x0c
    5fbe:	ed 84       	ldd	r14, Y+13	; 0x0d
    5fc0:	fe 84       	ldd	r15, Y+14	; 0x0e
    5fc2:	0f 85       	ldd	r16, Y+15	; 0x0f
    5fc4:	18 89       	ldd	r17, Y+16	; 0x10
    5fc6:	2d a4       	ldd	r2, Y+45	; 0x2d
    5fc8:	3e a4       	ldd	r3, Y+46	; 0x2e
    5fca:	4f a4       	ldd	r4, Y+47	; 0x2f
    5fcc:	58 a8       	ldd	r5, Y+48	; 0x30
    5fce:	69 a8       	ldd	r6, Y+49	; 0x31
    5fd0:	7a a8       	ldd	r7, Y+50	; 0x32
    5fd2:	8b a8       	ldd	r8, Y+51	; 0x33
    5fd4:	9c a8       	ldd	r9, Y+52	; 0x34
    5fd6:	2a 2d       	mov	r18, r10
    5fd8:	3b 2d       	mov	r19, r11
    5fda:	4c 2d       	mov	r20, r12
    5fdc:	5d 2d       	mov	r21, r13
    5fde:	6e 2d       	mov	r22, r14
    5fe0:	7f 2d       	mov	r23, r15
    5fe2:	80 2f       	mov	r24, r16
    5fe4:	91 2f       	mov	r25, r17
    5fe6:	a2 2c       	mov	r10, r2
    5fe8:	b3 2c       	mov	r11, r3
    5fea:	c4 2c       	mov	r12, r4
    5fec:	d5 2c       	mov	r13, r5
    5fee:	e6 2c       	mov	r14, r6
    5ff0:	f7 2c       	mov	r15, r7
    5ff2:	08 2d       	mov	r16, r8
    5ff4:	19 2d       	mov	r17, r9
    5ff6:	0e 94 d6 31 	call	0x63ac	; 0x63ac <__cmpdi2>
    5ffa:	51 f1       	breq	.+84     	; 0x6050 <jiffies_pair_compare+0x188>
    5ffc:	a9 84       	ldd	r10, Y+9	; 0x09
    5ffe:	ba 84       	ldd	r11, Y+10	; 0x0a
    6000:	cb 84       	ldd	r12, Y+11	; 0x0b
    6002:	dc 84       	ldd	r13, Y+12	; 0x0c
    6004:	ed 84       	ldd	r14, Y+13	; 0x0d
    6006:	fe 84       	ldd	r15, Y+14	; 0x0e
    6008:	0f 85       	ldd	r16, Y+15	; 0x0f
    600a:	18 89       	ldd	r17, Y+16	; 0x10
    600c:	2d a4       	ldd	r2, Y+45	; 0x2d
    600e:	3e a4       	ldd	r3, Y+46	; 0x2e
    6010:	4f a4       	ldd	r4, Y+47	; 0x2f
    6012:	58 a8       	ldd	r5, Y+48	; 0x30
    6014:	69 a8       	ldd	r6, Y+49	; 0x31
    6016:	7a a8       	ldd	r7, Y+50	; 0x32
    6018:	8b a8       	ldd	r8, Y+51	; 0x33
    601a:	9c a8       	ldd	r9, Y+52	; 0x34
    601c:	2a 2d       	mov	r18, r10
    601e:	3b 2d       	mov	r19, r11
    6020:	4c 2d       	mov	r20, r12
    6022:	5d 2d       	mov	r21, r13
    6024:	6e 2d       	mov	r22, r14
    6026:	7f 2d       	mov	r23, r15
    6028:	80 2f       	mov	r24, r16
    602a:	91 2f       	mov	r25, r17
    602c:	a2 2c       	mov	r10, r2
    602e:	b3 2c       	mov	r11, r3
    6030:	c4 2c       	mov	r12, r4
    6032:	d5 2c       	mov	r13, r5
    6034:	e6 2c       	mov	r14, r6
    6036:	f7 2c       	mov	r15, r7
    6038:	08 2d       	mov	r16, r8
    603a:	19 2d       	mov	r17, r9
    603c:	0e 94 d6 31 	call	0x63ac	; 0x63ac <__cmpdi2>
    6040:	21 f0       	breq	.+8      	; 0x604a <jiffies_pair_compare+0x182>
    6042:	1c f0       	brlt	.+6      	; 0x604a <jiffies_pair_compare+0x182>
    6044:	81 e0       	ldi	r24, 0x01	; 1
    6046:	90 e0       	ldi	r25, 0x00	; 0
    6048:	05 c0       	rjmp	.+10     	; 0x6054 <jiffies_pair_compare+0x18c>
    604a:	8f ef       	ldi	r24, 0xFF	; 255
    604c:	9f ef       	ldi	r25, 0xFF	; 255
    604e:	02 c0       	rjmp	.+4      	; 0x6054 <jiffies_pair_compare+0x18c>
    6050:	80 e0       	ldi	r24, 0x00	; 0
    6052:	90 e0       	ldi	r25, 0x00	; 0
    6054:	60 96       	adiw	r28, 0x10	; 16
    6056:	0f b6       	in	r0, 0x3f	; 63
    6058:	f8 94       	cli
    605a:	de bf       	out	0x3e, r29	; 62
    605c:	0f be       	out	0x3f, r0	; 63
    605e:	cd bf       	out	0x3d, r28	; 61
    6060:	df 91       	pop	r29
    6062:	cf 91       	pop	r28
    6064:	1f 91       	pop	r17
    6066:	0f 91       	pop	r16
    6068:	ff 90       	pop	r15
    606a:	ef 90       	pop	r14
    606c:	df 90       	pop	r13
    606e:	cf 90       	pop	r12
    6070:	bf 90       	pop	r11
    6072:	af 90       	pop	r10
    6074:	9f 90       	pop	r9
    6076:	8f 90       	pop	r8
    6078:	7f 90       	pop	r7
    607a:	6f 90       	pop	r6
    607c:	5f 90       	pop	r5
    607e:	4f 90       	pop	r4
    6080:	3f 90       	pop	r3
    6082:	2f 90       	pop	r2
    6084:	08 95       	ret

00006086 <bug_impl>:
    6086:	cf 93       	push	r28
    6088:	df 93       	push	r29
    608a:	cd b7       	in	r28, 0x3d	; 61
    608c:	de b7       	in	r29, 0x3e	; 62
    608e:	0e 94 cd 34 	call	0x699a	; 0x699a <abort>

00006092 <__mulsi3>:
    6092:	db 01       	movw	r26, r22
    6094:	8f 93       	push	r24
    6096:	9f 93       	push	r25
    6098:	0e 94 ae 30 	call	0x615c	; 0x615c <__muluhisi3>
    609c:	bf 91       	pop	r27
    609e:	af 91       	pop	r26
    60a0:	a2 9f       	mul	r26, r18
    60a2:	80 0d       	add	r24, r0
    60a4:	91 1d       	adc	r25, r1
    60a6:	a3 9f       	mul	r26, r19
    60a8:	90 0d       	add	r25, r0
    60aa:	b2 9f       	mul	r27, r18
    60ac:	90 0d       	add	r25, r0
    60ae:	11 24       	eor	r1, r1
    60b0:	08 95       	ret

000060b2 <__udivmodhi4>:
    60b2:	aa 1b       	sub	r26, r26
    60b4:	bb 1b       	sub	r27, r27
    60b6:	51 e1       	ldi	r21, 0x11	; 17
    60b8:	07 c0       	rjmp	.+14     	; 0x60c8 <__udivmodhi4_ep>

000060ba <__udivmodhi4_loop>:
    60ba:	aa 1f       	adc	r26, r26
    60bc:	bb 1f       	adc	r27, r27
    60be:	a6 17       	cp	r26, r22
    60c0:	b7 07       	cpc	r27, r23
    60c2:	10 f0       	brcs	.+4      	; 0x60c8 <__udivmodhi4_ep>
    60c4:	a6 1b       	sub	r26, r22
    60c6:	b7 0b       	sbc	r27, r23

000060c8 <__udivmodhi4_ep>:
    60c8:	88 1f       	adc	r24, r24
    60ca:	99 1f       	adc	r25, r25
    60cc:	5a 95       	dec	r21
    60ce:	a9 f7       	brne	.-22     	; 0x60ba <__udivmodhi4_loop>
    60d0:	80 95       	com	r24
    60d2:	90 95       	com	r25
    60d4:	bc 01       	movw	r22, r24
    60d6:	cd 01       	movw	r24, r26
    60d8:	08 95       	ret

000060da <__udivmodsi4>:
    60da:	a1 e2       	ldi	r26, 0x21	; 33
    60dc:	1a 2e       	mov	r1, r26
    60de:	aa 1b       	sub	r26, r26
    60e0:	bb 1b       	sub	r27, r27
    60e2:	fd 01       	movw	r30, r26
    60e4:	0d c0       	rjmp	.+26     	; 0x6100 <__udivmodsi4_ep>

000060e6 <__udivmodsi4_loop>:
    60e6:	aa 1f       	adc	r26, r26
    60e8:	bb 1f       	adc	r27, r27
    60ea:	ee 1f       	adc	r30, r30
    60ec:	ff 1f       	adc	r31, r31
    60ee:	a2 17       	cp	r26, r18
    60f0:	b3 07       	cpc	r27, r19
    60f2:	e4 07       	cpc	r30, r20
    60f4:	f5 07       	cpc	r31, r21
    60f6:	20 f0       	brcs	.+8      	; 0x6100 <__udivmodsi4_ep>
    60f8:	a2 1b       	sub	r26, r18
    60fa:	b3 0b       	sbc	r27, r19
    60fc:	e4 0b       	sbc	r30, r20
    60fe:	f5 0b       	sbc	r31, r21

00006100 <__udivmodsi4_ep>:
    6100:	66 1f       	adc	r22, r22
    6102:	77 1f       	adc	r23, r23
    6104:	88 1f       	adc	r24, r24
    6106:	99 1f       	adc	r25, r25
    6108:	1a 94       	dec	r1
    610a:	69 f7       	brne	.-38     	; 0x60e6 <__udivmodsi4_loop>
    610c:	60 95       	com	r22
    610e:	70 95       	com	r23
    6110:	80 95       	com	r24
    6112:	90 95       	com	r25
    6114:	9b 01       	movw	r18, r22
    6116:	ac 01       	movw	r20, r24
    6118:	bd 01       	movw	r22, r26
    611a:	cf 01       	movw	r24, r30
    611c:	08 95       	ret

0000611e <__divmodsi4>:
    611e:	05 2e       	mov	r0, r21
    6120:	97 fb       	bst	r25, 7
    6122:	1e f4       	brtc	.+6      	; 0x612a <__divmodsi4+0xc>
    6124:	00 94       	com	r0
    6126:	0e 94 a6 30 	call	0x614c	; 0x614c <__negsi2>
    612a:	57 fd       	sbrc	r21, 7
    612c:	07 d0       	rcall	.+14     	; 0x613c <__divmodsi4_neg2>
    612e:	0e 94 6d 30 	call	0x60da	; 0x60da <__udivmodsi4>
    6132:	07 fc       	sbrc	r0, 7
    6134:	03 d0       	rcall	.+6      	; 0x613c <__divmodsi4_neg2>
    6136:	4e f4       	brtc	.+18     	; 0x614a <__divmodsi4_exit>
    6138:	0c 94 a6 30 	jmp	0x614c	; 0x614c <__negsi2>

0000613c <__divmodsi4_neg2>:
    613c:	50 95       	com	r21
    613e:	40 95       	com	r20
    6140:	30 95       	com	r19
    6142:	21 95       	neg	r18
    6144:	3f 4f       	sbci	r19, 0xFF	; 255
    6146:	4f 4f       	sbci	r20, 0xFF	; 255
    6148:	5f 4f       	sbci	r21, 0xFF	; 255

0000614a <__divmodsi4_exit>:
    614a:	08 95       	ret

0000614c <__negsi2>:
    614c:	90 95       	com	r25
    614e:	80 95       	com	r24
    6150:	70 95       	com	r23
    6152:	61 95       	neg	r22
    6154:	7f 4f       	sbci	r23, 0xFF	; 255
    6156:	8f 4f       	sbci	r24, 0xFF	; 255
    6158:	9f 4f       	sbci	r25, 0xFF	; 255
    615a:	08 95       	ret

0000615c <__muluhisi3>:
    615c:	0e 94 eb 31 	call	0x63d6	; 0x63d6 <__umulhisi3>
    6160:	a5 9f       	mul	r26, r21
    6162:	90 0d       	add	r25, r0
    6164:	b4 9f       	mul	r27, r20
    6166:	90 0d       	add	r25, r0
    6168:	a4 9f       	mul	r26, r20
    616a:	80 0d       	add	r24, r0
    616c:	91 1d       	adc	r25, r1
    616e:	11 24       	eor	r1, r1
    6170:	08 95       	ret

00006172 <__muldi3>:
    6172:	df 93       	push	r29
    6174:	cf 93       	push	r28
    6176:	1f 93       	push	r17
    6178:	0f 93       	push	r16
    617a:	9a 9d       	mul	r25, r10
    617c:	f0 2d       	mov	r31, r0
    617e:	21 9f       	mul	r18, r17
    6180:	f0 0d       	add	r31, r0
    6182:	8b 9d       	mul	r24, r11
    6184:	f0 0d       	add	r31, r0
    6186:	8a 9d       	mul	r24, r10
    6188:	e0 2d       	mov	r30, r0
    618a:	f1 0d       	add	r31, r1
    618c:	03 9f       	mul	r16, r19
    618e:	f0 0d       	add	r31, r0
    6190:	02 9f       	mul	r16, r18
    6192:	e0 0d       	add	r30, r0
    6194:	f1 1d       	adc	r31, r1
    6196:	4e 9d       	mul	r20, r14
    6198:	e0 0d       	add	r30, r0
    619a:	f1 1d       	adc	r31, r1
    619c:	5e 9d       	mul	r21, r14
    619e:	f0 0d       	add	r31, r0
    61a0:	4f 9d       	mul	r20, r15
    61a2:	f0 0d       	add	r31, r0
    61a4:	7f 93       	push	r23
    61a6:	6f 93       	push	r22
    61a8:	bf 92       	push	r11
    61aa:	af 92       	push	r10
    61ac:	5f 93       	push	r21
    61ae:	4f 93       	push	r20
    61b0:	d5 01       	movw	r26, r10
    61b2:	0e 94 eb 31 	call	0x63d6	; 0x63d6 <__umulhisi3>
    61b6:	8b 01       	movw	r16, r22
    61b8:	ac 01       	movw	r20, r24
    61ba:	d7 01       	movw	r26, r14
    61bc:	0e 94 eb 31 	call	0x63d6	; 0x63d6 <__umulhisi3>
    61c0:	eb 01       	movw	r28, r22
    61c2:	e8 0f       	add	r30, r24
    61c4:	f9 1f       	adc	r31, r25
    61c6:	d6 01       	movw	r26, r12
    61c8:	0e 94 09 31 	call	0x6212	; 0x6212 <__muldi3_6>
    61cc:	2f 91       	pop	r18
    61ce:	3f 91       	pop	r19
    61d0:	d6 01       	movw	r26, r12
    61d2:	0e 94 eb 31 	call	0x63d6	; 0x63d6 <__umulhisi3>
    61d6:	c6 0f       	add	r28, r22
    61d8:	d7 1f       	adc	r29, r23
    61da:	e8 1f       	adc	r30, r24
    61dc:	f9 1f       	adc	r31, r25
    61de:	af 91       	pop	r26
    61e0:	bf 91       	pop	r27
    61e2:	0e 94 09 31 	call	0x6212	; 0x6212 <__muldi3_6>
    61e6:	2f 91       	pop	r18
    61e8:	3f 91       	pop	r19
    61ea:	0e 94 eb 31 	call	0x63d6	; 0x63d6 <__umulhisi3>
    61ee:	c6 0f       	add	r28, r22
    61f0:	d7 1f       	adc	r29, r23
    61f2:	e8 1f       	adc	r30, r24
    61f4:	f9 1f       	adc	r31, r25
    61f6:	d6 01       	movw	r26, r12
    61f8:	0e 94 eb 31 	call	0x63d6	; 0x63d6 <__umulhisi3>
    61fc:	e6 0f       	add	r30, r22
    61fe:	f7 1f       	adc	r31, r23
    6200:	98 01       	movw	r18, r16
    6202:	be 01       	movw	r22, r28
    6204:	cf 01       	movw	r24, r30
    6206:	11 24       	eor	r1, r1
    6208:	0f 91       	pop	r16
    620a:	1f 91       	pop	r17
    620c:	cf 91       	pop	r28
    620e:	df 91       	pop	r29
    6210:	08 95       	ret

00006212 <__muldi3_6>:
    6212:	0e 94 eb 31 	call	0x63d6	; 0x63d6 <__umulhisi3>
    6216:	46 0f       	add	r20, r22
    6218:	57 1f       	adc	r21, r23
    621a:	c8 1f       	adc	r28, r24
    621c:	d9 1f       	adc	r29, r25
    621e:	08 f4       	brcc	.+2      	; 0x6222 <__muldi3_6+0x10>
    6220:	31 96       	adiw	r30, 0x01	; 1
    6222:	08 95       	ret

00006224 <__umoddi3>:
    6224:	68 94       	set
    6226:	01 c0       	rjmp	.+2      	; 0x622a <__udivdi3_umoddi3>

00006228 <__udivdi3>:
    6228:	e8 94       	clt

0000622a <__udivdi3_umoddi3>:
    622a:	8f 92       	push	r8
    622c:	9f 92       	push	r9
    622e:	cf 93       	push	r28
    6230:	df 93       	push	r29
    6232:	0e 94 20 31 	call	0x6240	; 0x6240 <__udivmod64>
    6236:	df 91       	pop	r29
    6238:	cf 91       	pop	r28
    623a:	9f 90       	pop	r9
    623c:	8f 90       	pop	r8
    623e:	08 95       	ret

00006240 <__udivmod64>:
    6240:	88 24       	eor	r8, r8
    6242:	99 24       	eor	r9, r9
    6244:	f4 01       	movw	r30, r8
    6246:	e4 01       	movw	r28, r8
    6248:	b0 e4       	ldi	r27, 0x40	; 64
    624a:	9f 93       	push	r25
    624c:	aa 27       	eor	r26, r26
    624e:	9a 15       	cp	r25, r10
    6250:	8b 04       	cpc	r8, r11
    6252:	9c 04       	cpc	r9, r12
    6254:	ed 05       	cpc	r30, r13
    6256:	fe 05       	cpc	r31, r14
    6258:	cf 05       	cpc	r28, r15
    625a:	d0 07       	cpc	r29, r16
    625c:	a1 07       	cpc	r26, r17
    625e:	98 f4       	brcc	.+38     	; 0x6286 <__udivmod64+0x46>
    6260:	ad 2f       	mov	r26, r29
    6262:	dc 2f       	mov	r29, r28
    6264:	cf 2f       	mov	r28, r31
    6266:	fe 2f       	mov	r31, r30
    6268:	e9 2d       	mov	r30, r9
    626a:	98 2c       	mov	r9, r8
    626c:	89 2e       	mov	r8, r25
    626e:	98 2f       	mov	r25, r24
    6270:	87 2f       	mov	r24, r23
    6272:	76 2f       	mov	r23, r22
    6274:	65 2f       	mov	r22, r21
    6276:	54 2f       	mov	r21, r20
    6278:	43 2f       	mov	r20, r19
    627a:	32 2f       	mov	r19, r18
    627c:	22 27       	eor	r18, r18
    627e:	b8 50       	subi	r27, 0x08	; 8
    6280:	31 f7       	brne	.-52     	; 0x624e <__udivmod64+0xe>
    6282:	bf 91       	pop	r27
    6284:	27 c0       	rjmp	.+78     	; 0x62d4 <__udivmod64+0x94>
    6286:	1b 2e       	mov	r1, r27
    6288:	bf 91       	pop	r27
    628a:	bb 27       	eor	r27, r27
    628c:	22 0f       	add	r18, r18
    628e:	33 1f       	adc	r19, r19
    6290:	44 1f       	adc	r20, r20
    6292:	55 1f       	adc	r21, r21
    6294:	66 1f       	adc	r22, r22
    6296:	77 1f       	adc	r23, r23
    6298:	88 1f       	adc	r24, r24
    629a:	99 1f       	adc	r25, r25
    629c:	88 1c       	adc	r8, r8
    629e:	99 1c       	adc	r9, r9
    62a0:	ee 1f       	adc	r30, r30
    62a2:	ff 1f       	adc	r31, r31
    62a4:	cc 1f       	adc	r28, r28
    62a6:	dd 1f       	adc	r29, r29
    62a8:	aa 1f       	adc	r26, r26
    62aa:	bb 1f       	adc	r27, r27
    62ac:	8a 14       	cp	r8, r10
    62ae:	9b 04       	cpc	r9, r11
    62b0:	ec 05       	cpc	r30, r12
    62b2:	fd 05       	cpc	r31, r13
    62b4:	ce 05       	cpc	r28, r14
    62b6:	df 05       	cpc	r29, r15
    62b8:	a0 07       	cpc	r26, r16
    62ba:	b1 07       	cpc	r27, r17
    62bc:	48 f0       	brcs	.+18     	; 0x62d0 <__udivmod64+0x90>
    62be:	8a 18       	sub	r8, r10
    62c0:	9b 08       	sbc	r9, r11
    62c2:	ec 09       	sbc	r30, r12
    62c4:	fd 09       	sbc	r31, r13
    62c6:	ce 09       	sbc	r28, r14
    62c8:	df 09       	sbc	r29, r15
    62ca:	a0 0b       	sbc	r26, r16
    62cc:	b1 0b       	sbc	r27, r17
    62ce:	21 60       	ori	r18, 0x01	; 1
    62d0:	1a 94       	dec	r1
    62d2:	e1 f6       	brne	.-72     	; 0x628c <__udivmod64+0x4c>
    62d4:	2e f4       	brtc	.+10     	; 0x62e0 <__udivmod64+0xa0>
    62d6:	94 01       	movw	r18, r8
    62d8:	af 01       	movw	r20, r30
    62da:	be 01       	movw	r22, r28
    62dc:	cd 01       	movw	r24, r26
    62de:	00 0c       	add	r0, r0
    62e0:	08 95       	ret

000062e2 <__negdi2>:
    62e2:	60 95       	com	r22
    62e4:	70 95       	com	r23
    62e6:	80 95       	com	r24
    62e8:	90 95       	com	r25
    62ea:	30 95       	com	r19
    62ec:	40 95       	com	r20
    62ee:	50 95       	com	r21
    62f0:	21 95       	neg	r18
    62f2:	3f 4f       	sbci	r19, 0xFF	; 255
    62f4:	4f 4f       	sbci	r20, 0xFF	; 255
    62f6:	5f 4f       	sbci	r21, 0xFF	; 255
    62f8:	6f 4f       	sbci	r22, 0xFF	; 255
    62fa:	7f 4f       	sbci	r23, 0xFF	; 255
    62fc:	8f 4f       	sbci	r24, 0xFF	; 255
    62fe:	9f 4f       	sbci	r25, 0xFF	; 255
    6300:	08 95       	ret

00006302 <__ashldi3>:
    6302:	0f 93       	push	r16
    6304:	08 30       	cpi	r16, 0x08	; 8
    6306:	90 f0       	brcs	.+36     	; 0x632c <__ashldi3+0x2a>
    6308:	98 2f       	mov	r25, r24
    630a:	87 2f       	mov	r24, r23
    630c:	76 2f       	mov	r23, r22
    630e:	65 2f       	mov	r22, r21
    6310:	54 2f       	mov	r21, r20
    6312:	43 2f       	mov	r20, r19
    6314:	32 2f       	mov	r19, r18
    6316:	22 27       	eor	r18, r18
    6318:	08 50       	subi	r16, 0x08	; 8
    631a:	f4 cf       	rjmp	.-24     	; 0x6304 <__ashldi3+0x2>
    631c:	22 0f       	add	r18, r18
    631e:	33 1f       	adc	r19, r19
    6320:	44 1f       	adc	r20, r20
    6322:	55 1f       	adc	r21, r21
    6324:	66 1f       	adc	r22, r22
    6326:	77 1f       	adc	r23, r23
    6328:	88 1f       	adc	r24, r24
    632a:	99 1f       	adc	r25, r25
    632c:	0a 95       	dec	r16
    632e:	b2 f7       	brpl	.-20     	; 0x631c <__ashldi3+0x1a>
    6330:	0f 91       	pop	r16
    6332:	08 95       	ret

00006334 <__ashrdi3>:
    6334:	97 fb       	bst	r25, 7
    6336:	10 f8       	bld	r1, 0

00006338 <__lshrdi3>:
    6338:	16 94       	lsr	r1
    633a:	00 08       	sbc	r0, r0
    633c:	0f 93       	push	r16
    633e:	08 30       	cpi	r16, 0x08	; 8
    6340:	98 f0       	brcs	.+38     	; 0x6368 <__lshrdi3+0x30>
    6342:	08 50       	subi	r16, 0x08	; 8
    6344:	23 2f       	mov	r18, r19
    6346:	34 2f       	mov	r19, r20
    6348:	45 2f       	mov	r20, r21
    634a:	56 2f       	mov	r21, r22
    634c:	67 2f       	mov	r22, r23
    634e:	78 2f       	mov	r23, r24
    6350:	89 2f       	mov	r24, r25
    6352:	90 2d       	mov	r25, r0
    6354:	f4 cf       	rjmp	.-24     	; 0x633e <__lshrdi3+0x6>
    6356:	05 94       	asr	r0
    6358:	97 95       	ror	r25
    635a:	87 95       	ror	r24
    635c:	77 95       	ror	r23
    635e:	67 95       	ror	r22
    6360:	57 95       	ror	r21
    6362:	47 95       	ror	r20
    6364:	37 95       	ror	r19
    6366:	27 95       	ror	r18
    6368:	0a 95       	dec	r16
    636a:	aa f7       	brpl	.-22     	; 0x6356 <__lshrdi3+0x1e>
    636c:	0f 91       	pop	r16
    636e:	08 95       	ret

00006370 <__adddi3>:
    6370:	2a 0d       	add	r18, r10
    6372:	3b 1d       	adc	r19, r11
    6374:	4c 1d       	adc	r20, r12
    6376:	5d 1d       	adc	r21, r13
    6378:	6e 1d       	adc	r22, r14
    637a:	7f 1d       	adc	r23, r15
    637c:	80 1f       	adc	r24, r16
    637e:	91 1f       	adc	r25, r17
    6380:	08 95       	ret

00006382 <__adddi3_s8>:
    6382:	00 24       	eor	r0, r0
    6384:	a7 fd       	sbrc	r26, 7
    6386:	00 94       	com	r0
    6388:	2a 0f       	add	r18, r26
    638a:	30 1d       	adc	r19, r0
    638c:	40 1d       	adc	r20, r0
    638e:	50 1d       	adc	r21, r0
    6390:	60 1d       	adc	r22, r0
    6392:	70 1d       	adc	r23, r0
    6394:	80 1d       	adc	r24, r0
    6396:	90 1d       	adc	r25, r0
    6398:	08 95       	ret

0000639a <__subdi3>:
    639a:	2a 19       	sub	r18, r10
    639c:	3b 09       	sbc	r19, r11
    639e:	4c 09       	sbc	r20, r12
    63a0:	5d 09       	sbc	r21, r13
    63a2:	6e 09       	sbc	r22, r14
    63a4:	7f 09       	sbc	r23, r15
    63a6:	80 0b       	sbc	r24, r16
    63a8:	91 0b       	sbc	r25, r17
    63aa:	08 95       	ret

000063ac <__cmpdi2>:
    63ac:	2a 15       	cp	r18, r10
    63ae:	3b 05       	cpc	r19, r11
    63b0:	4c 05       	cpc	r20, r12
    63b2:	5d 05       	cpc	r21, r13
    63b4:	6e 05       	cpc	r22, r14
    63b6:	7f 05       	cpc	r23, r15
    63b8:	80 07       	cpc	r24, r16
    63ba:	91 07       	cpc	r25, r17
    63bc:	08 95       	ret

000063be <__cmpdi2_s8>:
    63be:	00 24       	eor	r0, r0
    63c0:	a7 fd       	sbrc	r26, 7
    63c2:	00 94       	com	r0
    63c4:	2a 17       	cp	r18, r26
    63c6:	30 05       	cpc	r19, r0
    63c8:	40 05       	cpc	r20, r0
    63ca:	50 05       	cpc	r21, r0
    63cc:	60 05       	cpc	r22, r0
    63ce:	70 05       	cpc	r23, r0
    63d0:	80 05       	cpc	r24, r0
    63d2:	90 05       	cpc	r25, r0
    63d4:	08 95       	ret

000063d6 <__umulhisi3>:
    63d6:	a2 9f       	mul	r26, r18
    63d8:	b0 01       	movw	r22, r0
    63da:	b3 9f       	mul	r27, r19
    63dc:	c0 01       	movw	r24, r0
    63de:	a3 9f       	mul	r26, r19
    63e0:	70 0d       	add	r23, r0
    63e2:	81 1d       	adc	r24, r1
    63e4:	11 24       	eor	r1, r1
    63e6:	91 1d       	adc	r25, r1
    63e8:	b2 9f       	mul	r27, r18
    63ea:	70 0d       	add	r23, r0
    63ec:	81 1d       	adc	r24, r1
    63ee:	11 24       	eor	r1, r1
    63f0:	91 1d       	adc	r25, r1
    63f2:	08 95       	ret

000063f4 <__subsf3>:
    63f4:	50 58       	subi	r21, 0x80	; 128

000063f6 <__addsf3>:
    63f6:	bb 27       	eor	r27, r27
    63f8:	aa 27       	eor	r26, r26
    63fa:	0e 94 12 32 	call	0x6424	; 0x6424 <__addsf3x>
    63fe:	0c 94 1c 34 	jmp	0x6838	; 0x6838 <__fp_round>
    6402:	0e 94 0e 34 	call	0x681c	; 0x681c <__fp_pscA>
    6406:	38 f0       	brcs	.+14     	; 0x6416 <__addsf3+0x20>
    6408:	0e 94 15 34 	call	0x682a	; 0x682a <__fp_pscB>
    640c:	20 f0       	brcs	.+8      	; 0x6416 <__addsf3+0x20>
    640e:	39 f4       	brne	.+14     	; 0x641e <__addsf3+0x28>
    6410:	9f 3f       	cpi	r25, 0xFF	; 255
    6412:	19 f4       	brne	.+6      	; 0x641a <__addsf3+0x24>
    6414:	26 f4       	brtc	.+8      	; 0x641e <__addsf3+0x28>
    6416:	0c 94 fb 33 	jmp	0x67f6	; 0x67f6 <__fp_nan>
    641a:	0e f4       	brtc	.+2      	; 0x641e <__addsf3+0x28>
    641c:	e0 95       	com	r30
    641e:	e7 fb       	bst	r30, 7
    6420:	0c 94 f5 33 	jmp	0x67ea	; 0x67ea <__fp_inf>

00006424 <__addsf3x>:
    6424:	e9 2f       	mov	r30, r25
    6426:	0e 94 2d 34 	call	0x685a	; 0x685a <__fp_split3>
    642a:	58 f3       	brcs	.-42     	; 0x6402 <__addsf3+0xc>
    642c:	ba 17       	cp	r27, r26
    642e:	62 07       	cpc	r22, r18
    6430:	73 07       	cpc	r23, r19
    6432:	84 07       	cpc	r24, r20
    6434:	95 07       	cpc	r25, r21
    6436:	20 f0       	brcs	.+8      	; 0x6440 <__addsf3x+0x1c>
    6438:	79 f4       	brne	.+30     	; 0x6458 <__addsf3x+0x34>
    643a:	a6 f5       	brtc	.+104    	; 0x64a4 <__addsf3x+0x80>
    643c:	0c 94 4f 34 	jmp	0x689e	; 0x689e <__fp_zero>
    6440:	0e f4       	brtc	.+2      	; 0x6444 <__addsf3x+0x20>
    6442:	e0 95       	com	r30
    6444:	0b 2e       	mov	r0, r27
    6446:	ba 2f       	mov	r27, r26
    6448:	a0 2d       	mov	r26, r0
    644a:	0b 01       	movw	r0, r22
    644c:	b9 01       	movw	r22, r18
    644e:	90 01       	movw	r18, r0
    6450:	0c 01       	movw	r0, r24
    6452:	ca 01       	movw	r24, r20
    6454:	a0 01       	movw	r20, r0
    6456:	11 24       	eor	r1, r1
    6458:	ff 27       	eor	r31, r31
    645a:	59 1b       	sub	r21, r25
    645c:	99 f0       	breq	.+38     	; 0x6484 <__addsf3x+0x60>
    645e:	59 3f       	cpi	r21, 0xF9	; 249
    6460:	50 f4       	brcc	.+20     	; 0x6476 <__addsf3x+0x52>
    6462:	50 3e       	cpi	r21, 0xE0	; 224
    6464:	68 f1       	brcs	.+90     	; 0x64c0 <__addsf3x+0x9c>
    6466:	1a 16       	cp	r1, r26
    6468:	f0 40       	sbci	r31, 0x00	; 0
    646a:	a2 2f       	mov	r26, r18
    646c:	23 2f       	mov	r18, r19
    646e:	34 2f       	mov	r19, r20
    6470:	44 27       	eor	r20, r20
    6472:	58 5f       	subi	r21, 0xF8	; 248
    6474:	f3 cf       	rjmp	.-26     	; 0x645c <__addsf3x+0x38>
    6476:	46 95       	lsr	r20
    6478:	37 95       	ror	r19
    647a:	27 95       	ror	r18
    647c:	a7 95       	ror	r26
    647e:	f0 40       	sbci	r31, 0x00	; 0
    6480:	53 95       	inc	r21
    6482:	c9 f7       	brne	.-14     	; 0x6476 <__addsf3x+0x52>
    6484:	7e f4       	brtc	.+30     	; 0x64a4 <__addsf3x+0x80>
    6486:	1f 16       	cp	r1, r31
    6488:	ba 0b       	sbc	r27, r26
    648a:	62 0b       	sbc	r22, r18
    648c:	73 0b       	sbc	r23, r19
    648e:	84 0b       	sbc	r24, r20
    6490:	ba f0       	brmi	.+46     	; 0x64c0 <__addsf3x+0x9c>
    6492:	91 50       	subi	r25, 0x01	; 1
    6494:	a1 f0       	breq	.+40     	; 0x64be <__addsf3x+0x9a>
    6496:	ff 0f       	add	r31, r31
    6498:	bb 1f       	adc	r27, r27
    649a:	66 1f       	adc	r22, r22
    649c:	77 1f       	adc	r23, r23
    649e:	88 1f       	adc	r24, r24
    64a0:	c2 f7       	brpl	.-16     	; 0x6492 <__addsf3x+0x6e>
    64a2:	0e c0       	rjmp	.+28     	; 0x64c0 <__addsf3x+0x9c>
    64a4:	ba 0f       	add	r27, r26
    64a6:	62 1f       	adc	r22, r18
    64a8:	73 1f       	adc	r23, r19
    64aa:	84 1f       	adc	r24, r20
    64ac:	48 f4       	brcc	.+18     	; 0x64c0 <__addsf3x+0x9c>
    64ae:	87 95       	ror	r24
    64b0:	77 95       	ror	r23
    64b2:	67 95       	ror	r22
    64b4:	b7 95       	ror	r27
    64b6:	f7 95       	ror	r31
    64b8:	9e 3f       	cpi	r25, 0xFE	; 254
    64ba:	08 f0       	brcs	.+2      	; 0x64be <__addsf3x+0x9a>
    64bc:	b0 cf       	rjmp	.-160    	; 0x641e <__addsf3+0x28>
    64be:	93 95       	inc	r25
    64c0:	88 0f       	add	r24, r24
    64c2:	08 f0       	brcs	.+2      	; 0x64c6 <__addsf3x+0xa2>
    64c4:	99 27       	eor	r25, r25
    64c6:	ee 0f       	add	r30, r30
    64c8:	97 95       	ror	r25
    64ca:	87 95       	ror	r24
    64cc:	08 95       	ret

000064ce <__cmpsf2>:
    64ce:	0e 94 d1 33 	call	0x67a2	; 0x67a2 <__fp_cmp>
    64d2:	08 f4       	brcc	.+2      	; 0x64d6 <__cmpsf2+0x8>
    64d4:	81 e0       	ldi	r24, 0x01	; 1
    64d6:	08 95       	ret

000064d8 <__divsf3>:
    64d8:	0e 94 80 32 	call	0x6500	; 0x6500 <__divsf3x>
    64dc:	0c 94 1c 34 	jmp	0x6838	; 0x6838 <__fp_round>
    64e0:	0e 94 15 34 	call	0x682a	; 0x682a <__fp_pscB>
    64e4:	58 f0       	brcs	.+22     	; 0x64fc <__divsf3+0x24>
    64e6:	0e 94 0e 34 	call	0x681c	; 0x681c <__fp_pscA>
    64ea:	40 f0       	brcs	.+16     	; 0x64fc <__divsf3+0x24>
    64ec:	29 f4       	brne	.+10     	; 0x64f8 <__divsf3+0x20>
    64ee:	5f 3f       	cpi	r21, 0xFF	; 255
    64f0:	29 f0       	breq	.+10     	; 0x64fc <__divsf3+0x24>
    64f2:	0c 94 f5 33 	jmp	0x67ea	; 0x67ea <__fp_inf>
    64f6:	51 11       	cpse	r21, r1
    64f8:	0c 94 50 34 	jmp	0x68a0	; 0x68a0 <__fp_szero>
    64fc:	0c 94 fb 33 	jmp	0x67f6	; 0x67f6 <__fp_nan>

00006500 <__divsf3x>:
    6500:	0e 94 2d 34 	call	0x685a	; 0x685a <__fp_split3>
    6504:	68 f3       	brcs	.-38     	; 0x64e0 <__divsf3+0x8>

00006506 <__divsf3_pse>:
    6506:	99 23       	and	r25, r25
    6508:	b1 f3       	breq	.-20     	; 0x64f6 <__divsf3+0x1e>
    650a:	55 23       	and	r21, r21
    650c:	91 f3       	breq	.-28     	; 0x64f2 <__divsf3+0x1a>
    650e:	95 1b       	sub	r25, r21
    6510:	55 0b       	sbc	r21, r21
    6512:	bb 27       	eor	r27, r27
    6514:	aa 27       	eor	r26, r26
    6516:	62 17       	cp	r22, r18
    6518:	73 07       	cpc	r23, r19
    651a:	84 07       	cpc	r24, r20
    651c:	38 f0       	brcs	.+14     	; 0x652c <__divsf3_pse+0x26>
    651e:	9f 5f       	subi	r25, 0xFF	; 255
    6520:	5f 4f       	sbci	r21, 0xFF	; 255
    6522:	22 0f       	add	r18, r18
    6524:	33 1f       	adc	r19, r19
    6526:	44 1f       	adc	r20, r20
    6528:	aa 1f       	adc	r26, r26
    652a:	a9 f3       	breq	.-22     	; 0x6516 <__divsf3_pse+0x10>
    652c:	35 d0       	rcall	.+106    	; 0x6598 <__divsf3_pse+0x92>
    652e:	0e 2e       	mov	r0, r30
    6530:	3a f0       	brmi	.+14     	; 0x6540 <__divsf3_pse+0x3a>
    6532:	e0 e8       	ldi	r30, 0x80	; 128
    6534:	32 d0       	rcall	.+100    	; 0x659a <__divsf3_pse+0x94>
    6536:	91 50       	subi	r25, 0x01	; 1
    6538:	50 40       	sbci	r21, 0x00	; 0
    653a:	e6 95       	lsr	r30
    653c:	00 1c       	adc	r0, r0
    653e:	ca f7       	brpl	.-14     	; 0x6532 <__divsf3_pse+0x2c>
    6540:	2b d0       	rcall	.+86     	; 0x6598 <__divsf3_pse+0x92>
    6542:	fe 2f       	mov	r31, r30
    6544:	29 d0       	rcall	.+82     	; 0x6598 <__divsf3_pse+0x92>
    6546:	66 0f       	add	r22, r22
    6548:	77 1f       	adc	r23, r23
    654a:	88 1f       	adc	r24, r24
    654c:	bb 1f       	adc	r27, r27
    654e:	26 17       	cp	r18, r22
    6550:	37 07       	cpc	r19, r23
    6552:	48 07       	cpc	r20, r24
    6554:	ab 07       	cpc	r26, r27
    6556:	b0 e8       	ldi	r27, 0x80	; 128
    6558:	09 f0       	breq	.+2      	; 0x655c <__divsf3_pse+0x56>
    655a:	bb 0b       	sbc	r27, r27
    655c:	80 2d       	mov	r24, r0
    655e:	bf 01       	movw	r22, r30
    6560:	ff 27       	eor	r31, r31
    6562:	93 58       	subi	r25, 0x83	; 131
    6564:	5f 4f       	sbci	r21, 0xFF	; 255
    6566:	3a f0       	brmi	.+14     	; 0x6576 <__divsf3_pse+0x70>
    6568:	9e 3f       	cpi	r25, 0xFE	; 254
    656a:	51 05       	cpc	r21, r1
    656c:	78 f0       	brcs	.+30     	; 0x658c <__divsf3_pse+0x86>
    656e:	0c 94 f5 33 	jmp	0x67ea	; 0x67ea <__fp_inf>
    6572:	0c 94 50 34 	jmp	0x68a0	; 0x68a0 <__fp_szero>
    6576:	5f 3f       	cpi	r21, 0xFF	; 255
    6578:	e4 f3       	brlt	.-8      	; 0x6572 <__divsf3_pse+0x6c>
    657a:	98 3e       	cpi	r25, 0xE8	; 232
    657c:	d4 f3       	brlt	.-12     	; 0x6572 <__divsf3_pse+0x6c>
    657e:	86 95       	lsr	r24
    6580:	77 95       	ror	r23
    6582:	67 95       	ror	r22
    6584:	b7 95       	ror	r27
    6586:	f7 95       	ror	r31
    6588:	9f 5f       	subi	r25, 0xFF	; 255
    658a:	c9 f7       	brne	.-14     	; 0x657e <__divsf3_pse+0x78>
    658c:	88 0f       	add	r24, r24
    658e:	91 1d       	adc	r25, r1
    6590:	96 95       	lsr	r25
    6592:	87 95       	ror	r24
    6594:	97 f9       	bld	r25, 7
    6596:	08 95       	ret
    6598:	e1 e0       	ldi	r30, 0x01	; 1
    659a:	66 0f       	add	r22, r22
    659c:	77 1f       	adc	r23, r23
    659e:	88 1f       	adc	r24, r24
    65a0:	bb 1f       	adc	r27, r27
    65a2:	62 17       	cp	r22, r18
    65a4:	73 07       	cpc	r23, r19
    65a6:	84 07       	cpc	r24, r20
    65a8:	ba 07       	cpc	r27, r26
    65aa:	20 f0       	brcs	.+8      	; 0x65b4 <__divsf3_pse+0xae>
    65ac:	62 1b       	sub	r22, r18
    65ae:	73 0b       	sbc	r23, r19
    65b0:	84 0b       	sbc	r24, r20
    65b2:	ba 0b       	sbc	r27, r26
    65b4:	ee 1f       	adc	r30, r30
    65b6:	88 f7       	brcc	.-30     	; 0x659a <__divsf3_pse+0x94>
    65b8:	e0 95       	com	r30
    65ba:	08 95       	ret

000065bc <__fixsfdi>:
    65bc:	be e3       	ldi	r27, 0x3E	; 62
    65be:	04 d0       	rcall	.+8      	; 0x65c8 <__fixunssfdi+0x2>
    65c0:	08 f4       	brcc	.+2      	; 0x65c4 <__fixsfdi+0x8>
    65c2:	90 e8       	ldi	r25, 0x80	; 128
    65c4:	08 95       	ret

000065c6 <__fixunssfdi>:
    65c6:	bf e3       	ldi	r27, 0x3F	; 63
    65c8:	22 27       	eor	r18, r18
    65ca:	33 27       	eor	r19, r19
    65cc:	a9 01       	movw	r20, r18
    65ce:	0e 94 35 34 	call	0x686a	; 0x686a <__fp_splitA>
    65d2:	60 f1       	brcs	.+88     	; 0x662c <__fixunssfdi+0x66>
    65d4:	9f 57       	subi	r25, 0x7F	; 127
    65d6:	48 f1       	brcs	.+82     	; 0x662a <__fixunssfdi+0x64>
    65d8:	b9 17       	cp	r27, r25
    65da:	40 f1       	brcs	.+80     	; 0x662c <__fixunssfdi+0x66>
    65dc:	bf e3       	ldi	r27, 0x3F	; 63
    65de:	b9 1b       	sub	r27, r25
    65e0:	99 27       	eor	r25, r25
    65e2:	b8 50       	subi	r27, 0x08	; 8
    65e4:	3a f4       	brpl	.+14     	; 0x65f4 <__fixunssfdi+0x2e>
    65e6:	66 0f       	add	r22, r22
    65e8:	77 1f       	adc	r23, r23
    65ea:	88 1f       	adc	r24, r24
    65ec:	99 1f       	adc	r25, r25
    65ee:	b3 95       	inc	r27
    65f0:	d2 f3       	brmi	.-12     	; 0x65e6 <__fixunssfdi+0x20>
    65f2:	16 c0       	rjmp	.+44     	; 0x6620 <__fixunssfdi+0x5a>
    65f4:	b8 50       	subi	r27, 0x08	; 8
    65f6:	4a f0       	brmi	.+18     	; 0x660a <__fixunssfdi+0x44>
    65f8:	23 2f       	mov	r18, r19
    65fa:	34 2f       	mov	r19, r20
    65fc:	45 2f       	mov	r20, r21
    65fe:	56 2f       	mov	r21, r22
    6600:	67 2f       	mov	r22, r23
    6602:	78 2f       	mov	r23, r24
    6604:	88 27       	eor	r24, r24
    6606:	b8 50       	subi	r27, 0x08	; 8
    6608:	ba f7       	brpl	.-18     	; 0x65f8 <__fixunssfdi+0x32>
    660a:	b8 5f       	subi	r27, 0xF8	; 248
    660c:	49 f0       	breq	.+18     	; 0x6620 <__fixunssfdi+0x5a>
    660e:	86 95       	lsr	r24
    6610:	77 95       	ror	r23
    6612:	67 95       	ror	r22
    6614:	57 95       	ror	r21
    6616:	47 95       	ror	r20
    6618:	37 95       	ror	r19
    661a:	27 95       	ror	r18
    661c:	ba 95       	dec	r27
    661e:	b9 f7       	brne	.-18     	; 0x660e <__fixunssfdi+0x48>
    6620:	16 f4       	brtc	.+4      	; 0x6626 <__fixunssfdi+0x60>
    6622:	0e 94 fe 33 	call	0x67fc	; 0x67fc <__fp_negdi>
    6626:	88 94       	clc
    6628:	08 95       	ret
    662a:	88 94       	clc
    662c:	60 e0       	ldi	r22, 0x00	; 0
    662e:	70 e0       	ldi	r23, 0x00	; 0
    6630:	cb 01       	movw	r24, r22
    6632:	08 95       	ret

00006634 <__fixsfsi>:
    6634:	0e 94 21 33 	call	0x6642	; 0x6642 <__fixunssfsi>
    6638:	68 94       	set
    663a:	b1 11       	cpse	r27, r1
    663c:	0c 94 50 34 	jmp	0x68a0	; 0x68a0 <__fp_szero>
    6640:	08 95       	ret

00006642 <__fixunssfsi>:
    6642:	0e 94 35 34 	call	0x686a	; 0x686a <__fp_splitA>
    6646:	88 f0       	brcs	.+34     	; 0x666a <__fixunssfsi+0x28>
    6648:	9f 57       	subi	r25, 0x7F	; 127
    664a:	98 f0       	brcs	.+38     	; 0x6672 <__fixunssfsi+0x30>
    664c:	b9 2f       	mov	r27, r25
    664e:	99 27       	eor	r25, r25
    6650:	b7 51       	subi	r27, 0x17	; 23
    6652:	b0 f0       	brcs	.+44     	; 0x6680 <__fixunssfsi+0x3e>
    6654:	e1 f0       	breq	.+56     	; 0x668e <__fixunssfsi+0x4c>
    6656:	66 0f       	add	r22, r22
    6658:	77 1f       	adc	r23, r23
    665a:	88 1f       	adc	r24, r24
    665c:	99 1f       	adc	r25, r25
    665e:	1a f0       	brmi	.+6      	; 0x6666 <__fixunssfsi+0x24>
    6660:	ba 95       	dec	r27
    6662:	c9 f7       	brne	.-14     	; 0x6656 <__fixunssfsi+0x14>
    6664:	14 c0       	rjmp	.+40     	; 0x668e <__fixunssfsi+0x4c>
    6666:	b1 30       	cpi	r27, 0x01	; 1
    6668:	91 f0       	breq	.+36     	; 0x668e <__fixunssfsi+0x4c>
    666a:	0e 94 4f 34 	call	0x689e	; 0x689e <__fp_zero>
    666e:	b1 e0       	ldi	r27, 0x01	; 1
    6670:	08 95       	ret
    6672:	0c 94 4f 34 	jmp	0x689e	; 0x689e <__fp_zero>
    6676:	67 2f       	mov	r22, r23
    6678:	78 2f       	mov	r23, r24
    667a:	88 27       	eor	r24, r24
    667c:	b8 5f       	subi	r27, 0xF8	; 248
    667e:	39 f0       	breq	.+14     	; 0x668e <__fixunssfsi+0x4c>
    6680:	b9 3f       	cpi	r27, 0xF9	; 249
    6682:	cc f3       	brlt	.-14     	; 0x6676 <__fixunssfsi+0x34>
    6684:	86 95       	lsr	r24
    6686:	77 95       	ror	r23
    6688:	67 95       	ror	r22
    668a:	b3 95       	inc	r27
    668c:	d9 f7       	brne	.-10     	; 0x6684 <__fixunssfsi+0x42>
    668e:	3e f4       	brtc	.+14     	; 0x669e <__fixunssfsi+0x5c>
    6690:	90 95       	com	r25
    6692:	80 95       	com	r24
    6694:	70 95       	com	r23
    6696:	61 95       	neg	r22
    6698:	7f 4f       	sbci	r23, 0xFF	; 255
    669a:	8f 4f       	sbci	r24, 0xFF	; 255
    669c:	9f 4f       	sbci	r25, 0xFF	; 255
    669e:	08 95       	ret

000066a0 <__floatdisf>:
    66a0:	97 fb       	bst	r25, 7
    66a2:	16 f4       	brtc	.+4      	; 0x66a8 <__floatdisf+0x8>
    66a4:	0e 94 fe 33 	call	0x67fc	; 0x67fc <__fp_negdi>
    66a8:	0c 94 94 33 	jmp	0x6728	; 0x6728 <__fp_di2sf>

000066ac <__floatunsisf>:
    66ac:	e8 94       	clt
    66ae:	09 c0       	rjmp	.+18     	; 0x66c2 <__floatsisf+0x12>

000066b0 <__floatsisf>:
    66b0:	97 fb       	bst	r25, 7
    66b2:	3e f4       	brtc	.+14     	; 0x66c2 <__floatsisf+0x12>
    66b4:	90 95       	com	r25
    66b6:	80 95       	com	r24
    66b8:	70 95       	com	r23
    66ba:	61 95       	neg	r22
    66bc:	7f 4f       	sbci	r23, 0xFF	; 255
    66be:	8f 4f       	sbci	r24, 0xFF	; 255
    66c0:	9f 4f       	sbci	r25, 0xFF	; 255
    66c2:	99 23       	and	r25, r25
    66c4:	a9 f0       	breq	.+42     	; 0x66f0 <__floatsisf+0x40>
    66c6:	f9 2f       	mov	r31, r25
    66c8:	96 e9       	ldi	r25, 0x96	; 150
    66ca:	bb 27       	eor	r27, r27
    66cc:	93 95       	inc	r25
    66ce:	f6 95       	lsr	r31
    66d0:	87 95       	ror	r24
    66d2:	77 95       	ror	r23
    66d4:	67 95       	ror	r22
    66d6:	b7 95       	ror	r27
    66d8:	f1 11       	cpse	r31, r1
    66da:	f8 cf       	rjmp	.-16     	; 0x66cc <__floatsisf+0x1c>
    66dc:	fa f4       	brpl	.+62     	; 0x671c <__floatsisf+0x6c>
    66de:	bb 0f       	add	r27, r27
    66e0:	11 f4       	brne	.+4      	; 0x66e6 <__floatsisf+0x36>
    66e2:	60 ff       	sbrs	r22, 0
    66e4:	1b c0       	rjmp	.+54     	; 0x671c <__floatsisf+0x6c>
    66e6:	6f 5f       	subi	r22, 0xFF	; 255
    66e8:	7f 4f       	sbci	r23, 0xFF	; 255
    66ea:	8f 4f       	sbci	r24, 0xFF	; 255
    66ec:	9f 4f       	sbci	r25, 0xFF	; 255
    66ee:	16 c0       	rjmp	.+44     	; 0x671c <__floatsisf+0x6c>
    66f0:	88 23       	and	r24, r24
    66f2:	11 f0       	breq	.+4      	; 0x66f8 <__floatsisf+0x48>
    66f4:	96 e9       	ldi	r25, 0x96	; 150
    66f6:	11 c0       	rjmp	.+34     	; 0x671a <__floatsisf+0x6a>
    66f8:	77 23       	and	r23, r23
    66fa:	21 f0       	breq	.+8      	; 0x6704 <__floatsisf+0x54>
    66fc:	9e e8       	ldi	r25, 0x8E	; 142
    66fe:	87 2f       	mov	r24, r23
    6700:	76 2f       	mov	r23, r22
    6702:	05 c0       	rjmp	.+10     	; 0x670e <__floatsisf+0x5e>
    6704:	66 23       	and	r22, r22
    6706:	71 f0       	breq	.+28     	; 0x6724 <__floatsisf+0x74>
    6708:	96 e8       	ldi	r25, 0x86	; 134
    670a:	86 2f       	mov	r24, r22
    670c:	70 e0       	ldi	r23, 0x00	; 0
    670e:	60 e0       	ldi	r22, 0x00	; 0
    6710:	2a f0       	brmi	.+10     	; 0x671c <__floatsisf+0x6c>
    6712:	9a 95       	dec	r25
    6714:	66 0f       	add	r22, r22
    6716:	77 1f       	adc	r23, r23
    6718:	88 1f       	adc	r24, r24
    671a:	da f7       	brpl	.-10     	; 0x6712 <__floatsisf+0x62>
    671c:	88 0f       	add	r24, r24
    671e:	96 95       	lsr	r25
    6720:	87 95       	ror	r24
    6722:	97 f9       	bld	r25, 7
    6724:	08 95       	ret

00006726 <__floatundisf>:
    6726:	e8 94       	clt

00006728 <__fp_di2sf>:
    6728:	f9 2f       	mov	r31, r25
    672a:	96 eb       	ldi	r25, 0xB6	; 182
    672c:	ff 23       	and	r31, r31
    672e:	81 f0       	breq	.+32     	; 0x6750 <__fp_di2sf+0x28>
    6730:	12 16       	cp	r1, r18
    6732:	13 06       	cpc	r1, r19
    6734:	14 06       	cpc	r1, r20
    6736:	44 0b       	sbc	r20, r20
    6738:	93 95       	inc	r25
    673a:	f6 95       	lsr	r31
    673c:	87 95       	ror	r24
    673e:	77 95       	ror	r23
    6740:	67 95       	ror	r22
    6742:	57 95       	ror	r21
    6744:	40 40       	sbci	r20, 0x00	; 0
    6746:	ff 23       	and	r31, r31
    6748:	b9 f7       	brne	.-18     	; 0x6738 <__fp_di2sf+0x10>
    674a:	1b c0       	rjmp	.+54     	; 0x6782 <__fp_di2sf+0x5a>
    674c:	99 27       	eor	r25, r25
    674e:	08 95       	ret
    6750:	88 23       	and	r24, r24
    6752:	51 f4       	brne	.+20     	; 0x6768 <__fp_di2sf+0x40>
    6754:	98 50       	subi	r25, 0x08	; 8
    6756:	d2 f7       	brpl	.-12     	; 0x674c <__fp_di2sf+0x24>
    6758:	87 2b       	or	r24, r23
    675a:	76 2f       	mov	r23, r22
    675c:	65 2f       	mov	r22, r21
    675e:	54 2f       	mov	r21, r20
    6760:	43 2f       	mov	r20, r19
    6762:	32 2f       	mov	r19, r18
    6764:	20 e0       	ldi	r18, 0x00	; 0
    6766:	b1 f3       	breq	.-20     	; 0x6754 <__fp_di2sf+0x2c>
    6768:	12 16       	cp	r1, r18
    676a:	13 06       	cpc	r1, r19
    676c:	14 06       	cpc	r1, r20
    676e:	44 0b       	sbc	r20, r20
    6770:	88 23       	and	r24, r24
    6772:	3a f0       	brmi	.+14     	; 0x6782 <__fp_di2sf+0x5a>
    6774:	9a 95       	dec	r25
    6776:	44 0f       	add	r20, r20
    6778:	55 1f       	adc	r21, r21
    677a:	66 1f       	adc	r22, r22
    677c:	77 1f       	adc	r23, r23
    677e:	88 1f       	adc	r24, r24
    6780:	ca f7       	brpl	.-14     	; 0x6774 <__fp_di2sf+0x4c>
    6782:	55 23       	and	r21, r21
    6784:	4a f4       	brpl	.+18     	; 0x6798 <__fp_di2sf+0x70>
    6786:	44 0f       	add	r20, r20
    6788:	55 1f       	adc	r21, r21
    678a:	11 f4       	brne	.+4      	; 0x6790 <__fp_di2sf+0x68>
    678c:	60 ff       	sbrs	r22, 0
    678e:	04 c0       	rjmp	.+8      	; 0x6798 <__fp_di2sf+0x70>
    6790:	6f 5f       	subi	r22, 0xFF	; 255
    6792:	7f 4f       	sbci	r23, 0xFF	; 255
    6794:	8f 4f       	sbci	r24, 0xFF	; 255
    6796:	9f 4f       	sbci	r25, 0xFF	; 255
    6798:	88 0f       	add	r24, r24
    679a:	96 95       	lsr	r25
    679c:	87 95       	ror	r24
    679e:	97 f9       	bld	r25, 7
    67a0:	08 95       	ret

000067a2 <__fp_cmp>:
    67a2:	99 0f       	add	r25, r25
    67a4:	00 08       	sbc	r0, r0
    67a6:	55 0f       	add	r21, r21
    67a8:	aa 0b       	sbc	r26, r26
    67aa:	e0 e8       	ldi	r30, 0x80	; 128
    67ac:	fe ef       	ldi	r31, 0xFE	; 254
    67ae:	16 16       	cp	r1, r22
    67b0:	17 06       	cpc	r1, r23
    67b2:	e8 07       	cpc	r30, r24
    67b4:	f9 07       	cpc	r31, r25
    67b6:	c0 f0       	brcs	.+48     	; 0x67e8 <__fp_cmp+0x46>
    67b8:	12 16       	cp	r1, r18
    67ba:	13 06       	cpc	r1, r19
    67bc:	e4 07       	cpc	r30, r20
    67be:	f5 07       	cpc	r31, r21
    67c0:	98 f0       	brcs	.+38     	; 0x67e8 <__fp_cmp+0x46>
    67c2:	62 1b       	sub	r22, r18
    67c4:	73 0b       	sbc	r23, r19
    67c6:	84 0b       	sbc	r24, r20
    67c8:	95 0b       	sbc	r25, r21
    67ca:	39 f4       	brne	.+14     	; 0x67da <__fp_cmp+0x38>
    67cc:	0a 26       	eor	r0, r26
    67ce:	61 f0       	breq	.+24     	; 0x67e8 <__fp_cmp+0x46>
    67d0:	23 2b       	or	r18, r19
    67d2:	24 2b       	or	r18, r20
    67d4:	25 2b       	or	r18, r21
    67d6:	21 f4       	brne	.+8      	; 0x67e0 <__fp_cmp+0x3e>
    67d8:	08 95       	ret
    67da:	0a 26       	eor	r0, r26
    67dc:	09 f4       	brne	.+2      	; 0x67e0 <__fp_cmp+0x3e>
    67de:	a1 40       	sbci	r26, 0x01	; 1
    67e0:	a6 95       	lsr	r26
    67e2:	8f ef       	ldi	r24, 0xFF	; 255
    67e4:	81 1d       	adc	r24, r1
    67e6:	81 1d       	adc	r24, r1
    67e8:	08 95       	ret

000067ea <__fp_inf>:
    67ea:	97 f9       	bld	r25, 7
    67ec:	9f 67       	ori	r25, 0x7F	; 127
    67ee:	80 e8       	ldi	r24, 0x80	; 128
    67f0:	70 e0       	ldi	r23, 0x00	; 0
    67f2:	60 e0       	ldi	r22, 0x00	; 0
    67f4:	08 95       	ret

000067f6 <__fp_nan>:
    67f6:	9f ef       	ldi	r25, 0xFF	; 255
    67f8:	80 ec       	ldi	r24, 0xC0	; 192
    67fa:	08 95       	ret

000067fc <__fp_negdi>:
    67fc:	90 95       	com	r25
    67fe:	80 95       	com	r24
    6800:	70 95       	com	r23
    6802:	60 95       	com	r22
    6804:	50 95       	com	r21
    6806:	40 95       	com	r20
    6808:	30 95       	com	r19
    680a:	21 95       	neg	r18
    680c:	3f 4f       	sbci	r19, 0xFF	; 255
    680e:	4f 4f       	sbci	r20, 0xFF	; 255
    6810:	5f 4f       	sbci	r21, 0xFF	; 255
    6812:	6f 4f       	sbci	r22, 0xFF	; 255
    6814:	7f 4f       	sbci	r23, 0xFF	; 255
    6816:	8f 4f       	sbci	r24, 0xFF	; 255
    6818:	9f 4f       	sbci	r25, 0xFF	; 255
    681a:	08 95       	ret

0000681c <__fp_pscA>:
    681c:	00 24       	eor	r0, r0
    681e:	0a 94       	dec	r0
    6820:	16 16       	cp	r1, r22
    6822:	17 06       	cpc	r1, r23
    6824:	18 06       	cpc	r1, r24
    6826:	09 06       	cpc	r0, r25
    6828:	08 95       	ret

0000682a <__fp_pscB>:
    682a:	00 24       	eor	r0, r0
    682c:	0a 94       	dec	r0
    682e:	12 16       	cp	r1, r18
    6830:	13 06       	cpc	r1, r19
    6832:	14 06       	cpc	r1, r20
    6834:	05 06       	cpc	r0, r21
    6836:	08 95       	ret

00006838 <__fp_round>:
    6838:	09 2e       	mov	r0, r25
    683a:	03 94       	inc	r0
    683c:	00 0c       	add	r0, r0
    683e:	11 f4       	brne	.+4      	; 0x6844 <__fp_round+0xc>
    6840:	88 23       	and	r24, r24
    6842:	52 f0       	brmi	.+20     	; 0x6858 <__fp_round+0x20>
    6844:	bb 0f       	add	r27, r27
    6846:	40 f4       	brcc	.+16     	; 0x6858 <__fp_round+0x20>
    6848:	bf 2b       	or	r27, r31
    684a:	11 f4       	brne	.+4      	; 0x6850 <__fp_round+0x18>
    684c:	60 ff       	sbrs	r22, 0
    684e:	04 c0       	rjmp	.+8      	; 0x6858 <__fp_round+0x20>
    6850:	6f 5f       	subi	r22, 0xFF	; 255
    6852:	7f 4f       	sbci	r23, 0xFF	; 255
    6854:	8f 4f       	sbci	r24, 0xFF	; 255
    6856:	9f 4f       	sbci	r25, 0xFF	; 255
    6858:	08 95       	ret

0000685a <__fp_split3>:
    685a:	57 fd       	sbrc	r21, 7
    685c:	90 58       	subi	r25, 0x80	; 128
    685e:	44 0f       	add	r20, r20
    6860:	55 1f       	adc	r21, r21
    6862:	59 f0       	breq	.+22     	; 0x687a <__fp_splitA+0x10>
    6864:	5f 3f       	cpi	r21, 0xFF	; 255
    6866:	71 f0       	breq	.+28     	; 0x6884 <__fp_splitA+0x1a>
    6868:	47 95       	ror	r20

0000686a <__fp_splitA>:
    686a:	88 0f       	add	r24, r24
    686c:	97 fb       	bst	r25, 7
    686e:	99 1f       	adc	r25, r25
    6870:	61 f0       	breq	.+24     	; 0x688a <__fp_splitA+0x20>
    6872:	9f 3f       	cpi	r25, 0xFF	; 255
    6874:	79 f0       	breq	.+30     	; 0x6894 <__fp_splitA+0x2a>
    6876:	87 95       	ror	r24
    6878:	08 95       	ret
    687a:	12 16       	cp	r1, r18
    687c:	13 06       	cpc	r1, r19
    687e:	14 06       	cpc	r1, r20
    6880:	55 1f       	adc	r21, r21
    6882:	f2 cf       	rjmp	.-28     	; 0x6868 <__fp_split3+0xe>
    6884:	46 95       	lsr	r20
    6886:	f1 df       	rcall	.-30     	; 0x686a <__fp_splitA>
    6888:	08 c0       	rjmp	.+16     	; 0x689a <__fp_splitA+0x30>
    688a:	16 16       	cp	r1, r22
    688c:	17 06       	cpc	r1, r23
    688e:	18 06       	cpc	r1, r24
    6890:	99 1f       	adc	r25, r25
    6892:	f1 cf       	rjmp	.-30     	; 0x6876 <__fp_splitA+0xc>
    6894:	86 95       	lsr	r24
    6896:	71 05       	cpc	r23, r1
    6898:	61 05       	cpc	r22, r1
    689a:	08 94       	sec
    689c:	08 95       	ret

0000689e <__fp_zero>:
    689e:	e8 94       	clt

000068a0 <__fp_szero>:
    68a0:	bb 27       	eor	r27, r27
    68a2:	66 27       	eor	r22, r22
    68a4:	77 27       	eor	r23, r23
    68a6:	cb 01       	movw	r24, r22
    68a8:	97 f9       	bld	r25, 7
    68aa:	08 95       	ret

000068ac <__gesf2>:
    68ac:	0e 94 d1 33 	call	0x67a2	; 0x67a2 <__fp_cmp>
    68b0:	08 f4       	brcc	.+2      	; 0x68b4 <__gesf2+0x8>
    68b2:	8f ef       	ldi	r24, 0xFF	; 255
    68b4:	08 95       	ret

000068b6 <__mulsf3>:
    68b6:	0e 94 6e 34 	call	0x68dc	; 0x68dc <__mulsf3x>
    68ba:	0c 94 1c 34 	jmp	0x6838	; 0x6838 <__fp_round>
    68be:	0e 94 0e 34 	call	0x681c	; 0x681c <__fp_pscA>
    68c2:	38 f0       	brcs	.+14     	; 0x68d2 <__mulsf3+0x1c>
    68c4:	0e 94 15 34 	call	0x682a	; 0x682a <__fp_pscB>
    68c8:	20 f0       	brcs	.+8      	; 0x68d2 <__mulsf3+0x1c>
    68ca:	95 23       	and	r25, r21
    68cc:	11 f0       	breq	.+4      	; 0x68d2 <__mulsf3+0x1c>
    68ce:	0c 94 f5 33 	jmp	0x67ea	; 0x67ea <__fp_inf>
    68d2:	0c 94 fb 33 	jmp	0x67f6	; 0x67f6 <__fp_nan>
    68d6:	11 24       	eor	r1, r1
    68d8:	0c 94 50 34 	jmp	0x68a0	; 0x68a0 <__fp_szero>

000068dc <__mulsf3x>:
    68dc:	0e 94 2d 34 	call	0x685a	; 0x685a <__fp_split3>
    68e0:	70 f3       	brcs	.-36     	; 0x68be <__mulsf3+0x8>

000068e2 <__mulsf3_pse>:
    68e2:	95 9f       	mul	r25, r21
    68e4:	c1 f3       	breq	.-16     	; 0x68d6 <__mulsf3+0x20>
    68e6:	95 0f       	add	r25, r21
    68e8:	50 e0       	ldi	r21, 0x00	; 0
    68ea:	55 1f       	adc	r21, r21
    68ec:	62 9f       	mul	r22, r18
    68ee:	f0 01       	movw	r30, r0
    68f0:	72 9f       	mul	r23, r18
    68f2:	bb 27       	eor	r27, r27
    68f4:	f0 0d       	add	r31, r0
    68f6:	b1 1d       	adc	r27, r1
    68f8:	63 9f       	mul	r22, r19
    68fa:	aa 27       	eor	r26, r26
    68fc:	f0 0d       	add	r31, r0
    68fe:	b1 1d       	adc	r27, r1
    6900:	aa 1f       	adc	r26, r26
    6902:	64 9f       	mul	r22, r20
    6904:	66 27       	eor	r22, r22
    6906:	b0 0d       	add	r27, r0
    6908:	a1 1d       	adc	r26, r1
    690a:	66 1f       	adc	r22, r22
    690c:	82 9f       	mul	r24, r18
    690e:	22 27       	eor	r18, r18
    6910:	b0 0d       	add	r27, r0
    6912:	a1 1d       	adc	r26, r1
    6914:	62 1f       	adc	r22, r18
    6916:	73 9f       	mul	r23, r19
    6918:	b0 0d       	add	r27, r0
    691a:	a1 1d       	adc	r26, r1
    691c:	62 1f       	adc	r22, r18
    691e:	83 9f       	mul	r24, r19
    6920:	a0 0d       	add	r26, r0
    6922:	61 1d       	adc	r22, r1
    6924:	22 1f       	adc	r18, r18
    6926:	74 9f       	mul	r23, r20
    6928:	33 27       	eor	r19, r19
    692a:	a0 0d       	add	r26, r0
    692c:	61 1d       	adc	r22, r1
    692e:	23 1f       	adc	r18, r19
    6930:	84 9f       	mul	r24, r20
    6932:	60 0d       	add	r22, r0
    6934:	21 1d       	adc	r18, r1
    6936:	82 2f       	mov	r24, r18
    6938:	76 2f       	mov	r23, r22
    693a:	6a 2f       	mov	r22, r26
    693c:	11 24       	eor	r1, r1
    693e:	9f 57       	subi	r25, 0x7F	; 127
    6940:	50 40       	sbci	r21, 0x00	; 0
    6942:	9a f0       	brmi	.+38     	; 0x696a <__mulsf3_pse+0x88>
    6944:	f1 f0       	breq	.+60     	; 0x6982 <__mulsf3_pse+0xa0>
    6946:	88 23       	and	r24, r24
    6948:	4a f0       	brmi	.+18     	; 0x695c <__mulsf3_pse+0x7a>
    694a:	ee 0f       	add	r30, r30
    694c:	ff 1f       	adc	r31, r31
    694e:	bb 1f       	adc	r27, r27
    6950:	66 1f       	adc	r22, r22
    6952:	77 1f       	adc	r23, r23
    6954:	88 1f       	adc	r24, r24
    6956:	91 50       	subi	r25, 0x01	; 1
    6958:	50 40       	sbci	r21, 0x00	; 0
    695a:	a9 f7       	brne	.-22     	; 0x6946 <__mulsf3_pse+0x64>
    695c:	9e 3f       	cpi	r25, 0xFE	; 254
    695e:	51 05       	cpc	r21, r1
    6960:	80 f0       	brcs	.+32     	; 0x6982 <__mulsf3_pse+0xa0>
    6962:	0c 94 f5 33 	jmp	0x67ea	; 0x67ea <__fp_inf>
    6966:	0c 94 50 34 	jmp	0x68a0	; 0x68a0 <__fp_szero>
    696a:	5f 3f       	cpi	r21, 0xFF	; 255
    696c:	e4 f3       	brlt	.-8      	; 0x6966 <__mulsf3_pse+0x84>
    696e:	98 3e       	cpi	r25, 0xE8	; 232
    6970:	d4 f3       	brlt	.-12     	; 0x6966 <__mulsf3_pse+0x84>
    6972:	86 95       	lsr	r24
    6974:	77 95       	ror	r23
    6976:	67 95       	ror	r22
    6978:	b7 95       	ror	r27
    697a:	f7 95       	ror	r31
    697c:	e7 95       	ror	r30
    697e:	9f 5f       	subi	r25, 0xFF	; 255
    6980:	c1 f7       	brne	.-16     	; 0x6972 <__mulsf3_pse+0x90>
    6982:	fe 2b       	or	r31, r30
    6984:	88 0f       	add	r24, r24
    6986:	91 1d       	adc	r25, r1
    6988:	96 95       	lsr	r25
    698a:	87 95       	ror	r24
    698c:	97 f9       	bld	r25, 7
    698e:	08 95       	ret

00006990 <__unordsf2>:
    6990:	0e 94 d1 33 	call	0x67a2	; 0x67a2 <__fp_cmp>
    6994:	88 0b       	sbc	r24, r24
    6996:	99 0b       	sbc	r25, r25
    6998:	08 95       	ret

0000699a <abort>:
    699a:	81 e0       	ldi	r24, 0x01	; 1
    699c:	90 e0       	ldi	r25, 0x00	; 0
    699e:	f8 94       	cli
    69a0:	0c 94 0d 35 	jmp	0x6a1a	; 0x6a1a <_exit>

000069a4 <isxdigit>:
    69a4:	91 11       	cpse	r25, r1
    69a6:	0c 94 0a 35 	jmp	0x6a14	; 0x6a14 <__ctype_isfalse>
    69aa:	80 53       	subi	r24, 0x30	; 48
    69ac:	8a 50       	subi	r24, 0x0A	; 10
    69ae:	28 f0       	brcs	.+10     	; 0x69ba <isxdigit+0x16>
    69b0:	86 5c       	subi	r24, 0xC6	; 198
    69b2:	80 62       	ori	r24, 0x20	; 32
    69b4:	81 56       	subi	r24, 0x61	; 97
    69b6:	86 50       	subi	r24, 0x06	; 6
    69b8:	b0 f7       	brcc	.-20     	; 0x69a6 <isxdigit+0x2>
    69ba:	08 95       	ret

000069bc <isgraph>:
    69bc:	80 32       	cpi	r24, 0x20	; 32
    69be:	09 f0       	breq	.+2      	; 0x69c2 <isprint+0x2>

000069c0 <isprint>:
    69c0:	91 11       	cpse	r25, r1
    69c2:	0c 94 0a 35 	jmp	0x6a14	; 0x6a14 <__ctype_isfalse>
    69c6:	80 52       	subi	r24, 0x20	; 32
    69c8:	8f 55       	subi	r24, 0x5F	; 95
    69ca:	d8 f7       	brcc	.-10     	; 0x69c2 <isprint+0x2>
    69cc:	08 95       	ret

000069ce <memchr>:
    69ce:	fc 01       	movw	r30, r24
    69d0:	41 50       	subi	r20, 0x01	; 1
    69d2:	50 40       	sbci	r21, 0x00	; 0
    69d4:	30 f0       	brcs	.+12     	; 0x69e2 <memchr+0x14>
    69d6:	01 90       	ld	r0, Z+
    69d8:	06 16       	cp	r0, r22
    69da:	d1 f7       	brne	.-12     	; 0x69d0 <memchr+0x2>
    69dc:	31 97       	sbiw	r30, 0x01	; 1
    69de:	cf 01       	movw	r24, r30
    69e0:	08 95       	ret
    69e2:	88 27       	eor	r24, r24
    69e4:	99 27       	eor	r25, r25
    69e6:	08 95       	ret

000069e8 <memcmp>:
    69e8:	fb 01       	movw	r30, r22
    69ea:	dc 01       	movw	r26, r24
    69ec:	04 c0       	rjmp	.+8      	; 0x69f6 <memcmp+0xe>
    69ee:	8d 91       	ld	r24, X+
    69f0:	01 90       	ld	r0, Z+
    69f2:	80 19       	sub	r24, r0
    69f4:	21 f4       	brne	.+8      	; 0x69fe <memcmp+0x16>
    69f6:	41 50       	subi	r20, 0x01	; 1
    69f8:	50 40       	sbci	r21, 0x00	; 0
    69fa:	c8 f7       	brcc	.-14     	; 0x69ee <memcmp+0x6>
    69fc:	88 1b       	sub	r24, r24
    69fe:	99 0b       	sbc	r25, r25
    6a00:	08 95       	ret

00006a02 <memcpy>:
    6a02:	fb 01       	movw	r30, r22
    6a04:	dc 01       	movw	r26, r24
    6a06:	02 c0       	rjmp	.+4      	; 0x6a0c <memcpy+0xa>
    6a08:	01 90       	ld	r0, Z+
    6a0a:	0d 92       	st	X+, r0
    6a0c:	41 50       	subi	r20, 0x01	; 1
    6a0e:	50 40       	sbci	r21, 0x00	; 0
    6a10:	d8 f7       	brcc	.-10     	; 0x6a08 <memcpy+0x6>
    6a12:	08 95       	ret

00006a14 <__ctype_isfalse>:
    6a14:	99 27       	eor	r25, r25
    6a16:	88 27       	eor	r24, r24

00006a18 <__ctype_istrue>:
    6a18:	08 95       	ret

00006a1a <_exit>:
    6a1a:	f8 94       	cli

00006a1c <__stop_program>:
    6a1c:	ff cf       	rjmp	.-2      	; 0x6a1c <__stop_program>

Disassembly of section .bss:

00800238 <__bss_start>:
	...

00800239 <_ZL5count>:
	...

0080023b <current_diag_ops>:
	...

0080023d <current_diag_priv>:
	...

0080023f <pid_counter>:
	...

00800241 <gid_counter>:
	...

00800243 <__current_schedee>:
	...

00800245 <__jiffies>:
	...

0080024d <runlist>:
	...

Disassembly of section .comment:

00000000 <_end-0x80025d>:
   0:	47 43       	sbci	r20, 0x37	; 55
   2:	43 3a       	cpi	r20, 0xA3	; 163
   4:	20 28       	or	r2, r0
   6:	47 4e       	sbci	r20, 0xE7	; 231
   8:	55 29       	or	r21, r5
   a:	20 35       	cpi	r18, 0x50	; 80
   c:	2e 34       	cpi	r18, 0x4E	; 78
   e:	2e 30       	cpi	r18, 0x0E	; 14
	...

Disassembly of section .note.gnu.avr.deviceinfo:

00000000 <.note.gnu.avr.deviceinfo>:
   0:	04 00       	.word	0x0004	; ????
   2:	00 00       	nop
   4:	2d 00       	.word	0x002d	; ????
   6:	00 00       	nop
   8:	01 00       	.word	0x0001	; ????
   a:	00 00       	nop
   c:	41 56       	subi	r20, 0x61	; 97
   e:	52 00       	.word	0x0052	; ????
  10:	00 00       	nop
  12:	00 00       	nop
  14:	00 80       	ld	r0, Z
  16:	00 00       	nop
  18:	00 01       	movw	r0, r0
  1a:	00 00       	nop
  1c:	00 08       	sbc	r0, r0
  1e:	00 00       	nop
  20:	00 00       	nop
  22:	00 00       	nop
  24:	00 04       	cpc	r0, r0
  26:	00 00       	nop
  28:	08 00       	.word	0x0008	; ????
  2a:	00 00       	nop
  2c:	01 00       	.word	0x0001	; ????
  2e:	00 00       	nop
  30:	00 61       	ori	r16, 0x10	; 16
  32:	74 6d       	ori	r23, 0xD4	; 212
  34:	65 67       	ori	r22, 0x75	; 117
  36:	61 33       	cpi	r22, 0x31	; 49
  38:	32 38       	cpi	r19, 0x82	; 130
  3a:	70 00       	.word	0x0070	; ????
  3c:	00 00       	nop
	...

Disassembly of section .debug_info:

00000000 <.debug_info>:
   0:	f0 05       	cpc	r31, r0
   2:	00 00       	nop
   4:	02 00       	.word	0x0002	; ????
   6:	00 00       	nop
   8:	00 00       	nop
   a:	04 01       	movw	r0, r8
	...
  14:	02 0f       	add	r16, r18
  16:	00 00       	nop
  18:	00 01       	movw	r0, r0
  1a:	08 03       	fmul	r16, r16
  1c:	17 00       	.word	0x0017	; ????
  1e:	00 00       	nop
  20:	02 07       	cpc	r16, r18
  22:	04 14       	cp	r0, r4
  24:	00 00       	nop
  26:	00 05       	cpc	r16, r0
  28:	1b 00       	.word	0x001b	; ????
  2a:	00 00       	nop
  2c:	ff 03       	fmulsu	r23, r23
  2e:	00 06       	cpc	r0, r16
  30:	20 00       	.word	0x0020	; ????
  32:	00 00       	nop
  34:	00 00       	nop
  36:	22 00       	.word	0x0022	; ????
  38:	00 00       	nop
  3a:	01 05       	cpc	r16, r1
  3c:	03 00       	.word	0x0003	; ????
  3e:	00 81       	ld	r16, Z
  40:	00 07       	cpc	r16, r16
  42:	29 00       	.word	0x0029	; ????
  44:	00 00       	nop
  46:	00 00       	nop
  48:	14 00       	.word	0x0014	; ????
  4a:	00 00       	nop
  4c:	01 05       	cpc	r16, r1
  4e:	03 c6       	rjmp	.+3078   	; 0xc56 <atou32+0xac>
  50:	00 80       	ld	r0, Z
  52:	00 08       	sbc	r0, r0
  54:	2e 00       	.word	0x002e	; ????
  56:	00 00       	nop
  58:	00 00       	nop
  5a:	14 00       	.word	0x0014	; ????
  5c:	00 00       	nop
  5e:	01 05       	cpc	r16, r1
  60:	03 c0       	rjmp	.+6      	; 0x68 <__ctors_end>
  62:	00 80       	ld	r0, Z
  64:	00 09       	sbc	r16, r0
  66:	35 00       	.word	0x0035	; ????
  68:	00 00       	nop
  6a:	00 00       	nop
  6c:	14 00       	.word	0x0014	; ????
  6e:	00 00       	nop
  70:	01 05       	cpc	r16, r1
  72:	03 c1       	rjmp	.+518    	; 0x27a <system_unlock+0x44>
  74:	00 80       	ld	r0, Z
  76:	00 0a       	sbc	r0, r16
  78:	3c 00       	.word	0x003c	; ????
  7a:	00 00       	nop
  7c:	00 00       	nop
  7e:	14 00       	.word	0x0014	; ????
  80:	00 00       	nop
  82:	01 05       	cpc	r16, r1
  84:	03 c2       	rjmp	.+1030   	; 0x48c <__LOCK_REGION_LENGTH__+0x8c>
  86:	00 80       	ld	r0, Z
  88:	00 0b       	sbc	r16, r16
  8a:	43 00       	.word	0x0043	; ????
  8c:	00 00       	nop
  8e:	00 00       	nop
  90:	1b 00       	.word	0x001b	; ????
  92:	00 00       	nop
  94:	01 05       	cpc	r16, r1
  96:	03 c4       	rjmp	.+2054   	; 0x89e <u64toa+0xf4>
  98:	00 80       	ld	r0, Z
  9a:	00 0c       	add	r0, r0
  9c:	49 00       	.word	0x0049	; ????
  9e:	00 00       	nop
  a0:	00 00       	nop
  a2:	14 00       	.word	0x0014	; ????
  a4:	00 00       	nop
  a6:	01 05       	cpc	r16, r1
  a8:	03 bd       	out	0x23, r16	; 35
  aa:	00 80       	ld	r0, Z
  ac:	00 0d       	add	r16, r0
  ae:	4f 00       	.word	0x004f	; ????
  b0:	00 00       	nop
  b2:	00 00       	nop
  b4:	14 00       	.word	0x0014	; ????
  b6:	00 00       	nop
  b8:	01 05       	cpc	r16, r1
  ba:	03 b8       	out	0x03, r0	; 3
  bc:	00 80       	ld	r0, Z
  be:	00 0e       	add	r0, r16
  c0:	54 00       	.word	0x0054	; ????
  c2:	00 00       	nop
  c4:	00 00       	nop
  c6:	14 00       	.word	0x0014	; ????
  c8:	00 00       	nop
  ca:	01 05       	cpc	r16, r1
  cc:	03 bc       	out	0x23, r0	; 35
  ce:	00 80       	ld	r0, Z
  d0:	00 0f       	add	r16, r16
  d2:	59 00       	.word	0x0059	; ????
  d4:	00 00       	nop
  d6:	00 00       	nop
  d8:	14 00       	.word	0x0014	; ????
  da:	00 00       	nop
  dc:	01 05       	cpc	r16, r1
  de:	03 b9       	out	0x03, r16	; 3
  e0:	00 80       	ld	r0, Z
  e2:	00 10       	cpse	r0, r0
  e4:	5e 00       	.word	0x005e	; ????
  e6:	00 00       	nop
  e8:	00 00       	nop
  ea:	14 00       	.word	0x0014	; ????
  ec:	00 00       	nop
  ee:	01 05       	cpc	r16, r1
  f0:	03 bb       	out	0x13, r16	; 19
  f2:	00 80       	ld	r0, Z
  f4:	00 11       	cpse	r16, r0
  f6:	63 00       	.word	0x0063	; ????
  f8:	00 00       	nop
  fa:	00 00       	nop
  fc:	14 00       	.word	0x0014	; ????
  fe:	00 00       	nop
 100:	01 05       	cpc	r16, r1
 102:	03 ba       	out	0x13, r0	; 19
 104:	00 80       	ld	r0, Z
 106:	00 12       	cpse	r0, r16
 108:	68 00       	.word	0x0068	; ????
 10a:	00 00       	nop
 10c:	00 00       	nop
 10e:	14 00       	.word	0x0014	; ????
 110:	00 00       	nop
 112:	01 05       	cpc	r16, r1
 114:	03 6f       	ori	r16, 0xF3	; 243
 116:	00 80       	ld	r0, Z
 118:	00 13       	cpse	r16, r16
 11a:	6f 00       	.word	0x006f	; ????
 11c:	00 00       	nop
 11e:	00 00       	nop
 120:	14 00       	.word	0x0014	; ????
 122:	00 00       	nop
 124:	01 05       	cpc	r16, r1
 126:	03 36       	cpi	r16, 0x63	; 99
 128:	00 80       	ld	r0, Z
 12a:	00 14       	cp	r0, r0
 12c:	75 00       	.word	0x0075	; ????
 12e:	00 00       	nop
 130:	00 00       	nop
 132:	14 00       	.word	0x0014	; ????
 134:	00 00       	nop
 136:	01 05       	cpc	r16, r1
 138:	03 80       	ldd	r0, Z+3	; 0x03
 13a:	00 80       	ld	r0, Z
 13c:	00 15       	cp	r16, r0
 13e:	7c 00       	.word	0x007c	; ????
 140:	00 00       	nop
 142:	00 00       	nop
 144:	14 00       	.word	0x0014	; ????
 146:	00 00       	nop
 148:	01 05       	cpc	r16, r1
 14a:	03 81       	ldd	r16, Z+3	; 0x03
 14c:	00 80       	ld	r0, Z
 14e:	00 16       	cp	r0, r16
 150:	83 00       	.word	0x0083	; ????
 152:	00 00       	nop
 154:	00 00       	nop
 156:	14 00       	.word	0x0014	; ????
 158:	00 00       	nop
 15a:	01 05       	cpc	r16, r1
 15c:	03 82       	std	Z+3, r0	; 0x03
 15e:	00 80       	ld	r0, Z
 160:	00 17       	cp	r16, r16
 162:	8a 00       	.word	0x008a	; ????
 164:	00 00       	nop
 166:	00 00       	nop
 168:	1b 00       	.word	0x001b	; ????
 16a:	00 00       	nop
 16c:	01 05       	cpc	r16, r1
 16e:	03 84       	ldd	r0, Z+11	; 0x0b
 170:	00 80       	ld	r0, Z
 172:	00 18       	sub	r0, r0
 174:	90 00       	.word	0x0090	; ????
 176:	00 00       	nop
 178:	00 00       	nop
 17a:	1b 00       	.word	0x001b	; ????
 17c:	00 00       	nop
 17e:	01 05       	cpc	r16, r1
 180:	03 88       	ldd	r0, Z+19	; 0x13
 182:	00 80       	ld	r0, Z
 184:	00 19       	sub	r16, r0
 186:	96 00       	.word	0x0096	; ????
 188:	00 00       	nop
 18a:	00 00       	nop
 18c:	1b 00       	.word	0x001b	; ????
 18e:	00 00       	nop
 190:	01 05       	cpc	r16, r1
 192:	03 8a       	std	Z+19, r0	; 0x13
 194:	00 80       	ld	r0, Z
 196:	00 1a       	sub	r0, r16
 198:	9c 00       	.word	0x009c	; ????
 19a:	00 00       	nop
 19c:	00 00       	nop
 19e:	1b 00       	.word	0x001b	; ????
 1a0:	00 00       	nop
 1a2:	01 05       	cpc	r16, r1
 1a4:	03 86       	std	Z+11, r0	; 0x0b
 1a6:	00 80       	ld	r0, Z
 1a8:	00 1b       	sub	r16, r16
 1aa:	a1 00       	.word	0x00a1	; ????
 1ac:	00 00       	nop
 1ae:	00 00       	nop
 1b0:	14 00       	.word	0x0014	; ????
 1b2:	00 00       	nop
 1b4:	01 05       	cpc	r16, r1
 1b6:	03 43       	sbci	r16, 0x33	; 51
 1b8:	00 80       	ld	r0, Z
 1ba:	00 1c       	adc	r0, r0
 1bc:	a7 00       	.word	0x00a7	; ????
 1be:	00 00       	nop
 1c0:	00 00       	nop
 1c2:	14 00       	.word	0x0014	; ????
 1c4:	00 00       	nop
 1c6:	01 05       	cpc	r16, r1
 1c8:	03 70       	andi	r16, 0x03	; 3
 1ca:	00 80       	ld	r0, Z
 1cc:	00 1d       	adc	r16, r0
 1ce:	ae 00       	.word	0x00ae	; ????
 1d0:	00 00       	nop
 1d2:	00 00       	nop
 1d4:	14 00       	.word	0x0014	; ????
 1d6:	00 00       	nop
 1d8:	01 05       	cpc	r16, r1
 1da:	03 37       	cpi	r16, 0x73	; 115
 1dc:	00 80       	ld	r0, Z
 1de:	00 1e       	adc	r0, r16
 1e0:	b4 00       	.word	0x00b4	; ????
 1e2:	00 00       	nop
 1e4:	00 00       	nop
 1e6:	14 00       	.word	0x0014	; ????
 1e8:	00 00       	nop
 1ea:	01 05       	cpc	r16, r1
 1ec:	03 b0       	in	r0, 0x03	; 3
 1ee:	00 80       	ld	r0, Z
 1f0:	00 1f       	adc	r16, r16
 1f2:	bb 00       	.word	0x00bb	; ????
 1f4:	00 00       	nop
 1f6:	00 00       	nop
 1f8:	14 00       	.word	0x0014	; ????
 1fa:	00 00       	nop
 1fc:	01 05       	cpc	r16, r1
 1fe:	03 b1       	in	r16, 0x03	; 3
 200:	00 80       	ld	r0, Z
 202:	00 20       	and	r0, r0
 204:	c2 00       	.word	0x00c2	; ????
 206:	00 00       	nop
 208:	00 00       	nop
 20a:	14 00       	.word	0x0014	; ????
 20c:	00 00       	nop
 20e:	01 05       	cpc	r16, r1
 210:	03 b2       	in	r0, 0x13	; 19
 212:	00 80       	ld	r0, Z
 214:	00 21       	and	r16, r0
 216:	c8 00       	.word	0x00c8	; ????
 218:	00 00       	nop
 21a:	00 00       	nop
 21c:	14 00       	.word	0x0014	; ????
 21e:	00 00       	nop
 220:	01 05       	cpc	r16, r1
 222:	03 b4       	in	r0, 0x23	; 35
 224:	00 80       	ld	r0, Z
 226:	00 22       	and	r0, r16
 228:	ce 00       	.word	0x00ce	; ????
 22a:	00 00       	nop
 22c:	00 00       	nop
 22e:	14 00       	.word	0x0014	; ????
 230:	00 00       	nop
 232:	01 05       	cpc	r16, r1
 234:	03 b3       	in	r16, 0x13	; 19
 236:	00 80       	ld	r0, Z
 238:	00 23       	and	r16, r16
 23a:	d4 00       	.word	0x00d4	; ????
 23c:	00 00       	nop
 23e:	00 00       	nop
 240:	14 00       	.word	0x0014	; ????
 242:	00 00       	nop
 244:	01 05       	cpc	r16, r1
 246:	03 b6       	in	r0, 0x33	; 51
 248:	00 80       	ld	r0, Z
 24a:	00 24       	eor	r0, r0
 24c:	d9 00       	.word	0x00d9	; ????
 24e:	00 00       	nop
 250:	00 00       	nop
 252:	14 00       	.word	0x0014	; ????
 254:	00 00       	nop
 256:	01 05       	cpc	r16, r1
 258:	03 43       	sbci	r16, 0x33	; 51
 25a:	00 80       	ld	r0, Z
 25c:	00 25       	eor	r16, r0
 25e:	df 00       	.word	0x00df	; ????
 260:	00 00       	nop
 262:	00 00       	nop
 264:	14 00       	.word	0x0014	; ????
 266:	00 00       	nop
 268:	01 05       	cpc	r16, r1
 26a:	03 7c       	andi	r16, 0xC3	; 195
 26c:	00 80       	ld	r0, Z
 26e:	00 26       	eor	r0, r16
 270:	e5 00       	.word	0x00e5	; ????
 272:	00 00       	nop
 274:	00 00       	nop
 276:	1b 00       	.word	0x001b	; ????
 278:	00 00       	nop
 27a:	01 05       	cpc	r16, r1
 27c:	03 78       	andi	r16, 0x83	; 131
 27e:	00 80       	ld	r0, Z
 280:	00 27       	eor	r16, r16
 282:	e9 00       	.word	0x00e9	; ????
 284:	00 00       	nop
 286:	00 00       	nop
 288:	14 00       	.word	0x0014	; ????
 28a:	00 00       	nop
 28c:	01 05       	cpc	r16, r1
 28e:	03 7a       	andi	r16, 0xA3	; 163
 290:	00 80       	ld	r0, Z
 292:	00 28       	or	r0, r0
 294:	f0 00       	.word	0x00f0	; ????
 296:	00 00       	nop
 298:	00 00       	nop
 29a:	14 00       	.word	0x0014	; ????
 29c:	00 00       	nop
 29e:	01 05       	cpc	r16, r1
 2a0:	03 7b       	andi	r16, 0xB3	; 179
 2a2:	00 80       	ld	r0, Z
 2a4:	00 29       	or	r16, r0
 2a6:	f7 00       	.word	0x00f7	; ????
 2a8:	00 00       	nop
 2aa:	00 00       	nop
 2ac:	14 00       	.word	0x0014	; ????
 2ae:	00 00       	nop
 2b0:	01 05       	cpc	r16, r1
 2b2:	03 7e       	andi	r16, 0xE3	; 227
 2b4:	00 80       	ld	r0, Z
 2b6:	00 2a       	or	r0, r16
 2b8:	fd 00       	.word	0x00fd	; ????
 2ba:	00 00       	nop
 2bc:	00 00       	nop
 2be:	14 00       	.word	0x0014	; ????
 2c0:	00 00       	nop
 2c2:	01 05       	cpc	r16, r1
 2c4:	03 50       	subi	r16, 0x03	; 3
 2c6:	00 80       	ld	r0, Z
 2c8:	00 2b       	or	r16, r16
 2ca:	02 01       	movw	r0, r4
 2cc:	00 00       	nop
 2ce:	00 00       	nop
 2d0:	14 00       	.word	0x0014	; ????
 2d2:	00 00       	nop
 2d4:	01 05       	cpc	r16, r1
 2d6:	03 7f       	andi	r16, 0xF3	; 243
 2d8:	00 80       	ld	r0, Z
 2da:	00 2c       	mov	r0, r0
 2dc:	08 01       	movw	r0, r16
 2de:	00 00       	nop
 2e0:	00 00       	nop
 2e2:	14 00       	.word	0x0014	; ????
 2e4:	00 00       	nop
 2e6:	01 05       	cpc	r16, r1
 2e8:	03 25       	eor	r16, r3
 2ea:	00 80       	ld	r0, Z
 2ec:	00 2d       	mov	r16, r0
 2ee:	0e 01       	movw	r0, r28
 2f0:	00 00       	nop
 2f2:	00 00       	nop
 2f4:	14 00       	.word	0x0014	; ????
 2f6:	00 00       	nop
 2f8:	01 05       	cpc	r16, r1
 2fa:	03 24       	eor	r0, r3
 2fc:	00 80       	ld	r0, Z
 2fe:	00 2e       	mov	r0, r16
 300:	13 01       	movw	r2, r6
 302:	00 00       	nop
 304:	00 00       	nop
 306:	14 00       	.word	0x0014	; ????
 308:	00 00       	nop
 30a:	01 05       	cpc	r16, r1
 30c:	03 23       	and	r16, r19
 30e:	00 80       	ld	r0, Z
 310:	00 2f       	mov	r16, r16
 312:	18 01       	movw	r2, r16
 314:	00 00       	nop
 316:	00 00       	nop
 318:	14 00       	.word	0x0014	; ????
 31a:	00 00       	nop
 31c:	01 05       	cpc	r16, r1
 31e:	03 28       	or	r0, r3
 320:	00 80       	ld	r0, Z
 322:	00 30       	cpi	r16, 0x00	; 0
 324:	1e 01       	movw	r2, r28
 326:	00 00       	nop
 328:	00 00       	nop
 32a:	14 00       	.word	0x0014	; ????
 32c:	00 00       	nop
 32e:	01 05       	cpc	r16, r1
 330:	03 27       	eor	r16, r19
 332:	00 80       	ld	r0, Z
 334:	00 31       	cpi	r16, 0x10	; 16
 336:	23 01       	movw	r4, r6
 338:	00 00       	nop
 33a:	00 00       	nop
 33c:	14 00       	.word	0x0014	; ????
 33e:	00 00       	nop
 340:	01 05       	cpc	r16, r1
 342:	03 26       	eor	r0, r19
 344:	00 80       	ld	r0, Z
 346:	00 32       	cpi	r16, 0x20	; 32
 348:	28 01       	movw	r4, r16
 34a:	00 00       	nop
 34c:	00 00       	nop
 34e:	14 00       	.word	0x0014	; ????
 350:	00 00       	nop
 352:	01 05       	cpc	r16, r1
 354:	03 2b       	or	r16, r19
 356:	00 80       	ld	r0, Z
 358:	00 33       	cpi	r16, 0x30	; 48
 35a:	2e 01       	movw	r4, r28
 35c:	00 00       	nop
 35e:	00 00       	nop
 360:	14 00       	.word	0x0014	; ????
 362:	00 00       	nop
 364:	01 05       	cpc	r16, r1
 366:	03 2a       	or	r0, r19
 368:	00 80       	ld	r0, Z
 36a:	00 34       	cpi	r16, 0x40	; 64
 36c:	33 01       	movw	r6, r6
 36e:	00 00       	nop
 370:	00 00       	nop
 372:	14 00       	.word	0x0014	; ????
 374:	00 00       	nop
 376:	01 05       	cpc	r16, r1
 378:	03 29       	or	r16, r3
 37a:	00 80       	ld	r0, Z
 37c:	00 35       	cpi	r16, 0x50	; 80
 37e:	38 01       	movw	r6, r16
 380:	00 00       	nop
 382:	00 00       	nop
 384:	14 00       	.word	0x0014	; ????
 386:	00 00       	nop
 388:	01 05       	cpc	r16, r1
 38a:	03 48       	sbci	r16, 0x83	; 131
 38c:	00 80       	ld	r0, Z
 38e:	00 36       	cpi	r16, 0x60	; 96
 390:	3e 01       	movw	r6, r28
 392:	00 00       	nop
 394:	00 00       	nop
 396:	14 00       	.word	0x0014	; ????
 398:	00 00       	nop
 39a:	01 05       	cpc	r16, r1
 39c:	03 47       	sbci	r16, 0x73	; 115
 39e:	00 80       	ld	r0, Z
 3a0:	00 37       	cpi	r16, 0x70	; 112
 3a2:	44 01       	movw	r8, r8
 3a4:	00 00       	nop
 3a6:	00 00       	nop
 3a8:	14 00       	.word	0x0014	; ????
 3aa:	00 00       	nop
 3ac:	01 05       	cpc	r16, r1
 3ae:	03 46       	sbci	r16, 0x63	; 99
 3b0:	00 80       	ld	r0, Z
 3b2:	00 38       	cpi	r16, 0x80	; 128
 3b4:	4a 01       	movw	r8, r20
 3b6:	00 00       	nop
 3b8:	00 00       	nop
 3ba:	14 00       	.word	0x0014	; ????
 3bc:	00 00       	nop
 3be:	01 05       	cpc	r16, r1
 3c0:	03 45       	sbci	r16, 0x53	; 83
 3c2:	00 80       	ld	r0, Z
 3c4:	00 39       	cpi	r16, 0x90	; 144
 3c6:	51 01       	movw	r10, r2
 3c8:	00 00       	nop
 3ca:	00 00       	nop
 3cc:	14 00       	.word	0x0014	; ????
 3ce:	00 00       	nop
 3d0:	01 05       	cpc	r16, r1
 3d2:	03 44       	sbci	r16, 0x43	; 67
 3d4:	00 80       	ld	r0, Z
 3d6:	00 3a       	cpi	r16, 0xA0	; 160
 3d8:	58 01       	movw	r10, r16
 3da:	00 00       	nop
 3dc:	00 00       	nop
 3de:	14 00       	.word	0x0014	; ????
 3e0:	00 00       	nop
 3e2:	01 05       	cpc	r16, r1
 3e4:	03 6e       	ori	r16, 0xE3	; 227
 3e6:	00 80       	ld	r0, Z
 3e8:	00 3b       	cpi	r16, 0xB0	; 176
 3ea:	5f 01       	movw	r10, r30
 3ec:	00 00       	nop
 3ee:	00 00       	nop
 3f0:	14 00       	.word	0x0014	; ????
 3f2:	00 00       	nop
 3f4:	01 05       	cpc	r16, r1
 3f6:	03 35       	cpi	r16, 0x53	; 83
 3f8:	00 80       	ld	r0, Z
 3fa:	00 3c       	cpi	r16, 0xC0	; 192
 3fc:	65 01       	movw	r12, r10
 3fe:	00 00       	nop
 400:	00 00       	nop
 402:	14 00       	.word	0x0014	; ????
 404:	00 00       	nop
 406:	01 05       	cpc	r16, r1
 408:	03 43       	sbci	r16, 0x33	; 51
 40a:	00 80       	ld	r0, Z
 40c:	00 3d       	cpi	r16, 0xD0	; 208
 40e:	6b 01       	movw	r12, r22
 410:	00 00       	nop
 412:	00 00       	nop
 414:	14 00       	.word	0x0014	; ????
 416:	00 00       	nop
 418:	01 05       	cpc	r16, r1
 41a:	03 69       	ori	r16, 0x93	; 147
 41c:	00 80       	ld	r0, Z
 41e:	00 3e       	cpi	r16, 0xE0	; 224
 420:	71 01       	movw	r14, r2
 422:	00 00       	nop
 424:	00 00       	nop
 426:	14 00       	.word	0x0014	; ????
 428:	00 00       	nop
 42a:	01 05       	cpc	r16, r1
 42c:	03 3d       	cpi	r16, 0xD3	; 211
 42e:	00 80       	ld	r0, Z
 430:	00 3f       	cpi	r16, 0xF0	; 240
 432:	77 01       	movw	r14, r14
 434:	00 00       	nop
 436:	00 00       	nop
 438:	14 00       	.word	0x0014	; ????
 43a:	00 00       	nop
 43c:	01 05       	cpc	r16, r1
 43e:	03 3c       	cpi	r16, 0xC3	; 195
 440:	00 80       	ld	r0, Z
 442:	00 40       	sbci	r16, 0x00	; 0
 444:	7c 01       	movw	r14, r24
 446:	00 00       	nop
 448:	00 00       	nop
 44a:	14 00       	.word	0x0014	; ????
 44c:	00 00       	nop
 44e:	01 05       	cpc	r16, r1
 450:	03 68       	ori	r16, 0x83	; 131
 452:	00 80       	ld	r0, Z
 454:	00 41       	sbci	r16, 0x10	; 16
 456:	82 01       	movw	r16, r4
 458:	00 00       	nop
 45a:	00 00       	nop
 45c:	14 00       	.word	0x0014	; ????
 45e:	00 00       	nop
 460:	01 05       	cpc	r16, r1
 462:	03 6d       	ori	r16, 0xD3	; 211
 464:	00 80       	ld	r0, Z
 466:	00 42       	sbci	r16, 0x20	; 32
 468:	89 01       	movw	r16, r18
 46a:	00 00       	nop
 46c:	00 00       	nop
 46e:	14 00       	.word	0x0014	; ????
 470:	00 00       	nop
 472:	01 05       	cpc	r16, r1
 474:	03 6c       	ori	r16, 0xC3	; 195
 476:	00 80       	ld	r0, Z
 478:	00 43       	sbci	r16, 0x30	; 48
 47a:	90 01       	movw	r18, r0
 47c:	00 00       	nop
 47e:	00 00       	nop
 480:	14 00       	.word	0x0014	; ????
 482:	00 00       	nop
 484:	01 05       	cpc	r16, r1
 486:	03 6b       	ori	r16, 0xB3	; 179
 488:	00 80       	ld	r0, Z
 48a:	00 44       	sbci	r16, 0x40	; 64
 48c:	97 01       	movw	r18, r14
 48e:	00 00       	nop
 490:	00 00       	nop
 492:	14 00       	.word	0x0014	; ????
 494:	00 00       	nop
 496:	01 05       	cpc	r16, r1
 498:	03 3b       	cpi	r16, 0xB3	; 179
 49a:	00 80       	ld	r0, Z
 49c:	00 45       	sbci	r16, 0x50	; 80
 49e:	9d 01       	movw	r18, r26
 4a0:	00 00       	nop
 4a2:	00 00       	nop
 4a4:	14 00       	.word	0x0014	; ????
 4a6:	00 00       	nop
 4a8:	01 05       	cpc	r16, r1
 4aa:	03 4e       	sbci	r16, 0xE3	; 227
 4ac:	00 80       	ld	r0, Z
 4ae:	00 46       	sbci	r16, 0x60	; 96
 4b0:	a2 01       	movw	r20, r4
 4b2:	00 00       	nop
 4b4:	00 00       	nop
 4b6:	14 00       	.word	0x0014	; ????
 4b8:	00 00       	nop
 4ba:	01 05       	cpc	r16, r1
 4bc:	03 4d       	sbci	r16, 0xD3	; 211
 4be:	00 80       	ld	r0, Z
 4c0:	00 47       	sbci	r16, 0x70	; 112
 4c2:	a7 01       	movw	r20, r14
 4c4:	00 00       	nop
 4c6:	00 00       	nop
 4c8:	14 00       	.word	0x0014	; ????
 4ca:	00 00       	nop
 4cc:	01 05       	cpc	r16, r1
 4ce:	03 4c       	sbci	r16, 0xC3	; 195
 4d0:	00 80       	ld	r0, Z
 4d2:	00 48       	sbci	r16, 0x80	; 128
 4d4:	ac 01       	movw	r20, r24
 4d6:	00 00       	nop
 4d8:	00 00       	nop
 4da:	14 00       	.word	0x0014	; ????
 4dc:	00 00       	nop
 4de:	01 05       	cpc	r16, r1
 4e0:	03 60       	ori	r16, 0x03	; 3
 4e2:	00 80       	ld	r0, Z
 4e4:	00 49       	sbci	r16, 0x90	; 144
 4e6:	b3 01       	movw	r22, r6
 4e8:	00 00       	nop
 4ea:	00 00       	nop
 4ec:	14 00       	.word	0x0014	; ????
 4ee:	00 00       	nop
 4f0:	01 05       	cpc	r16, r1
 4f2:	03 64       	ori	r16, 0x43	; 67
 4f4:	00 80       	ld	r0, Z
 4f6:	00 4a       	sbci	r16, 0xA0	; 160
 4f8:	b7 01       	movw	r22, r14
 4fa:	00 00       	nop
 4fc:	00 00       	nop
 4fe:	14 00       	.word	0x0014	; ????
 500:	00 00       	nop
 502:	01 05       	cpc	r16, r1
 504:	03 66       	ori	r16, 0x63	; 99
 506:	00 80       	ld	r0, Z
 508:	00 4b       	sbci	r16, 0xB0	; 176
 50a:	be 01       	movw	r22, r28
 50c:	00 00       	nop
 50e:	00 00       	nop
 510:	14 00       	.word	0x0014	; ????
 512:	00 00       	nop
 514:	01 05       	cpc	r16, r1
 516:	03 61       	ori	r16, 0x13	; 19
 518:	00 80       	ld	r0, Z
 51a:	00 4c       	sbci	r16, 0xC0	; 192
 51c:	c4 01       	movw	r24, r8
 51e:	00 00       	nop
 520:	00 00       	nop
 522:	14 00       	.word	0x0014	; ????
 524:	00 00       	nop
 526:	01 05       	cpc	r16, r1
 528:	03 5f       	subi	r16, 0xF3	; 243
 52a:	00 80       	ld	r0, Z
 52c:	00 4d       	sbci	r16, 0xD0	; 208
 52e:	c9 01       	movw	r24, r18
 530:	00 00       	nop
 532:	00 00       	nop
 534:	1b 00       	.word	0x001b	; ????
 536:	00 00       	nop
 538:	01 05       	cpc	r16, r1
 53a:	03 5d       	subi	r16, 0xD3	; 211
 53c:	00 80       	ld	r0, Z
 53e:	00 4e       	sbci	r16, 0xE0	; 224
 540:	cc 01       	movw	r24, r24
 542:	00 00       	nop
 544:	00 00       	nop
 546:	14 00       	.word	0x0014	; ????
 548:	00 00       	nop
 54a:	01 05       	cpc	r16, r1
 54c:	03 57       	subi	r16, 0x73	; 115
 54e:	00 80       	ld	r0, Z
 550:	00 4f       	sbci	r16, 0xF0	; 240
 552:	d3 01       	movw	r26, r6
 554:	00 00       	nop
 556:	00 00       	nop
 558:	14 00       	.word	0x0014	; ????
 55a:	00 00       	nop
 55c:	01 05       	cpc	r16, r1
 55e:	03 55       	subi	r16, 0x53	; 83
 560:	00 80       	ld	r0, Z
 562:	00 50       	subi	r16, 0x00	; 0
 564:	d9 01       	movw	r26, r18
 566:	00 00       	nop
 568:	00 00       	nop
 56a:	14 00       	.word	0x0014	; ????
 56c:	00 00       	nop
 56e:	01 05       	cpc	r16, r1
 570:	03 54       	subi	r16, 0x43	; 67
 572:	00 80       	ld	r0, Z
 574:	00 51       	subi	r16, 0x10	; 16
 576:	df 01       	movw	r26, r30
 578:	00 00       	nop
 57a:	00 00       	nop
 57c:	14 00       	.word	0x0014	; ????
 57e:	00 00       	nop
 580:	01 05       	cpc	r16, r1
 582:	03 53       	subi	r16, 0x33	; 51
 584:	00 80       	ld	r0, Z
 586:	00 52       	subi	r16, 0x20	; 32
 588:	e4 01       	movw	r28, r8
 58a:	00 00       	nop
 58c:	00 00       	nop
 58e:	14 00       	.word	0x0014	; ????
 590:	00 00       	nop
 592:	01 05       	cpc	r16, r1
 594:	03 4b       	sbci	r16, 0xB3	; 179
 596:	00 80       	ld	r0, Z
 598:	00 53       	subi	r16, 0x30	; 48
 59a:	eb 01       	movw	r28, r22
 59c:	00 00       	nop
 59e:	00 00       	nop
 5a0:	14 00       	.word	0x0014	; ????
 5a2:	00 00       	nop
 5a4:	01 05       	cpc	r16, r1
 5a6:	03 4a       	sbci	r16, 0xA3	; 163
 5a8:	00 80       	ld	r0, Z
 5aa:	00 54       	subi	r16, 0x40	; 64
 5ac:	f2 01       	movw	r30, r4
 5ae:	00 00       	nop
 5b0:	00 00       	nop
 5b2:	14 00       	.word	0x0014	; ????
 5b4:	00 00       	nop
 5b6:	01 05       	cpc	r16, r1
 5b8:	03 3e       	cpi	r16, 0xE3	; 227
 5ba:	00 80       	ld	r0, Z
 5bc:	00 55       	subi	r16, 0x50	; 80
 5be:	f9 01       	movw	r30, r18
 5c0:	00 00       	nop
 5c2:	00 00       	nop
 5c4:	1b 00       	.word	0x001b	; ????
 5c6:	00 00       	nop
 5c8:	01 05       	cpc	r16, r1
 5ca:	03 41       	sbci	r16, 0x13	; 19
 5cc:	00 80       	ld	r0, Z
 5ce:	00 56       	subi	r16, 0x60	; 96
 5d0:	fe 01       	movw	r30, r28
 5d2:	00 00       	nop
 5d4:	00 00       	nop
 5d6:	14 00       	.word	0x0014	; ????
 5d8:	00 00       	nop
 5da:	01 05       	cpc	r16, r1
 5dc:	03 40       	sbci	r16, 0x03	; 3
 5de:	00 80       	ld	r0, Z
 5e0:	00 57       	subi	r16, 0x70	; 112
 5e2:	03 02       	muls	r16, r19
 5e4:	00 00       	nop
 5e6:	00 00       	nop
 5e8:	14 00       	.word	0x0014	; ????
 5ea:	00 00       	nop
 5ec:	01 05       	cpc	r16, r1
 5ee:	03 3f       	cpi	r16, 0xF3	; 243
 5f0:	00 80       	ld	r0, Z
	...

Disassembly of section .debug_abbrev:

00000000 <.debug_abbrev>:
   0:	01 11       	cpse	r16, r1
   2:	01 25       	eor	r16, r1
   4:	0e 10       	cpse	r0, r14
   6:	06 00       	.word	0x0006	; ????
   8:	00 02       	muls	r16, r16
   a:	24 00       	.word	0x0024	; ????
   c:	03 0e       	add	r0, r19
   e:	0b 0b       	sbc	r16, r27
  10:	3e 0b       	sbc	r19, r30
  12:	00 00       	nop
  14:	03 24       	eor	r0, r3
  16:	00 03       	mulsu	r16, r16
  18:	0e 0b       	sbc	r16, r30
  1a:	0b 3e       	cpi	r16, 0xEB	; 235
  1c:	0b 00       	.word	0x000b	; ????
  1e:	00 04       	cpc	r0, r0
  20:	01 01       	movw	r0, r2
  22:	49 13       	cpse	r20, r25
  24:	00 00       	nop
  26:	05 21       	and	r16, r5
  28:	00 49       	sbci	r16, 0x90	; 144
  2a:	13 2f       	mov	r17, r19
  2c:	05 00       	.word	0x0005	; ????
  2e:	00 06       	cpc	r0, r16
  30:	34 00       	.word	0x0034	; ????
  32:	03 0e       	add	r0, r19
  34:	3a 0b       	sbc	r19, r26
  36:	3b 0b       	sbc	r19, r27
  38:	49 13       	cpse	r20, r25
  3a:	3f 0c       	add	r3, r15
  3c:	02 0a       	sbc	r0, r18
  3e:	00 00       	nop
  40:	07 34       	cpi	r16, 0x47	; 71
  42:	00 03       	mulsu	r16, r16
  44:	0e 3a       	cpi	r16, 0xAE	; 174
  46:	0b 3b       	cpi	r16, 0xBB	; 187
  48:	0b 49       	sbci	r16, 0x9B	; 155
  4a:	13 3f       	cpi	r17, 0xF3	; 243
  4c:	0c 02       	muls	r16, r28
  4e:	0a 00       	.word	0x000a	; ????
  50:	00 08       	sbc	r0, r0
  52:	34 00       	.word	0x0034	; ????
  54:	03 0e       	add	r0, r19
  56:	3a 0b       	sbc	r19, r26
  58:	3b 0b       	sbc	r19, r27
  5a:	49 13       	cpse	r20, r25
  5c:	3f 0c       	add	r3, r15
  5e:	02 0a       	sbc	r0, r18
  60:	00 00       	nop
  62:	09 34       	cpi	r16, 0x49	; 73
  64:	00 03       	mulsu	r16, r16
  66:	0e 3a       	cpi	r16, 0xAE	; 174
  68:	0b 3b       	cpi	r16, 0xBB	; 187
  6a:	0b 49       	sbci	r16, 0x9B	; 155
  6c:	13 3f       	cpi	r17, 0xF3	; 243
  6e:	0c 02       	muls	r16, r28
  70:	0a 00       	.word	0x000a	; ????
  72:	00 0a       	sbc	r0, r16
  74:	34 00       	.word	0x0034	; ????
  76:	03 0e       	add	r0, r19
  78:	3a 0b       	sbc	r19, r26
  7a:	3b 0b       	sbc	r19, r27
  7c:	49 13       	cpse	r20, r25
  7e:	3f 0c       	add	r3, r15
  80:	02 0a       	sbc	r0, r18
  82:	00 00       	nop
  84:	0b 34       	cpi	r16, 0x4B	; 75
  86:	00 03       	mulsu	r16, r16
  88:	0e 3a       	cpi	r16, 0xAE	; 174
  8a:	0b 3b       	cpi	r16, 0xBB	; 187
  8c:	0b 49       	sbci	r16, 0x9B	; 155
  8e:	13 3f       	cpi	r17, 0xF3	; 243
  90:	0c 02       	muls	r16, r28
  92:	0a 00       	.word	0x000a	; ????
  94:	00 0c       	add	r0, r0
  96:	34 00       	.word	0x0034	; ????
  98:	03 0e       	add	r0, r19
  9a:	3a 0b       	sbc	r19, r26
  9c:	3b 0b       	sbc	r19, r27
  9e:	49 13       	cpse	r20, r25
  a0:	3f 0c       	add	r3, r15
  a2:	02 0a       	sbc	r0, r18
  a4:	00 00       	nop
  a6:	0d 34       	cpi	r16, 0x4D	; 77
  a8:	00 03       	mulsu	r16, r16
  aa:	0e 3a       	cpi	r16, 0xAE	; 174
  ac:	0b 3b       	cpi	r16, 0xBB	; 187
  ae:	0b 49       	sbci	r16, 0x9B	; 155
  b0:	13 3f       	cpi	r17, 0xF3	; 243
  b2:	0c 02       	muls	r16, r28
  b4:	0a 00       	.word	0x000a	; ????
  b6:	00 0e       	add	r0, r16
  b8:	34 00       	.word	0x0034	; ????
  ba:	03 0e       	add	r0, r19
  bc:	3a 0b       	sbc	r19, r26
  be:	3b 0b       	sbc	r19, r27
  c0:	49 13       	cpse	r20, r25
  c2:	3f 0c       	add	r3, r15
  c4:	02 0a       	sbc	r0, r18
  c6:	00 00       	nop
  c8:	0f 34       	cpi	r16, 0x4F	; 79
  ca:	00 03       	mulsu	r16, r16
  cc:	0e 3a       	cpi	r16, 0xAE	; 174
  ce:	0b 3b       	cpi	r16, 0xBB	; 187
  d0:	0b 49       	sbci	r16, 0x9B	; 155
  d2:	13 3f       	cpi	r17, 0xF3	; 243
  d4:	0c 02       	muls	r16, r28
  d6:	0a 00       	.word	0x000a	; ????
  d8:	00 10       	cpse	r0, r0
  da:	34 00       	.word	0x0034	; ????
  dc:	03 0e       	add	r0, r19
  de:	3a 0b       	sbc	r19, r26
  e0:	3b 0b       	sbc	r19, r27
  e2:	49 13       	cpse	r20, r25
  e4:	3f 0c       	add	r3, r15
  e6:	02 0a       	sbc	r0, r18
  e8:	00 00       	nop
  ea:	11 34       	cpi	r17, 0x41	; 65
  ec:	00 03       	mulsu	r16, r16
  ee:	0e 3a       	cpi	r16, 0xAE	; 174
  f0:	0b 3b       	cpi	r16, 0xBB	; 187
  f2:	0b 49       	sbci	r16, 0x9B	; 155
  f4:	13 3f       	cpi	r17, 0xF3	; 243
  f6:	0c 02       	muls	r16, r28
  f8:	0a 00       	.word	0x000a	; ????
  fa:	00 12       	cpse	r0, r16
  fc:	34 00       	.word	0x0034	; ????
  fe:	03 0e       	add	r0, r19
 100:	3a 0b       	sbc	r19, r26
 102:	3b 0b       	sbc	r19, r27
 104:	49 13       	cpse	r20, r25
 106:	3f 0c       	add	r3, r15
 108:	02 0a       	sbc	r0, r18
 10a:	00 00       	nop
 10c:	13 34       	cpi	r17, 0x43	; 67
 10e:	00 03       	mulsu	r16, r16
 110:	0e 3a       	cpi	r16, 0xAE	; 174
 112:	0b 3b       	cpi	r16, 0xBB	; 187
 114:	0b 49       	sbci	r16, 0x9B	; 155
 116:	13 3f       	cpi	r17, 0xF3	; 243
 118:	0c 02       	muls	r16, r28
 11a:	0a 00       	.word	0x000a	; ????
 11c:	00 14       	cp	r0, r0
 11e:	34 00       	.word	0x0034	; ????
 120:	03 0e       	add	r0, r19
 122:	3a 0b       	sbc	r19, r26
 124:	3b 0b       	sbc	r19, r27
 126:	49 13       	cpse	r20, r25
 128:	3f 0c       	add	r3, r15
 12a:	02 0a       	sbc	r0, r18
 12c:	00 00       	nop
 12e:	15 34       	cpi	r17, 0x45	; 69
 130:	00 03       	mulsu	r16, r16
 132:	0e 3a       	cpi	r16, 0xAE	; 174
 134:	0b 3b       	cpi	r16, 0xBB	; 187
 136:	0b 49       	sbci	r16, 0x9B	; 155
 138:	13 3f       	cpi	r17, 0xF3	; 243
 13a:	0c 02       	muls	r16, r28
 13c:	0a 00       	.word	0x000a	; ????
 13e:	00 16       	cp	r0, r16
 140:	34 00       	.word	0x0034	; ????
 142:	03 0e       	add	r0, r19
 144:	3a 0b       	sbc	r19, r26
 146:	3b 0b       	sbc	r19, r27
 148:	49 13       	cpse	r20, r25
 14a:	3f 0c       	add	r3, r15
 14c:	02 0a       	sbc	r0, r18
 14e:	00 00       	nop
 150:	17 34       	cpi	r17, 0x47	; 71
 152:	00 03       	mulsu	r16, r16
 154:	0e 3a       	cpi	r16, 0xAE	; 174
 156:	0b 3b       	cpi	r16, 0xBB	; 187
 158:	0b 49       	sbci	r16, 0x9B	; 155
 15a:	13 3f       	cpi	r17, 0xF3	; 243
 15c:	0c 02       	muls	r16, r28
 15e:	0a 00       	.word	0x000a	; ????
 160:	00 18       	sub	r0, r0
 162:	34 00       	.word	0x0034	; ????
 164:	03 0e       	add	r0, r19
 166:	3a 0b       	sbc	r19, r26
 168:	3b 0b       	sbc	r19, r27
 16a:	49 13       	cpse	r20, r25
 16c:	3f 0c       	add	r3, r15
 16e:	02 0a       	sbc	r0, r18
 170:	00 00       	nop
 172:	19 34       	cpi	r17, 0x49	; 73
 174:	00 03       	mulsu	r16, r16
 176:	0e 3a       	cpi	r16, 0xAE	; 174
 178:	0b 3b       	cpi	r16, 0xBB	; 187
 17a:	0b 49       	sbci	r16, 0x9B	; 155
 17c:	13 3f       	cpi	r17, 0xF3	; 243
 17e:	0c 02       	muls	r16, r28
 180:	0a 00       	.word	0x000a	; ????
 182:	00 1a       	sub	r0, r16
 184:	34 00       	.word	0x0034	; ????
 186:	03 0e       	add	r0, r19
 188:	3a 0b       	sbc	r19, r26
 18a:	3b 0b       	sbc	r19, r27
 18c:	49 13       	cpse	r20, r25
 18e:	3f 0c       	add	r3, r15
 190:	02 0a       	sbc	r0, r18
 192:	00 00       	nop
 194:	1b 34       	cpi	r17, 0x4B	; 75
 196:	00 03       	mulsu	r16, r16
 198:	0e 3a       	cpi	r16, 0xAE	; 174
 19a:	0b 3b       	cpi	r16, 0xBB	; 187
 19c:	0b 49       	sbci	r16, 0x9B	; 155
 19e:	13 3f       	cpi	r17, 0xF3	; 243
 1a0:	0c 02       	muls	r16, r28
 1a2:	0a 00       	.word	0x000a	; ????
 1a4:	00 1c       	adc	r0, r0
 1a6:	34 00       	.word	0x0034	; ????
 1a8:	03 0e       	add	r0, r19
 1aa:	3a 0b       	sbc	r19, r26
 1ac:	3b 0b       	sbc	r19, r27
 1ae:	49 13       	cpse	r20, r25
 1b0:	3f 0c       	add	r3, r15
 1b2:	02 0a       	sbc	r0, r18
 1b4:	00 00       	nop
 1b6:	1d 34       	cpi	r17, 0x4D	; 77
 1b8:	00 03       	mulsu	r16, r16
 1ba:	0e 3a       	cpi	r16, 0xAE	; 174
 1bc:	0b 3b       	cpi	r16, 0xBB	; 187
 1be:	0b 49       	sbci	r16, 0x9B	; 155
 1c0:	13 3f       	cpi	r17, 0xF3	; 243
 1c2:	0c 02       	muls	r16, r28
 1c4:	0a 00       	.word	0x000a	; ????
 1c6:	00 1e       	adc	r0, r16
 1c8:	34 00       	.word	0x0034	; ????
 1ca:	03 0e       	add	r0, r19
 1cc:	3a 0b       	sbc	r19, r26
 1ce:	3b 0b       	sbc	r19, r27
 1d0:	49 13       	cpse	r20, r25
 1d2:	3f 0c       	add	r3, r15
 1d4:	02 0a       	sbc	r0, r18
 1d6:	00 00       	nop
 1d8:	1f 34       	cpi	r17, 0x4F	; 79
 1da:	00 03       	mulsu	r16, r16
 1dc:	0e 3a       	cpi	r16, 0xAE	; 174
 1de:	0b 3b       	cpi	r16, 0xBB	; 187
 1e0:	0b 49       	sbci	r16, 0x9B	; 155
 1e2:	13 3f       	cpi	r17, 0xF3	; 243
 1e4:	0c 02       	muls	r16, r28
 1e6:	0a 00       	.word	0x000a	; ????
 1e8:	00 20       	and	r0, r0
 1ea:	34 00       	.word	0x0034	; ????
 1ec:	03 0e       	add	r0, r19
 1ee:	3a 0b       	sbc	r19, r26
 1f0:	3b 0b       	sbc	r19, r27
 1f2:	49 13       	cpse	r20, r25
 1f4:	3f 0c       	add	r3, r15
 1f6:	02 0a       	sbc	r0, r18
 1f8:	00 00       	nop
 1fa:	21 34       	cpi	r18, 0x41	; 65
 1fc:	00 03       	mulsu	r16, r16
 1fe:	0e 3a       	cpi	r16, 0xAE	; 174
 200:	0b 3b       	cpi	r16, 0xBB	; 187
 202:	0b 49       	sbci	r16, 0x9B	; 155
 204:	13 3f       	cpi	r17, 0xF3	; 243
 206:	0c 02       	muls	r16, r28
 208:	0a 00       	.word	0x000a	; ????
 20a:	00 22       	and	r0, r16
 20c:	34 00       	.word	0x0034	; ????
 20e:	03 0e       	add	r0, r19
 210:	3a 0b       	sbc	r19, r26
 212:	3b 0b       	sbc	r19, r27
 214:	49 13       	cpse	r20, r25
 216:	3f 0c       	add	r3, r15
 218:	02 0a       	sbc	r0, r18
 21a:	00 00       	nop
 21c:	23 34       	cpi	r18, 0x43	; 67
 21e:	00 03       	mulsu	r16, r16
 220:	0e 3a       	cpi	r16, 0xAE	; 174
 222:	0b 3b       	cpi	r16, 0xBB	; 187
 224:	0b 49       	sbci	r16, 0x9B	; 155
 226:	13 3f       	cpi	r17, 0xF3	; 243
 228:	0c 02       	muls	r16, r28
 22a:	0a 00       	.word	0x000a	; ????
 22c:	00 24       	eor	r0, r0
 22e:	34 00       	.word	0x0034	; ????
 230:	03 0e       	add	r0, r19
 232:	3a 0b       	sbc	r19, r26
 234:	3b 0b       	sbc	r19, r27
 236:	49 13       	cpse	r20, r25
 238:	3f 0c       	add	r3, r15
 23a:	02 0a       	sbc	r0, r18
 23c:	00 00       	nop
 23e:	25 34       	cpi	r18, 0x45	; 69
 240:	00 03       	mulsu	r16, r16
 242:	0e 3a       	cpi	r16, 0xAE	; 174
 244:	0b 3b       	cpi	r16, 0xBB	; 187
 246:	0b 49       	sbci	r16, 0x9B	; 155
 248:	13 3f       	cpi	r17, 0xF3	; 243
 24a:	0c 02       	muls	r16, r28
 24c:	0a 00       	.word	0x000a	; ????
 24e:	00 26       	eor	r0, r16
 250:	34 00       	.word	0x0034	; ????
 252:	03 0e       	add	r0, r19
 254:	3a 0b       	sbc	r19, r26
 256:	3b 0b       	sbc	r19, r27
 258:	49 13       	cpse	r20, r25
 25a:	3f 0c       	add	r3, r15
 25c:	02 0a       	sbc	r0, r18
 25e:	00 00       	nop
 260:	27 34       	cpi	r18, 0x47	; 71
 262:	00 03       	mulsu	r16, r16
 264:	0e 3a       	cpi	r16, 0xAE	; 174
 266:	0b 3b       	cpi	r16, 0xBB	; 187
 268:	0b 49       	sbci	r16, 0x9B	; 155
 26a:	13 3f       	cpi	r17, 0xF3	; 243
 26c:	0c 02       	muls	r16, r28
 26e:	0a 00       	.word	0x000a	; ????
 270:	00 28       	or	r0, r0
 272:	34 00       	.word	0x0034	; ????
 274:	03 0e       	add	r0, r19
 276:	3a 0b       	sbc	r19, r26
 278:	3b 0b       	sbc	r19, r27
 27a:	49 13       	cpse	r20, r25
 27c:	3f 0c       	add	r3, r15
 27e:	02 0a       	sbc	r0, r18
 280:	00 00       	nop
 282:	29 34       	cpi	r18, 0x49	; 73
 284:	00 03       	mulsu	r16, r16
 286:	0e 3a       	cpi	r16, 0xAE	; 174
 288:	0b 3b       	cpi	r16, 0xBB	; 187
 28a:	0b 49       	sbci	r16, 0x9B	; 155
 28c:	13 3f       	cpi	r17, 0xF3	; 243
 28e:	0c 02       	muls	r16, r28
 290:	0a 00       	.word	0x000a	; ????
 292:	00 2a       	or	r0, r16
 294:	34 00       	.word	0x0034	; ????
 296:	03 0e       	add	r0, r19
 298:	3a 0b       	sbc	r19, r26
 29a:	3b 0b       	sbc	r19, r27
 29c:	49 13       	cpse	r20, r25
 29e:	3f 0c       	add	r3, r15
 2a0:	02 0a       	sbc	r0, r18
 2a2:	00 00       	nop
 2a4:	2b 34       	cpi	r18, 0x4B	; 75
 2a6:	00 03       	mulsu	r16, r16
 2a8:	0e 3a       	cpi	r16, 0xAE	; 174
 2aa:	0b 3b       	cpi	r16, 0xBB	; 187
 2ac:	0b 49       	sbci	r16, 0x9B	; 155
 2ae:	13 3f       	cpi	r17, 0xF3	; 243
 2b0:	0c 02       	muls	r16, r28
 2b2:	0a 00       	.word	0x000a	; ????
 2b4:	00 2c       	mov	r0, r0
 2b6:	34 00       	.word	0x0034	; ????
 2b8:	03 0e       	add	r0, r19
 2ba:	3a 0b       	sbc	r19, r26
 2bc:	3b 0b       	sbc	r19, r27
 2be:	49 13       	cpse	r20, r25
 2c0:	3f 0c       	add	r3, r15
 2c2:	02 0a       	sbc	r0, r18
 2c4:	00 00       	nop
 2c6:	2d 34       	cpi	r18, 0x4D	; 77
 2c8:	00 03       	mulsu	r16, r16
 2ca:	0e 3a       	cpi	r16, 0xAE	; 174
 2cc:	0b 3b       	cpi	r16, 0xBB	; 187
 2ce:	0b 49       	sbci	r16, 0x9B	; 155
 2d0:	13 3f       	cpi	r17, 0xF3	; 243
 2d2:	0c 02       	muls	r16, r28
 2d4:	0a 00       	.word	0x000a	; ????
 2d6:	00 2e       	mov	r0, r16
 2d8:	34 00       	.word	0x0034	; ????
 2da:	03 0e       	add	r0, r19
 2dc:	3a 0b       	sbc	r19, r26
 2de:	3b 0b       	sbc	r19, r27
 2e0:	49 13       	cpse	r20, r25
 2e2:	3f 0c       	add	r3, r15
 2e4:	02 0a       	sbc	r0, r18
 2e6:	00 00       	nop
 2e8:	2f 34       	cpi	r18, 0x4F	; 79
 2ea:	00 03       	mulsu	r16, r16
 2ec:	0e 3a       	cpi	r16, 0xAE	; 174
 2ee:	0b 3b       	cpi	r16, 0xBB	; 187
 2f0:	0b 49       	sbci	r16, 0x9B	; 155
 2f2:	13 3f       	cpi	r17, 0xF3	; 243
 2f4:	0c 02       	muls	r16, r28
 2f6:	0a 00       	.word	0x000a	; ????
 2f8:	00 30       	cpi	r16, 0x00	; 0
 2fa:	34 00       	.word	0x0034	; ????
 2fc:	03 0e       	add	r0, r19
 2fe:	3a 0b       	sbc	r19, r26
 300:	3b 0b       	sbc	r19, r27
 302:	49 13       	cpse	r20, r25
 304:	3f 0c       	add	r3, r15
 306:	02 0a       	sbc	r0, r18
 308:	00 00       	nop
 30a:	31 34       	cpi	r19, 0x41	; 65
 30c:	00 03       	mulsu	r16, r16
 30e:	0e 3a       	cpi	r16, 0xAE	; 174
 310:	0b 3b       	cpi	r16, 0xBB	; 187
 312:	0b 49       	sbci	r16, 0x9B	; 155
 314:	13 3f       	cpi	r17, 0xF3	; 243
 316:	0c 02       	muls	r16, r28
 318:	0a 00       	.word	0x000a	; ????
 31a:	00 32       	cpi	r16, 0x20	; 32
 31c:	34 00       	.word	0x0034	; ????
 31e:	03 0e       	add	r0, r19
 320:	3a 0b       	sbc	r19, r26
 322:	3b 0b       	sbc	r19, r27
 324:	49 13       	cpse	r20, r25
 326:	3f 0c       	add	r3, r15
 328:	02 0a       	sbc	r0, r18
 32a:	00 00       	nop
 32c:	33 34       	cpi	r19, 0x43	; 67
 32e:	00 03       	mulsu	r16, r16
 330:	0e 3a       	cpi	r16, 0xAE	; 174
 332:	0b 3b       	cpi	r16, 0xBB	; 187
 334:	0b 49       	sbci	r16, 0x9B	; 155
 336:	13 3f       	cpi	r17, 0xF3	; 243
 338:	0c 02       	muls	r16, r28
 33a:	0a 00       	.word	0x000a	; ????
 33c:	00 34       	cpi	r16, 0x40	; 64
 33e:	34 00       	.word	0x0034	; ????
 340:	03 0e       	add	r0, r19
 342:	3a 0b       	sbc	r19, r26
 344:	3b 0b       	sbc	r19, r27
 346:	49 13       	cpse	r20, r25
 348:	3f 0c       	add	r3, r15
 34a:	02 0a       	sbc	r0, r18
 34c:	00 00       	nop
 34e:	35 34       	cpi	r19, 0x45	; 69
 350:	00 03       	mulsu	r16, r16
 352:	0e 3a       	cpi	r16, 0xAE	; 174
 354:	0b 3b       	cpi	r16, 0xBB	; 187
 356:	0b 49       	sbci	r16, 0x9B	; 155
 358:	13 3f       	cpi	r17, 0xF3	; 243
 35a:	0c 02       	muls	r16, r28
 35c:	0a 00       	.word	0x000a	; ????
 35e:	00 36       	cpi	r16, 0x60	; 96
 360:	34 00       	.word	0x0034	; ????
 362:	03 0e       	add	r0, r19
 364:	3a 0b       	sbc	r19, r26
 366:	3b 0b       	sbc	r19, r27
 368:	49 13       	cpse	r20, r25
 36a:	3f 0c       	add	r3, r15
 36c:	02 0a       	sbc	r0, r18
 36e:	00 00       	nop
 370:	37 34       	cpi	r19, 0x47	; 71
 372:	00 03       	mulsu	r16, r16
 374:	0e 3a       	cpi	r16, 0xAE	; 174
 376:	0b 3b       	cpi	r16, 0xBB	; 187
 378:	0b 49       	sbci	r16, 0x9B	; 155
 37a:	13 3f       	cpi	r17, 0xF3	; 243
 37c:	0c 02       	muls	r16, r28
 37e:	0a 00       	.word	0x000a	; ????
 380:	00 38       	cpi	r16, 0x80	; 128
 382:	34 00       	.word	0x0034	; ????
 384:	03 0e       	add	r0, r19
 386:	3a 0b       	sbc	r19, r26
 388:	3b 0b       	sbc	r19, r27
 38a:	49 13       	cpse	r20, r25
 38c:	3f 0c       	add	r3, r15
 38e:	02 0a       	sbc	r0, r18
 390:	00 00       	nop
 392:	39 34       	cpi	r19, 0x49	; 73
 394:	00 03       	mulsu	r16, r16
 396:	0e 3a       	cpi	r16, 0xAE	; 174
 398:	0b 3b       	cpi	r16, 0xBB	; 187
 39a:	0b 49       	sbci	r16, 0x9B	; 155
 39c:	13 3f       	cpi	r17, 0xF3	; 243
 39e:	0c 02       	muls	r16, r28
 3a0:	0a 00       	.word	0x000a	; ????
 3a2:	00 3a       	cpi	r16, 0xA0	; 160
 3a4:	34 00       	.word	0x0034	; ????
 3a6:	03 0e       	add	r0, r19
 3a8:	3a 0b       	sbc	r19, r26
 3aa:	3b 0b       	sbc	r19, r27
 3ac:	49 13       	cpse	r20, r25
 3ae:	3f 0c       	add	r3, r15
 3b0:	02 0a       	sbc	r0, r18
 3b2:	00 00       	nop
 3b4:	3b 34       	cpi	r19, 0x4B	; 75
 3b6:	00 03       	mulsu	r16, r16
 3b8:	0e 3a       	cpi	r16, 0xAE	; 174
 3ba:	0b 3b       	cpi	r16, 0xBB	; 187
 3bc:	0b 49       	sbci	r16, 0x9B	; 155
 3be:	13 3f       	cpi	r17, 0xF3	; 243
 3c0:	0c 02       	muls	r16, r28
 3c2:	0a 00       	.word	0x000a	; ????
 3c4:	00 3c       	cpi	r16, 0xC0	; 192
 3c6:	34 00       	.word	0x0034	; ????
 3c8:	03 0e       	add	r0, r19
 3ca:	3a 0b       	sbc	r19, r26
 3cc:	3b 0b       	sbc	r19, r27
 3ce:	49 13       	cpse	r20, r25
 3d0:	3f 0c       	add	r3, r15
 3d2:	02 0a       	sbc	r0, r18
 3d4:	00 00       	nop
 3d6:	3d 34       	cpi	r19, 0x4D	; 77
 3d8:	00 03       	mulsu	r16, r16
 3da:	0e 3a       	cpi	r16, 0xAE	; 174
 3dc:	0b 3b       	cpi	r16, 0xBB	; 187
 3de:	0b 49       	sbci	r16, 0x9B	; 155
 3e0:	13 3f       	cpi	r17, 0xF3	; 243
 3e2:	0c 02       	muls	r16, r28
 3e4:	0a 00       	.word	0x000a	; ????
 3e6:	00 3e       	cpi	r16, 0xE0	; 224
 3e8:	34 00       	.word	0x0034	; ????
 3ea:	03 0e       	add	r0, r19
 3ec:	3a 0b       	sbc	r19, r26
 3ee:	3b 0b       	sbc	r19, r27
 3f0:	49 13       	cpse	r20, r25
 3f2:	3f 0c       	add	r3, r15
 3f4:	02 0a       	sbc	r0, r18
 3f6:	00 00       	nop
 3f8:	3f 34       	cpi	r19, 0x4F	; 79
 3fa:	00 03       	mulsu	r16, r16
 3fc:	0e 3a       	cpi	r16, 0xAE	; 174
 3fe:	0b 3b       	cpi	r16, 0xBB	; 187
 400:	0b 49       	sbci	r16, 0x9B	; 155
 402:	13 3f       	cpi	r17, 0xF3	; 243
 404:	0c 02       	muls	r16, r28
 406:	0a 00       	.word	0x000a	; ????
 408:	00 40       	sbci	r16, 0x00	; 0
 40a:	34 00       	.word	0x0034	; ????
 40c:	03 0e       	add	r0, r19
 40e:	3a 0b       	sbc	r19, r26
 410:	3b 0b       	sbc	r19, r27
 412:	49 13       	cpse	r20, r25
 414:	3f 0c       	add	r3, r15
 416:	02 0a       	sbc	r0, r18
 418:	00 00       	nop
 41a:	41 34       	cpi	r20, 0x41	; 65
 41c:	00 03       	mulsu	r16, r16
 41e:	0e 3a       	cpi	r16, 0xAE	; 174
 420:	0b 3b       	cpi	r16, 0xBB	; 187
 422:	0b 49       	sbci	r16, 0x9B	; 155
 424:	13 3f       	cpi	r17, 0xF3	; 243
 426:	0c 02       	muls	r16, r28
 428:	0a 00       	.word	0x000a	; ????
 42a:	00 42       	sbci	r16, 0x20	; 32
 42c:	34 00       	.word	0x0034	; ????
 42e:	03 0e       	add	r0, r19
 430:	3a 0b       	sbc	r19, r26
 432:	3b 0b       	sbc	r19, r27
 434:	49 13       	cpse	r20, r25
 436:	3f 0c       	add	r3, r15
 438:	02 0a       	sbc	r0, r18
 43a:	00 00       	nop
 43c:	43 34       	cpi	r20, 0x43	; 67
 43e:	00 03       	mulsu	r16, r16
 440:	0e 3a       	cpi	r16, 0xAE	; 174
 442:	0b 3b       	cpi	r16, 0xBB	; 187
 444:	0b 49       	sbci	r16, 0x9B	; 155
 446:	13 3f       	cpi	r17, 0xF3	; 243
 448:	0c 02       	muls	r16, r28
 44a:	0a 00       	.word	0x000a	; ????
 44c:	00 44       	sbci	r16, 0x40	; 64
 44e:	34 00       	.word	0x0034	; ????
 450:	03 0e       	add	r0, r19
 452:	3a 0b       	sbc	r19, r26
 454:	3b 0b       	sbc	r19, r27
 456:	49 13       	cpse	r20, r25
 458:	3f 0c       	add	r3, r15
 45a:	02 0a       	sbc	r0, r18
 45c:	00 00       	nop
 45e:	45 34       	cpi	r20, 0x45	; 69
 460:	00 03       	mulsu	r16, r16
 462:	0e 3a       	cpi	r16, 0xAE	; 174
 464:	0b 3b       	cpi	r16, 0xBB	; 187
 466:	0b 49       	sbci	r16, 0x9B	; 155
 468:	13 3f       	cpi	r17, 0xF3	; 243
 46a:	0c 02       	muls	r16, r28
 46c:	0a 00       	.word	0x000a	; ????
 46e:	00 46       	sbci	r16, 0x60	; 96
 470:	34 00       	.word	0x0034	; ????
 472:	03 0e       	add	r0, r19
 474:	3a 0b       	sbc	r19, r26
 476:	3b 0b       	sbc	r19, r27
 478:	49 13       	cpse	r20, r25
 47a:	3f 0c       	add	r3, r15
 47c:	02 0a       	sbc	r0, r18
 47e:	00 00       	nop
 480:	47 34       	cpi	r20, 0x47	; 71
 482:	00 03       	mulsu	r16, r16
 484:	0e 3a       	cpi	r16, 0xAE	; 174
 486:	0b 3b       	cpi	r16, 0xBB	; 187
 488:	0b 49       	sbci	r16, 0x9B	; 155
 48a:	13 3f       	cpi	r17, 0xF3	; 243
 48c:	0c 02       	muls	r16, r28
 48e:	0a 00       	.word	0x000a	; ????
 490:	00 48       	sbci	r16, 0x80	; 128
 492:	34 00       	.word	0x0034	; ????
 494:	03 0e       	add	r0, r19
 496:	3a 0b       	sbc	r19, r26
 498:	3b 0b       	sbc	r19, r27
 49a:	49 13       	cpse	r20, r25
 49c:	3f 0c       	add	r3, r15
 49e:	02 0a       	sbc	r0, r18
 4a0:	00 00       	nop
 4a2:	49 34       	cpi	r20, 0x49	; 73
 4a4:	00 03       	mulsu	r16, r16
 4a6:	0e 3a       	cpi	r16, 0xAE	; 174
 4a8:	0b 3b       	cpi	r16, 0xBB	; 187
 4aa:	0b 49       	sbci	r16, 0x9B	; 155
 4ac:	13 3f       	cpi	r17, 0xF3	; 243
 4ae:	0c 02       	muls	r16, r28
 4b0:	0a 00       	.word	0x000a	; ????
 4b2:	00 4a       	sbci	r16, 0xA0	; 160
 4b4:	34 00       	.word	0x0034	; ????
 4b6:	03 0e       	add	r0, r19
 4b8:	3a 0b       	sbc	r19, r26
 4ba:	3b 0b       	sbc	r19, r27
 4bc:	49 13       	cpse	r20, r25
 4be:	3f 0c       	add	r3, r15
 4c0:	02 0a       	sbc	r0, r18
 4c2:	00 00       	nop
 4c4:	4b 34       	cpi	r20, 0x4B	; 75
 4c6:	00 03       	mulsu	r16, r16
 4c8:	0e 3a       	cpi	r16, 0xAE	; 174
 4ca:	0b 3b       	cpi	r16, 0xBB	; 187
 4cc:	0b 49       	sbci	r16, 0x9B	; 155
 4ce:	13 3f       	cpi	r17, 0xF3	; 243
 4d0:	0c 02       	muls	r16, r28
 4d2:	0a 00       	.word	0x000a	; ????
 4d4:	00 4c       	sbci	r16, 0xC0	; 192
 4d6:	34 00       	.word	0x0034	; ????
 4d8:	03 0e       	add	r0, r19
 4da:	3a 0b       	sbc	r19, r26
 4dc:	3b 0b       	sbc	r19, r27
 4de:	49 13       	cpse	r20, r25
 4e0:	3f 0c       	add	r3, r15
 4e2:	02 0a       	sbc	r0, r18
 4e4:	00 00       	nop
 4e6:	4d 34       	cpi	r20, 0x4D	; 77
 4e8:	00 03       	mulsu	r16, r16
 4ea:	0e 3a       	cpi	r16, 0xAE	; 174
 4ec:	0b 3b       	cpi	r16, 0xBB	; 187
 4ee:	0b 49       	sbci	r16, 0x9B	; 155
 4f0:	13 3f       	cpi	r17, 0xF3	; 243
 4f2:	0c 02       	muls	r16, r28
 4f4:	0a 00       	.word	0x000a	; ????
 4f6:	00 4e       	sbci	r16, 0xE0	; 224
 4f8:	34 00       	.word	0x0034	; ????
 4fa:	03 0e       	add	r0, r19
 4fc:	3a 0b       	sbc	r19, r26
 4fe:	3b 0b       	sbc	r19, r27
 500:	49 13       	cpse	r20, r25
 502:	3f 0c       	add	r3, r15
 504:	02 0a       	sbc	r0, r18
 506:	00 00       	nop
 508:	4f 34       	cpi	r20, 0x4F	; 79
 50a:	00 03       	mulsu	r16, r16
 50c:	0e 3a       	cpi	r16, 0xAE	; 174
 50e:	0b 3b       	cpi	r16, 0xBB	; 187
 510:	0b 49       	sbci	r16, 0x9B	; 155
 512:	13 3f       	cpi	r17, 0xF3	; 243
 514:	0c 02       	muls	r16, r28
 516:	0a 00       	.word	0x000a	; ????
 518:	00 50       	subi	r16, 0x00	; 0
 51a:	34 00       	.word	0x0034	; ????
 51c:	03 0e       	add	r0, r19
 51e:	3a 0b       	sbc	r19, r26
 520:	3b 0b       	sbc	r19, r27
 522:	49 13       	cpse	r20, r25
 524:	3f 0c       	add	r3, r15
 526:	02 0a       	sbc	r0, r18
 528:	00 00       	nop
 52a:	51 34       	cpi	r21, 0x41	; 65
 52c:	00 03       	mulsu	r16, r16
 52e:	0e 3a       	cpi	r16, 0xAE	; 174
 530:	0b 3b       	cpi	r16, 0xBB	; 187
 532:	0b 49       	sbci	r16, 0x9B	; 155
 534:	13 3f       	cpi	r17, 0xF3	; 243
 536:	0c 02       	muls	r16, r28
 538:	0a 00       	.word	0x000a	; ????
 53a:	00 52       	subi	r16, 0x20	; 32
 53c:	34 00       	.word	0x0034	; ????
 53e:	03 0e       	add	r0, r19
 540:	3a 0b       	sbc	r19, r26
 542:	3b 0b       	sbc	r19, r27
 544:	49 13       	cpse	r20, r25
 546:	3f 0c       	add	r3, r15
 548:	02 0a       	sbc	r0, r18
 54a:	00 00       	nop
 54c:	53 34       	cpi	r21, 0x43	; 67
 54e:	00 03       	mulsu	r16, r16
 550:	0e 3a       	cpi	r16, 0xAE	; 174
 552:	0b 3b       	cpi	r16, 0xBB	; 187
 554:	0b 49       	sbci	r16, 0x9B	; 155
 556:	13 3f       	cpi	r17, 0xF3	; 243
 558:	0c 02       	muls	r16, r28
 55a:	0a 00       	.word	0x000a	; ????
 55c:	00 54       	subi	r16, 0x40	; 64
 55e:	34 00       	.word	0x0034	; ????
 560:	03 0e       	add	r0, r19
 562:	3a 0b       	sbc	r19, r26
 564:	3b 0b       	sbc	r19, r27
 566:	49 13       	cpse	r20, r25
 568:	3f 0c       	add	r3, r15
 56a:	02 0a       	sbc	r0, r18
 56c:	00 00       	nop
 56e:	55 34       	cpi	r21, 0x45	; 69
 570:	00 03       	mulsu	r16, r16
 572:	0e 3a       	cpi	r16, 0xAE	; 174
 574:	0b 3b       	cpi	r16, 0xBB	; 187
 576:	0b 49       	sbci	r16, 0x9B	; 155
 578:	13 3f       	cpi	r17, 0xF3	; 243
 57a:	0c 02       	muls	r16, r28
 57c:	0a 00       	.word	0x000a	; ????
 57e:	00 56       	subi	r16, 0x60	; 96
 580:	34 00       	.word	0x0034	; ????
 582:	03 0e       	add	r0, r19
 584:	3a 0b       	sbc	r19, r26
 586:	3b 0b       	sbc	r19, r27
 588:	49 13       	cpse	r20, r25
 58a:	3f 0c       	add	r3, r15
 58c:	02 0a       	sbc	r0, r18
 58e:	00 00       	nop
 590:	57 34       	cpi	r21, 0x47	; 71
 592:	00 03       	mulsu	r16, r16
 594:	0e 3a       	cpi	r16, 0xAE	; 174
 596:	0b 3b       	cpi	r16, 0xBB	; 187
 598:	0b 49       	sbci	r16, 0x9B	; 155
 59a:	13 3f       	cpi	r17, 0xF3	; 243
 59c:	0c 02       	muls	r16, r28
 59e:	0a 00       	.word	0x000a	; ????
	...

Disassembly of section .debug_line:

00000000 <.debug_line>:
   0:	16 00       	.word	0x0016	; ????
   2:	00 00       	nop
   4:	02 00       	.word	0x0002	; ????
   6:	10 00       	.word	0x0010	; ????
   8:	00 00       	nop
   a:	02 01       	movw	r0, r4
   c:	fb 0e       	add	r15, r27
   e:	0a 00       	.word	0x000a	; ????
  10:	01 01       	movw	r0, r2
  12:	01 01       	movw	r0, r2
  14:	00 00       	nop
  16:	00 01       	movw	r0, r0
	...

Disassembly of section .debug_str:

00000000 <.debug_str>:
   0:	61 76       	andi	r22, 0x61	; 97
   2:	72 2d       	mov	r23, r2
   4:	6c 69       	ori	r22, 0x9C	; 156
   6:	62 63       	ori	r22, 0x32	; 50
   8:	20 32       	cpi	r18, 0x20	; 32
   a:	2e 30       	cpi	r18, 0x0E	; 14
   c:	2e 30       	cpi	r18, 0x0E	; 14
   e:	00 75       	andi	r16, 0x50	; 80
  10:	69 6e       	ori	r22, 0xE9	; 233
  12:	74 38       	cpi	r23, 0x84	; 132
  14:	5f 74       	andi	r21, 0x4F	; 79
  16:	00 75       	andi	r16, 0x50	; 80
  18:	69 6e       	ori	r22, 0xE9	; 233
  1a:	74 31       	cpi	r23, 0x14	; 20
  1c:	36 5f       	subi	r19, 0xF6	; 246
  1e:	74 00       	.word	0x0074	; ????
  20:	5f 5f       	subi	r21, 0xFF	; 255
  22:	65 65       	ori	r22, 0x55	; 85
  24:	70 72       	andi	r23, 0x20	; 32
  26:	6f 6d       	ori	r22, 0xDF	; 223
  28:	00 55       	subi	r16, 0x50	; 80
  2a:	44 52       	subi	r20, 0x24	; 36
  2c:	30 00       	.word	0x0030	; ????
  2e:	55 43       	sbci	r21, 0x35	; 53
  30:	53 52       	subi	r21, 0x23	; 35
  32:	30 41       	sbci	r19, 0x10	; 16
  34:	00 55       	subi	r16, 0x50	; 80
  36:	43 53       	subi	r20, 0x33	; 51
  38:	52 30       	cpi	r21, 0x02	; 2
  3a:	42 00       	.word	0x0042	; ????
  3c:	55 43       	sbci	r21, 0x35	; 53
  3e:	53 52       	subi	r21, 0x23	; 35
  40:	30 43       	sbci	r19, 0x30	; 48
  42:	00 55       	subi	r16, 0x50	; 80
  44:	42 52       	subi	r20, 0x22	; 34
  46:	52 30       	cpi	r21, 0x02	; 2
  48:	00 54       	subi	r16, 0x40	; 64
  4a:	57 41       	sbci	r21, 0x17	; 23
  4c:	4d 52       	subi	r20, 0x2D	; 45
  4e:	00 54       	subi	r16, 0x40	; 64
  50:	57 42       	sbci	r21, 0x27	; 39
  52:	52 00       	.word	0x0052	; ????
  54:	54 57       	subi	r21, 0x74	; 116
  56:	43 52       	subi	r20, 0x23	; 35
  58:	00 54       	subi	r16, 0x40	; 64
  5a:	57 53       	subi	r21, 0x37	; 55
  5c:	52 00       	.word	0x0052	; ????
  5e:	54 57       	subi	r21, 0x74	; 116
  60:	44 52       	subi	r20, 0x24	; 36
  62:	00 54       	subi	r16, 0x40	; 64
  64:	57 41       	sbci	r21, 0x17	; 23
  66:	52 00       	.word	0x0052	; ????
  68:	54 49       	sbci	r21, 0x94	; 148
  6a:	4d 53       	subi	r20, 0x3D	; 61
  6c:	4b 31       	cpi	r20, 0x1B	; 27
  6e:	00 54       	subi	r16, 0x40	; 64
  70:	49 46       	sbci	r20, 0x69	; 105
  72:	52 31       	cpi	r21, 0x12	; 18
  74:	00 54       	subi	r16, 0x40	; 64
  76:	43 43       	sbci	r20, 0x33	; 51
  78:	52 31       	cpi	r21, 0x12	; 18
  7a:	41 00       	.word	0x0041	; ????
  7c:	54 43       	sbci	r21, 0x34	; 52
  7e:	43 52       	subi	r20, 0x23	; 35
  80:	31 42       	sbci	r19, 0x21	; 33
  82:	00 54       	subi	r16, 0x40	; 64
  84:	43 43       	sbci	r20, 0x33	; 51
  86:	52 31       	cpi	r21, 0x12	; 18
  88:	43 00       	.word	0x0043	; ????
  8a:	54 43       	sbci	r21, 0x34	; 52
  8c:	4e 54       	subi	r20, 0x4E	; 78
  8e:	31 00       	.word	0x0031	; ????
  90:	4f 43       	sbci	r20, 0x3F	; 63
  92:	52 31       	cpi	r21, 0x12	; 18
  94:	41 00       	.word	0x0041	; ????
  96:	4f 43       	sbci	r20, 0x3F	; 63
  98:	52 31       	cpi	r21, 0x12	; 18
  9a:	42 00       	.word	0x0042	; ????
  9c:	49 43       	sbci	r20, 0x39	; 57
  9e:	52 31       	cpi	r21, 0x12	; 18
  a0:	00 47       	sbci	r16, 0x70	; 112
  a2:	54 43       	sbci	r21, 0x34	; 52
  a4:	43 52       	subi	r20, 0x23	; 35
  a6:	00 54       	subi	r16, 0x40	; 64
  a8:	49 4d       	sbci	r20, 0xD9	; 217
  aa:	53 4b       	sbci	r21, 0xB3	; 179
  ac:	32 00       	.word	0x0032	; ????
  ae:	54 49       	sbci	r21, 0x94	; 148
  b0:	46 52       	subi	r20, 0x26	; 38
  b2:	32 00       	.word	0x0032	; ????
  b4:	54 43       	sbci	r21, 0x34	; 52
  b6:	43 52       	subi	r20, 0x23	; 35
  b8:	32 41       	sbci	r19, 0x12	; 18
  ba:	00 54       	subi	r16, 0x40	; 64
  bc:	43 43       	sbci	r20, 0x33	; 51
  be:	52 32       	cpi	r21, 0x22	; 34
  c0:	42 00       	.word	0x0042	; ????
  c2:	54 43       	sbci	r21, 0x34	; 52
  c4:	4e 54       	subi	r20, 0x4E	; 78
  c6:	32 00       	.word	0x0032	; ????
  c8:	4f 43       	sbci	r20, 0x3F	; 63
  ca:	52 32       	cpi	r21, 0x22	; 34
  cc:	42 00       	.word	0x0042	; ????
  ce:	4f 43       	sbci	r20, 0x3F	; 63
  d0:	52 32       	cpi	r21, 0x22	; 34
  d2:	41 00       	.word	0x0041	; ????
  d4:	41 53       	subi	r20, 0x31	; 49
  d6:	53 52       	subi	r21, 0x23	; 35
  d8:	00 47       	sbci	r16, 0x70	; 112
  da:	54 43       	sbci	r21, 0x34	; 52
  dc:	43 52       	subi	r20, 0x23	; 35
  de:	00 41       	sbci	r16, 0x10	; 16
  e0:	44 4d       	sbci	r20, 0xD4	; 212
  e2:	55 58       	subi	r21, 0x85	; 133
  e4:	00 41       	sbci	r16, 0x10	; 16
  e6:	44 43       	sbci	r20, 0x34	; 52
  e8:	00 41       	sbci	r16, 0x10	; 16
  ea:	44 43       	sbci	r20, 0x34	; 52
  ec:	53 52       	subi	r21, 0x23	; 35
  ee:	41 00       	.word	0x0041	; ????
  f0:	41 44       	sbci	r20, 0x41	; 65
  f2:	43 53       	subi	r20, 0x33	; 51
  f4:	52 42       	sbci	r21, 0x22	; 34
  f6:	00 44       	sbci	r16, 0x40	; 64
  f8:	49 44       	sbci	r20, 0x49	; 73
  fa:	52 30       	cpi	r21, 0x02	; 2
  fc:	00 41       	sbci	r16, 0x10	; 16
  fe:	43 53       	subi	r20, 0x33	; 51
 100:	52 00       	.word	0x0052	; ????
 102:	44 49       	sbci	r20, 0x94	; 148
 104:	44 52       	subi	r20, 0x24	; 36
 106:	31 00       	.word	0x0031	; ????
 108:	50 4f       	sbci	r21, 0xF0	; 240
 10a:	52 54       	subi	r21, 0x42	; 66
 10c:	42 00       	.word	0x0042	; ????
 10e:	44 44       	sbci	r20, 0x44	; 68
 110:	52 42       	sbci	r21, 0x22	; 34
 112:	00 50       	subi	r16, 0x00	; 0
 114:	49 4e       	sbci	r20, 0xE9	; 233
 116:	42 00       	.word	0x0042	; ????
 118:	50 4f       	sbci	r21, 0xF0	; 240
 11a:	52 54       	subi	r21, 0x42	; 66
 11c:	43 00       	.word	0x0043	; ????
 11e:	44 44       	sbci	r20, 0x44	; 68
 120:	52 43       	sbci	r21, 0x32	; 50
 122:	00 50       	subi	r16, 0x00	; 0
 124:	49 4e       	sbci	r20, 0xE9	; 233
 126:	43 00       	.word	0x0043	; ????
 128:	50 4f       	sbci	r21, 0xF0	; 240
 12a:	52 54       	subi	r21, 0x42	; 66
 12c:	44 00       	.word	0x0044	; ????
 12e:	44 44       	sbci	r20, 0x44	; 68
 130:	52 44       	sbci	r21, 0x42	; 66
 132:	00 50       	subi	r16, 0x00	; 0
 134:	49 4e       	sbci	r20, 0xE9	; 233
 136:	44 00       	.word	0x0044	; ????
 138:	4f 43       	sbci	r20, 0x3F	; 63
 13a:	52 30       	cpi	r21, 0x02	; 2
 13c:	42 00       	.word	0x0042	; ????
 13e:	4f 43       	sbci	r20, 0x3F	; 63
 140:	52 30       	cpi	r21, 0x02	; 2
 142:	41 00       	.word	0x0041	; ????
 144:	54 43       	sbci	r21, 0x34	; 52
 146:	4e 54       	subi	r20, 0x4E	; 78
 148:	30 00       	.word	0x0030	; ????
 14a:	54 43       	sbci	r21, 0x34	; 52
 14c:	43 52       	subi	r20, 0x23	; 35
 14e:	30 42       	sbci	r19, 0x20	; 32
 150:	00 54       	subi	r16, 0x40	; 64
 152:	43 43       	sbci	r20, 0x33	; 51
 154:	52 30       	cpi	r21, 0x02	; 2
 156:	41 00       	.word	0x0041	; ????
 158:	54 49       	sbci	r21, 0x94	; 148
 15a:	4d 53       	subi	r20, 0x3D	; 61
 15c:	4b 30       	cpi	r20, 0x0B	; 11
 15e:	00 54       	subi	r16, 0x40	; 64
 160:	49 46       	sbci	r20, 0x69	; 105
 162:	52 30       	cpi	r21, 0x02	; 2
 164:	00 47       	sbci	r16, 0x70	; 112
 166:	54 43       	sbci	r21, 0x34	; 52
 168:	43 52       	subi	r20, 0x23	; 35
 16a:	00 45       	sbci	r16, 0x50	; 80
 16c:	49 43       	sbci	r20, 0x39	; 57
 16e:	52 41       	sbci	r21, 0x12	; 18
 170:	00 45       	sbci	r16, 0x50	; 80
 172:	49 4d       	sbci	r20, 0xD9	; 217
 174:	53 4b       	sbci	r21, 0xB3	; 179
 176:	00 45       	sbci	r16, 0x50	; 80
 178:	49 46       	sbci	r20, 0x69	; 105
 17a:	52 00       	.word	0x0052	; ????
 17c:	50 43       	sbci	r21, 0x30	; 48
 17e:	49 43       	sbci	r20, 0x39	; 57
 180:	52 00       	.word	0x0052	; ????
 182:	50 43       	sbci	r21, 0x30	; 48
 184:	4d 53       	subi	r20, 0x3D	; 61
 186:	4b 32       	cpi	r20, 0x2B	; 43
 188:	00 50       	subi	r16, 0x00	; 0
 18a:	43 4d       	sbci	r20, 0xD3	; 211
 18c:	53 4b       	sbci	r21, 0xB3	; 179
 18e:	31 00       	.word	0x0031	; ????
 190:	50 43       	sbci	r21, 0x30	; 48
 192:	4d 53       	subi	r20, 0x3D	; 61
 194:	4b 30       	cpi	r20, 0x0B	; 11
 196:	00 50       	subi	r16, 0x00	; 0
 198:	43 49       	sbci	r20, 0x93	; 147
 19a:	46 52       	subi	r20, 0x26	; 38
 19c:	00 53       	subi	r16, 0x30	; 48
 19e:	50 44       	sbci	r21, 0x40	; 64
 1a0:	52 00       	.word	0x0052	; ????
 1a2:	53 50       	subi	r21, 0x03	; 3
 1a4:	53 52       	subi	r21, 0x23	; 35
 1a6:	00 53       	subi	r16, 0x30	; 48
 1a8:	50 43       	sbci	r21, 0x30	; 48
 1aa:	52 00       	.word	0x0052	; ????
 1ac:	57 44       	sbci	r21, 0x47	; 71
 1ae:	54 43       	sbci	r21, 0x34	; 52
 1b0:	53 52       	subi	r21, 0x23	; 35
 1b2:	00 50       	subi	r16, 0x00	; 0
 1b4:	52 52       	subi	r21, 0x22	; 34
 1b6:	00 4f       	sbci	r16, 0xF0	; 240
 1b8:	53 43       	sbci	r21, 0x33	; 51
 1ba:	43 41       	sbci	r20, 0x13	; 19
 1bc:	4c 00       	.word	0x004c	; ????
 1be:	43 4c       	sbci	r20, 0xC3	; 195
 1c0:	4b 50       	subi	r20, 0x0B	; 11
 1c2:	52 00       	.word	0x0052	; ????
 1c4:	53 52       	subi	r21, 0x23	; 35
 1c6:	45 47       	sbci	r20, 0x75	; 117
 1c8:	00 53       	subi	r16, 0x30	; 48
 1ca:	50 00       	.word	0x0050	; ????
 1cc:	53 50       	subi	r21, 0x03	; 3
 1ce:	4d 43       	sbci	r20, 0x3D	; 61
 1d0:	53 52       	subi	r21, 0x23	; 35
 1d2:	00 4d       	sbci	r16, 0xD0	; 208
 1d4:	43 55       	subi	r20, 0x53	; 83
 1d6:	43 52       	subi	r20, 0x23	; 35
 1d8:	00 4d       	sbci	r16, 0xD0	; 208
 1da:	43 55       	subi	r20, 0x53	; 83
 1dc:	53 52       	subi	r21, 0x23	; 35
 1de:	00 53       	subi	r16, 0x30	; 48
 1e0:	4d 43       	sbci	r20, 0x3D	; 61
 1e2:	52 00       	.word	0x0052	; ????
 1e4:	47 50       	subi	r20, 0x07	; 7
 1e6:	49 4f       	sbci	r20, 0xF9	; 249
 1e8:	52 32       	cpi	r21, 0x22	; 34
 1ea:	00 47       	sbci	r16, 0x70	; 112
 1ec:	50 49       	sbci	r21, 0x90	; 144
 1ee:	4f 52       	subi	r20, 0x2F	; 47
 1f0:	31 00       	.word	0x0031	; ????
 1f2:	47 50       	subi	r20, 0x07	; 7
 1f4:	49 4f       	sbci	r20, 0xF9	; 249
 1f6:	52 30       	cpi	r21, 0x02	; 2
 1f8:	00 45       	sbci	r16, 0x50	; 80
 1fa:	45 41       	sbci	r20, 0x15	; 21
 1fc:	52 00       	.word	0x0052	; ????
 1fe:	45 45       	sbci	r20, 0x55	; 85
 200:	44 52       	subi	r20, 0x24	; 36
 202:	00 45       	sbci	r16, 0x50	; 80
 204:	45 43       	sbci	r20, 0x35	; 53
 206:	52 00       	.word	0x0052	; ????
